
CWE758_Undefined_Behavior__int_pointer_alloca_use_01.out:     file format elf64-x86-64


Disassembly of section .init:

0000000000401038 <_init>:
  401038:	48 83 ec 08          	sub    $0x8,%rsp
  40103c:	48 8b 05 b5 6f 21 00 	mov    0x216fb5(%rip),%rax        # 617ff8 <__gmon_start__>
  401043:	48 85 c0             	test   %rax,%rax
  401046:	74 02                	je     40104a <_init+0x12>
  401048:	ff d0                	callq  *%rax
  40104a:	48 83 c4 08          	add    $0x8,%rsp
  40104e:	c3                   	retq   

Disassembly of section .plt:

0000000000401050 <.plt>:
  401050:	ff 35 b2 6f 21 00    	pushq  0x216fb2(%rip)        # 618008 <_GLOBAL_OFFSET_TABLE_+0x8>
  401056:	ff 25 b4 6f 21 00    	jmpq   *0x216fb4(%rip)        # 618010 <_GLOBAL_OFFSET_TABLE_+0x10>
  40105c:	0f 1f 40 00          	nopl   0x0(%rax)

0000000000401060 <printf@plt>:
  401060:	ff 25 b2 6f 21 00    	jmpq   *0x216fb2(%rip)        # 618018 <printf@GLIBC_2.2.5>
  401066:	68 00 00 00 00       	pushq  $0x0
  40106b:	e9 e0 ff ff ff       	jmpq   401050 <.plt>

0000000000401070 <_ZSt29_Rb_tree_insert_and_rebalancebPSt18_Rb_tree_node_baseS0_RS_@plt>:
  401070:	ff 25 aa 6f 21 00    	jmpq   *0x216faa(%rip)        # 618020 <_ZSt29_Rb_tree_insert_and_rebalancebPSt18_Rb_tree_node_baseS0_RS_@GLIBCXX_3.4>
  401076:	68 01 00 00 00       	pushq  $0x1
  40107b:	e9 d0 ff ff ff       	jmpq   401050 <.plt>

0000000000401080 <rand@plt>:
  401080:	ff 25 a2 6f 21 00    	jmpq   *0x216fa2(%rip)        # 618028 <rand@GLIBC_2.2.5>
  401086:	68 02 00 00 00       	pushq  $0x2
  40108b:	e9 c0 ff ff ff       	jmpq   401050 <.plt>

0000000000401090 <_ZSt17__throw_bad_allocv@plt>:
  401090:	ff 25 9a 6f 21 00    	jmpq   *0x216f9a(%rip)        # 618030 <_ZSt17__throw_bad_allocv@GLIBCXX_3.4>
  401096:	68 03 00 00 00       	pushq  $0x3
  40109b:	e9 b0 ff ff ff       	jmpq   401050 <.plt>

00000000004010a0 <strlen@plt>:
  4010a0:	ff 25 92 6f 21 00    	jmpq   *0x216f92(%rip)        # 618038 <strlen@GLIBC_2.2.5>
  4010a6:	68 04 00 00 00       	pushq  $0x4
  4010ab:	e9 a0 ff ff ff       	jmpq   401050 <.plt>

00000000004010b0 <pthread_join@plt>:
  4010b0:	ff 25 8a 6f 21 00    	jmpq   *0x216f8a(%rip)        # 618040 <pthread_join@GLIBC_2.2.5>
  4010b6:	68 05 00 00 00       	pushq  $0x5
  4010bb:	e9 90 ff ff ff       	jmpq   401050 <.plt>

00000000004010c0 <__isoc99_swscanf@plt>:
  4010c0:	ff 25 82 6f 21 00    	jmpq   *0x216f82(%rip)        # 618048 <__isoc99_swscanf@GLIBC_2.7>
  4010c6:	68 06 00 00 00       	pushq  $0x6
  4010cb:	e9 80 ff ff ff       	jmpq   401050 <.plt>

00000000004010d0 <memset@plt>:
  4010d0:	ff 25 7a 6f 21 00    	jmpq   *0x216f7a(%rip)        # 618050 <memset@GLIBC_2.2.5>
  4010d6:	68 07 00 00 00       	pushq  $0x7
  4010db:	e9 70 ff ff ff       	jmpq   401050 <.plt>

00000000004010e0 <abort@plt>:
  4010e0:	ff 25 72 6f 21 00    	jmpq   *0x216f72(%rip)        # 618058 <abort@GLIBC_2.2.5>
  4010e6:	68 08 00 00 00       	pushq  $0x8
  4010eb:	e9 60 ff ff ff       	jmpq   401050 <.plt>

00000000004010f0 <pthread_create@plt>:
  4010f0:	ff 25 6a 6f 21 00    	jmpq   *0x216f6a(%rip)        # 618060 <pthread_create@GLIBC_2.2.5>
  4010f6:	68 09 00 00 00       	pushq  $0x9
  4010fb:	e9 50 ff ff ff       	jmpq   401050 <.plt>

0000000000401100 <__assert_fail@plt>:
  401100:	ff 25 62 6f 21 00    	jmpq   *0x216f62(%rip)        # 618068 <__assert_fail@GLIBC_2.2.5>
  401106:	68 0a 00 00 00       	pushq  $0xa
  40110b:	e9 40 ff ff ff       	jmpq   401050 <.plt>

0000000000401110 <strncat@plt>:
  401110:	ff 25 5a 6f 21 00    	jmpq   *0x216f5a(%rip)        # 618070 <strncat@GLIBC_2.2.5>
  401116:	68 0b 00 00 00       	pushq  $0xb
  40111b:	e9 30 ff ff ff       	jmpq   401050 <.plt>

0000000000401120 <_ZSt18_Rb_tree_incrementPSt18_Rb_tree_node_base@plt>:
  401120:	ff 25 52 6f 21 00    	jmpq   *0x216f52(%rip)        # 618078 <_ZSt18_Rb_tree_incrementPSt18_Rb_tree_node_base@GLIBCXX_3.4>
  401126:	68 0c 00 00 00       	pushq  $0xc
  40112b:	e9 20 ff ff ff       	jmpq   401050 <.plt>

0000000000401130 <pthread_mutex_unlock@plt>:
  401130:	ff 25 4a 6f 21 00    	jmpq   *0x216f4a(%rip)        # 618080 <pthread_mutex_unlock@GLIBC_2.2.5>
  401136:	68 0d 00 00 00       	pushq  $0xd
  40113b:	e9 10 ff ff ff       	jmpq   401050 <.plt>

0000000000401140 <__cxa_atexit@plt>:
  401140:	ff 25 42 6f 21 00    	jmpq   *0x216f42(%rip)        # 618088 <__cxa_atexit@GLIBC_2.2.5>
  401146:	68 0e 00 00 00       	pushq  $0xe
  40114b:	e9 00 ff ff ff       	jmpq   401050 <.plt>

0000000000401150 <time@plt>:
  401150:	ff 25 3a 6f 21 00    	jmpq   *0x216f3a(%rip)        # 618090 <time@GLIBC_2.2.5>
  401156:	68 0f 00 00 00       	pushq  $0xf
  40115b:	e9 f0 fe ff ff       	jmpq   401050 <.plt>

0000000000401160 <strcpy@plt>:
  401160:	ff 25 32 6f 21 00    	jmpq   *0x216f32(%rip)        # 618098 <strcpy@GLIBC_2.2.5>
  401166:	68 10 00 00 00       	pushq  $0x10
  40116b:	e9 e0 fe ff ff       	jmpq   401050 <.plt>

0000000000401170 <_ZdlPv@plt>:
  401170:	ff 25 2a 6f 21 00    	jmpq   *0x216f2a(%rip)        # 6180a0 <_ZdlPv@GLIBCXX_3.4>
  401176:	68 11 00 00 00       	pushq  $0x11
  40117b:	e9 d0 fe ff ff       	jmpq   401050 <.plt>

0000000000401180 <__libc_realloc@plt>:
  401180:	ff 25 22 6f 21 00    	jmpq   *0x216f22(%rip)        # 6180a8 <__libc_realloc@GLIBC_2.2.5>
  401186:	68 12 00 00 00       	pushq  $0x12
  40118b:	e9 c0 fe ff ff       	jmpq   401050 <.plt>

0000000000401190 <srand@plt>:
  401190:	ff 25 1a 6f 21 00    	jmpq   *0x216f1a(%rip)        # 6180b0 <srand@GLIBC_2.2.5>
  401196:	68 13 00 00 00       	pushq  $0x13
  40119b:	e9 b0 fe ff ff       	jmpq   401050 <.plt>

00000000004011a0 <__isoc99_sscanf@plt>:
  4011a0:	ff 25 12 6f 21 00    	jmpq   *0x216f12(%rip)        # 6180b8 <__isoc99_sscanf@GLIBC_2.7>
  4011a6:	68 14 00 00 00       	pushq  $0x14
  4011ab:	e9 a0 fe ff ff       	jmpq   401050 <.plt>

00000000004011b0 <_Znwm@plt>:
  4011b0:	ff 25 0a 6f 21 00    	jmpq   *0x216f0a(%rip)        # 6180c0 <_Znwm@GLIBCXX_3.4>
  4011b6:	68 15 00 00 00       	pushq  $0x15
  4011bb:	e9 90 fe ff ff       	jmpq   401050 <.plt>

00000000004011c0 <_ZSt18_Rb_tree_decrementPSt18_Rb_tree_node_base@plt>:
  4011c0:	ff 25 02 6f 21 00    	jmpq   *0x216f02(%rip)        # 6180c8 <_ZSt18_Rb_tree_decrementPSt18_Rb_tree_node_base@GLIBCXX_3.4>
  4011c6:	68 16 00 00 00       	pushq  $0x16
  4011cb:	e9 80 fe ff ff       	jmpq   401050 <.plt>

00000000004011d0 <__ctype_b_loc@plt>:
  4011d0:	ff 25 fa 6e 21 00    	jmpq   *0x216efa(%rip)        # 6180d0 <__ctype_b_loc@GLIBC_2.3>
  4011d6:	68 17 00 00 00       	pushq  $0x17
  4011db:	e9 70 fe ff ff       	jmpq   401050 <.plt>

00000000004011e0 <malloc_usable_size@plt>:
  4011e0:	ff 25 f2 6e 21 00    	jmpq   *0x216ef2(%rip)        # 6180d8 <malloc_usable_size@GLIBC_2.2.5>
  4011e6:	68 18 00 00 00       	pushq  $0x18
  4011eb:	e9 60 fe ff ff       	jmpq   401050 <.plt>

00000000004011f0 <pthread_mutex_destroy@plt>:
  4011f0:	ff 25 ea 6e 21 00    	jmpq   *0x216eea(%rip)        # 6180e0 <pthread_mutex_destroy@GLIBC_2.2.5>
  4011f6:	68 19 00 00 00       	pushq  $0x19
  4011fb:	e9 50 fe ff ff       	jmpq   401050 <.plt>

0000000000401200 <__libc_calloc@plt>:
  401200:	ff 25 e2 6e 21 00    	jmpq   *0x216ee2(%rip)        # 6180e8 <__libc_calloc@GLIBC_2.2.5>
  401206:	68 1a 00 00 00       	pushq  $0x1a
  40120b:	e9 40 fe ff ff       	jmpq   401050 <.plt>

0000000000401210 <exit@plt>:
  401210:	ff 25 da 6e 21 00    	jmpq   *0x216eda(%rip)        # 6180f0 <exit@GLIBC_2.2.5>
  401216:	68 1b 00 00 00       	pushq  $0x1b
  40121b:	e9 30 fe ff ff       	jmpq   401050 <.plt>

0000000000401220 <getenv@plt>:
  401220:	ff 25 d2 6e 21 00    	jmpq   *0x216ed2(%rip)        # 6180f8 <getenv@GLIBC_2.2.5>
  401226:	68 1c 00 00 00       	pushq  $0x1c
  40122b:	e9 20 fe ff ff       	jmpq   401050 <.plt>

0000000000401230 <__libc_free@plt>:
  401230:	ff 25 ca 6e 21 00    	jmpq   *0x216eca(%rip)        # 618100 <__libc_free@GLIBC_2.2.5>
  401236:	68 1d 00 00 00       	pushq  $0x1d
  40123b:	e9 10 fe ff ff       	jmpq   401050 <.plt>

0000000000401240 <putchar@plt>:
  401240:	ff 25 c2 6e 21 00    	jmpq   *0x216ec2(%rip)        # 618108 <putchar@GLIBC_2.2.5>
  401246:	68 1e 00 00 00       	pushq  $0x1e
  40124b:	e9 00 fe ff ff       	jmpq   401050 <.plt>

0000000000401250 <fprintf@plt>:
  401250:	ff 25 ba 6e 21 00    	jmpq   *0x216eba(%rip)        # 618110 <fprintf@GLIBC_2.2.5>
  401256:	68 1f 00 00 00       	pushq  $0x1f
  40125b:	e9 f0 fd ff ff       	jmpq   401050 <.plt>

0000000000401260 <wprintf@plt>:
  401260:	ff 25 b2 6e 21 00    	jmpq   *0x216eb2(%rip)        # 618118 <wprintf@GLIBC_2.2.5>
  401266:	68 20 00 00 00       	pushq  $0x20
  40126b:	e9 e0 fd ff ff       	jmpq   401050 <.plt>

0000000000401270 <pthread_mutex_lock@plt>:
  401270:	ff 25 aa 6e 21 00    	jmpq   *0x216eaa(%rip)        # 618120 <pthread_mutex_lock@GLIBC_2.2.5>
  401276:	68 21 00 00 00       	pushq  $0x21
  40127b:	e9 d0 fd ff ff       	jmpq   401050 <.plt>

0000000000401280 <pthread_mutex_init@plt>:
  401280:	ff 25 a2 6e 21 00    	jmpq   *0x216ea2(%rip)        # 618128 <pthread_mutex_init@GLIBC_2.2.5>
  401286:	68 22 00 00 00       	pushq  $0x22
  40128b:	e9 c0 fd ff ff       	jmpq   401050 <.plt>

0000000000401290 <_ZNSt8ios_base4InitC1Ev@plt>:
  401290:	ff 25 9a 6e 21 00    	jmpq   *0x216e9a(%rip)        # 618130 <_ZNSt8ios_base4InitC1Ev@GLIBCXX_3.4>
  401296:	68 23 00 00 00       	pushq  $0x23
  40129b:	e9 b0 fd ff ff       	jmpq   401050 <.plt>

00000000004012a0 <puts@plt>:
  4012a0:	ff 25 92 6e 21 00    	jmpq   *0x216e92(%rip)        # 618138 <puts@GLIBC_2.2.5>
  4012a6:	68 24 00 00 00       	pushq  $0x24
  4012ab:	e9 a0 fd ff ff       	jmpq   401050 <.plt>

00000000004012b0 <__libc_malloc@plt>:
  4012b0:	ff 25 8a 6e 21 00    	jmpq   *0x216e8a(%rip)        # 618140 <__libc_malloc@GLIBC_2.2.5>
  4012b6:	68 25 00 00 00       	pushq  $0x25
  4012bb:	e9 90 fd ff ff       	jmpq   401050 <.plt>

00000000004012c0 <pthread_exit@plt>:
  4012c0:	ff 25 82 6e 21 00    	jmpq   *0x216e82(%rip)        # 618148 <pthread_exit@GLIBC_2.2.5>
  4012c6:	68 26 00 00 00       	pushq  $0x26
  4012cb:	e9 80 fd ff ff       	jmpq   401050 <.plt>

00000000004012d0 <strcat@plt>:
  4012d0:	ff 25 7a 6e 21 00    	jmpq   *0x216e7a(%rip)        # 618150 <strcat@GLIBC_2.2.5>
  4012d6:	68 27 00 00 00       	pushq  $0x27
  4012db:	e9 70 fd ff ff       	jmpq   401050 <.plt>

00000000004012e0 <mmap@plt>:
  4012e0:	ff 25 72 6e 21 00    	jmpq   *0x216e72(%rip)        # 618158 <mmap@GLIBC_2.2.5>
  4012e6:	68 28 00 00 00       	pushq  $0x28
  4012eb:	e9 60 fd ff ff       	jmpq   401050 <.plt>

00000000004012f0 <iswxdigit@plt>:
  4012f0:	ff 25 6a 6e 21 00    	jmpq   *0x216e6a(%rip)        # 618160 <iswxdigit@GLIBC_2.2.5>
  4012f6:	68 29 00 00 00       	pushq  $0x29
  4012fb:	e9 50 fd ff ff       	jmpq   401050 <.plt>

0000000000401300 <_ZNSt8ios_base4InitD1Ev@plt>:
  401300:	ff 25 62 6e 21 00    	jmpq   *0x216e62(%rip)        # 618168 <_ZNSt8ios_base4InitD1Ev@GLIBCXX_3.4>
  401306:	68 2a 00 00 00       	pushq  $0x2a
  40130b:	e9 40 fd ff ff       	jmpq   401050 <.plt>

Disassembly of section .text:

0000000000401310 <__cxx_global_var_init>:
  401310:	50                   	push   %rax
  401311:	48 bf b0 84 61 00 00 	movabs $0x6184b0,%rdi
  401318:	00 00 00 
  40131b:	e8 70 ff ff ff       	callq  401290 <_ZNSt8ios_base4InitC1Ev@plt>
  401320:	48 bf 00 13 40 00 00 	movabs $0x401300,%rdi
  401327:	00 00 00 
  40132a:	48 be b0 84 61 00 00 	movabs $0x6184b0,%rsi
  401331:	00 00 00 
  401334:	48 ba 78 81 61 00 00 	movabs $0x618178,%rdx
  40133b:	00 00 00 
  40133e:	e8 fd fd ff ff       	callq  401140 <__cxa_atexit@plt>
  401343:	58                   	pop    %rax
  401344:	c3                   	retq   
  401345:	66 2e 0f 1f 84 00 00 	nopw   %cs:0x0(%rax,%rax,1)
  40134c:	00 00 00 
  40134f:	90                   	nop

0000000000401350 <_GLOBAL__sub_I_myruntime.cpp>:
  401350:	50                   	push   %rax
  401351:	e8 ba ff ff ff       	callq  401310 <__cxx_global_var_init>
  401356:	58                   	pop    %rax
  401357:	c3                   	retq   
  401358:	0f 1f 84 00 00 00 00 	nopl   0x0(%rax,%rax,1)
  40135f:	00 

0000000000401360 <_start>:
  401360:	31 ed                	xor    %ebp,%ebp
  401362:	49 89 d1             	mov    %rdx,%r9
  401365:	5e                   	pop    %rsi
  401366:	48 89 e2             	mov    %rsp,%rdx
  401369:	48 83 e4 f0          	and    $0xfffffffffffffff0,%rsp
  40136d:	50                   	push   %rax
  40136e:	54                   	push   %rsp
  40136f:	49 c7 c0 40 49 41 00 	mov    $0x414940,%r8
  401376:	48 c7 c1 d0 48 41 00 	mov    $0x4148d0,%rcx
  40137d:	48 c7 c7 f0 19 40 00 	mov    $0x4019f0,%rdi
  401384:	ff 15 66 6c 21 00    	callq  *0x216c66(%rip)        # 617ff0 <__libc_start_main@GLIBC_2.2.5>
  40138a:	f4                   	hlt    
  40138b:	0f 1f 44 00 00       	nopl   0x0(%rax,%rax,1)

0000000000401390 <_dl_relocate_static_pie>:
  401390:	f3 c3                	repz retq 
  401392:	66 2e 0f 1f 84 00 00 	nopw   %cs:0x0(%rax,%rax,1)
  401399:	00 00 00 
  40139c:	0f 1f 40 00          	nopl   0x0(%rax)

00000000004013a0 <deregister_tm_clones>:
  4013a0:	55                   	push   %rbp
  4013a1:	b8 38 82 61 00       	mov    $0x618238,%eax
  4013a6:	48 3d 38 82 61 00    	cmp    $0x618238,%rax
  4013ac:	48 89 e5             	mov    %rsp,%rbp
  4013af:	74 17                	je     4013c8 <deregister_tm_clones+0x28>
  4013b1:	b8 00 00 00 00       	mov    $0x0,%eax
  4013b6:	48 85 c0             	test   %rax,%rax
  4013b9:	74 0d                	je     4013c8 <deregister_tm_clones+0x28>
  4013bb:	5d                   	pop    %rbp
  4013bc:	bf 38 82 61 00       	mov    $0x618238,%edi
  4013c1:	ff e0                	jmpq   *%rax
  4013c3:	0f 1f 44 00 00       	nopl   0x0(%rax,%rax,1)
  4013c8:	5d                   	pop    %rbp
  4013c9:	c3                   	retq   
  4013ca:	66 0f 1f 44 00 00    	nopw   0x0(%rax,%rax,1)

00000000004013d0 <register_tm_clones>:
  4013d0:	be 38 82 61 00       	mov    $0x618238,%esi
  4013d5:	55                   	push   %rbp
  4013d6:	48 81 ee 38 82 61 00 	sub    $0x618238,%rsi
  4013dd:	48 89 e5             	mov    %rsp,%rbp
  4013e0:	48 c1 fe 03          	sar    $0x3,%rsi
  4013e4:	48 89 f0             	mov    %rsi,%rax
  4013e7:	48 c1 e8 3f          	shr    $0x3f,%rax
  4013eb:	48 01 c6             	add    %rax,%rsi
  4013ee:	48 d1 fe             	sar    %rsi
  4013f1:	74 15                	je     401408 <register_tm_clones+0x38>
  4013f3:	b8 00 00 00 00       	mov    $0x0,%eax
  4013f8:	48 85 c0             	test   %rax,%rax
  4013fb:	74 0b                	je     401408 <register_tm_clones+0x38>
  4013fd:	5d                   	pop    %rbp
  4013fe:	bf 38 82 61 00       	mov    $0x618238,%edi
  401403:	ff e0                	jmpq   *%rax
  401405:	0f 1f 00             	nopl   (%rax)
  401408:	5d                   	pop    %rbp
  401409:	c3                   	retq   
  40140a:	66 0f 1f 44 00 00    	nopw   0x0(%rax,%rax,1)

0000000000401410 <__do_global_dtors_aux>:
  401410:	80 3d 79 70 21 00 00 	cmpb   $0x0,0x217079(%rip)        # 618490 <completed.7698>
  401417:	75 17                	jne    401430 <__do_global_dtors_aux+0x20>
  401419:	55                   	push   %rbp
  40141a:	48 89 e5             	mov    %rsp,%rbp
  40141d:	e8 7e ff ff ff       	callq  4013a0 <deregister_tm_clones>
  401422:	c6 05 67 70 21 00 01 	movb   $0x1,0x217067(%rip)        # 618490 <completed.7698>
  401429:	5d                   	pop    %rbp
  40142a:	c3                   	retq   
  40142b:	0f 1f 44 00 00       	nopl   0x0(%rax,%rax,1)
  401430:	f3 c3                	repz retq 
  401432:	0f 1f 40 00          	nopl   0x0(%rax)
  401436:	66 2e 0f 1f 84 00 00 	nopw   %cs:0x0(%rax,%rax,1)
  40143d:	00 00 00 

0000000000401440 <frame_dummy>:
  401440:	55                   	push   %rbp
  401441:	48 89 e5             	mov    %rsp,%rbp
  401444:	5d                   	pop    %rbp
  401445:	eb 89                	jmp    4013d0 <register_tm_clones>
  401447:	66 0f 1f 84 00 00 00 	nopw   0x0(%rax,%rax,1)
  40144e:	00 00 

0000000000401450 <CWE758_Undefined_Behavior__int_pointer_alloca_use_01_bad>:
  401450:	55                   	push   %rbp
  401451:	48 89 e5             	mov    %rsp,%rbp
  401454:	48 81 ec 00 01 00 00 	sub    $0x100,%rsp
  40145b:	48 8d 45 f0          	lea    -0x10(%rbp),%rax
  40145f:	48 89 45 c8          	mov    %rax,-0x38(%rbp)
  401463:	48 8d 45 f0          	lea    -0x10(%rbp),%rax
  401467:	48 89 45 d0          	mov    %rax,-0x30(%rbp)
  40146b:	48 89 c1             	mov    %rax,%rcx
  40146e:	48 c1 e9 08          	shr    $0x8,%rcx
  401472:	48 89 4d d8          	mov    %rcx,-0x28(%rbp)
  401476:	48 25 00 ff ff ff    	and    $0xffffffffffffff00,%rax
  40147c:	48 89 45 e0          	mov    %rax,-0x20(%rbp)
  401480:	48 8b 04 25 98 81 61 	mov    0x618198,%rax
  401487:	00 
  401488:	48 89 c2             	mov    %rax,%rdx
  40148b:	48 01 ca             	add    %rcx,%rdx
  40148e:	48 89 55 e8          	mov    %rdx,-0x18(%rbp)
  401492:	80 3c 08 00          	cmpb   $0x0,(%rax,%rcx,1)
  401496:	0f 85 25 00 00 00    	jne    4014c1 <CWE758_Undefined_Behavior__int_pointer_alloca_use_01_bad+0x71>
  40149c:	48 8b 7d e0          	mov    -0x20(%rbp),%rdi
  4014a0:	48 8b 45 e8          	mov    -0x18(%rbp),%rax
  4014a4:	c6 00 01             	movb   $0x1,(%rax)
  4014a7:	48 c1 ef 03          	shr    $0x3,%rdi
  4014ab:	48 81 c7 00 80 ff 7f 	add    $0x7fff8000,%rdi
  4014b2:	be ff 00 00 00       	mov    $0xff,%esi
  4014b7:	ba 20 00 00 00       	mov    $0x20,%edx
  4014bc:	e8 0f fc ff ff       	callq  4010d0 <memset@plt>
  4014c1:	48 8b 4d d0          	mov    -0x30(%rbp),%rcx
  4014c5:	48 8b 45 e0          	mov    -0x20(%rbp),%rax
  4014c9:	48 89 ca             	mov    %rcx,%rdx
  4014cc:	48 c1 ea 03          	shr    $0x3,%rdx
  4014d0:	48 89 d6             	mov    %rdx,%rsi
  4014d3:	48 81 c6 00 80 ff 7f 	add    $0x7fff8000,%rsi
  4014da:	48 89 75 98          	mov    %rsi,-0x68(%rbp)
  4014de:	c6 82 00 80 ff 7f 01 	movb   $0x1,0x7fff8000(%rdx)
  4014e5:	48 8b 75 f0          	mov    -0x10(%rbp),%rsi
  4014e9:	48 89 75 a0          	mov    %rsi,-0x60(%rbp)
  4014ed:	48 81 c2 ff 7f ff 7f 	add    $0x7fff7fff,%rdx
  4014f4:	48 89 55 a8          	mov    %rdx,-0x58(%rbp)
  4014f8:	48 29 c8             	sub    %rcx,%rax
  4014fb:	48 89 45 b0          	mov    %rax,-0x50(%rbp)
  4014ff:	b1 01                	mov    $0x1,%cl
  401501:	31 c0                	xor    %eax,%eax
  401503:	88 4d bf             	mov    %cl,-0x41(%rbp)
  401506:	48 89 45 c0          	mov    %rax,-0x40(%rbp)
  40150a:	8a 45 bf             	mov    -0x41(%rbp),%al
  40150d:	48 8b 4d c0          	mov    -0x40(%rbp),%rcx
  401511:	48 89 4d 88          	mov    %rcx,-0x78(%rbp)
  401515:	88 45 96             	mov    %al,-0x6a(%rbp)
  401518:	3c 00                	cmp    $0x0,%al
  40151a:	0f 94 c0             	sete   %al
  40151d:	88 45 97             	mov    %al,-0x69(%rbp)
  401520:	a8 01                	test   $0x1,%al
  401522:	0f 85 05 00 00 00    	jne    40152d <CWE758_Undefined_Behavior__int_pointer_alloca_use_01_bad+0xdd>
  401528:	e9 20 00 00 00       	jmpq   40154d <CWE758_Undefined_Behavior__int_pointer_alloca_use_01_bad+0xfd>
  40152d:	48 8b 45 b0          	mov    -0x50(%rbp),%rax
  401531:	48 8b 55 d8          	mov    -0x28(%rbp),%rdx
  401535:	48 8b 0c 25 80 81 61 	mov    0x618180,%rcx
  40153c:	00 
  40153d:	48 63 0c 91          	movslq (%rcx,%rdx,4),%rcx
  401541:	48 01 c8             	add    %rcx,%rax
  401544:	48 89 45 80          	mov    %rax,-0x80(%rbp)
  401548:	e9 76 00 00 00       	jmpq   4015c3 <CWE758_Undefined_Behavior__int_pointer_alloca_use_01_bad+0x173>
  40154d:	48 8b 45 a8          	mov    -0x58(%rbp),%rax
  401551:	8a 4d 96             	mov    -0x6a(%rbp),%cl
  401554:	80 c1 1f             	add    $0x1f,%cl
  401557:	80 e1 1f             	and    $0x1f,%cl
  40155a:	0f b6 c9             	movzbl %cl,%ecx
  40155d:	ba 01 00 00 00       	mov    $0x1,%edx
  401562:	d3 e2                	shl    %cl,%edx
  401564:	89 d1                	mov    %edx,%ecx
  401566:	48 63 c9             	movslq %ecx,%rcx
  401569:	48 01 c8             	add    %rcx,%rax
  40156c:	8a 08                	mov    (%rax),%cl
  40156e:	80 c1 1f             	add    $0x1f,%cl
  401571:	80 e1 1f             	and    $0x1f,%cl
  401574:	0f b6 c9             	movzbl %cl,%ecx
  401577:	ba ff ff ff ff       	mov    $0xffffffff,%edx
  40157c:	d3 e2                	shl    %cl,%edx
  40157e:	89 d1                	mov    %edx,%ecx
  401580:	83 f1 ff             	xor    $0xffffffff,%ecx
  401583:	89 c9                	mov    %ecx,%ecx
  401585:	48 01 c8             	add    %rcx,%rax
  401588:	8a 08                	mov    (%rax),%cl
  40158a:	80 c1 1f             	add    $0x1f,%cl
  40158d:	80 e1 1f             	and    $0x1f,%cl
  401590:	0f b6 c9             	movzbl %cl,%ecx
  401593:	ba ff ff ff ff       	mov    $0xffffffff,%edx
  401598:	d3 e2                	shl    %cl,%edx
  40159a:	48 8b 4d 98          	mov    -0x68(%rbp),%rcx
  40159e:	83 f2 ff             	xor    $0xffffffff,%edx
  4015a1:	89 d2                	mov    %edx,%edx
  4015a3:	48 01 d0             	add    %rdx,%rax
  4015a6:	8a 10                	mov    (%rax),%dl
  4015a8:	80 c2 ff             	add    $0xff,%dl
  4015ab:	48 29 c8             	sub    %rcx,%rax
  4015ae:	48 c1 e0 03          	shl    $0x3,%rax
  4015b2:	c0 ea 05             	shr    $0x5,%dl
  4015b5:	b1 08                	mov    $0x8,%cl
  4015b7:	28 d1                	sub    %dl,%cl
  4015b9:	0f b6 c9             	movzbl %cl,%ecx
  4015bc:	48 01 c8             	add    %rcx,%rax
  4015bf:	48 89 45 80          	mov    %rax,-0x80(%rbp)
  4015c3:	48 8b 55 c8          	mov    -0x38(%rbp),%rdx
  4015c7:	48 8b 75 d0          	mov    -0x30(%rbp),%rsi
  4015cb:	48 8b 7d 88          	mov    -0x78(%rbp),%rdi
  4015cf:	48 8b 4d 80          	mov    -0x80(%rbp),%rcx
  4015d3:	48 89 8d 68 ff ff ff 	mov    %rcx,-0x98(%rbp)
  4015da:	48 89 d0             	mov    %rdx,%rax
  4015dd:	48 01 f8             	add    %rdi,%rax
  4015e0:	48 89 85 70 ff ff ff 	mov    %rax,-0x90(%rbp)
  4015e7:	48 01 f1             	add    %rsi,%rcx
  4015ea:	48 39 c1             	cmp    %rax,%rcx
  4015ed:	0f 96 c1             	setbe  %cl
  4015f0:	48 39 d0             	cmp    %rdx,%rax
  4015f3:	0f 97 c0             	seta   %al
  4015f6:	88 85 7f ff ff ff    	mov    %al,-0x81(%rbp)
  4015fc:	20 c8                	and    %cl,%al
  4015fe:	a8 01                	test   $0x1,%al
  401600:	0f 85 05 00 00 00    	jne    40160b <CWE758_Undefined_Behavior__int_pointer_alloca_use_01_bad+0x1bb>
  401606:	e9 91 01 00 00       	jmpq   40179c <CWE758_Undefined_Behavior__int_pointer_alloca_use_01_bad+0x34c>
  40160b:	8a 45 97             	mov    -0x69(%rbp),%al
  40160e:	8a 4d 96             	mov    -0x6a(%rbp),%cl
  401611:	48 8b 95 70 ff ff ff 	mov    -0x90(%rbp),%rdx
  401618:	48 8b 7d d0          	mov    -0x30(%rbp),%rdi
  40161c:	48 89 d6             	mov    %rdx,%rsi
  40161f:	48 29 fe             	sub    %rdi,%rsi
  401622:	48 89 b5 48 ff ff ff 	mov    %rsi,-0xb8(%rbp)
  401629:	48 83 c2 ff          	add    $0xffffffffffffffff,%rdx
  40162d:	48 c1 ea 03          	shr    $0x3,%rdx
  401631:	48 89 d6             	mov    %rdx,%rsi
  401634:	48 81 c6 00 80 ff 7f 	add    $0x7fff8000,%rsi
  40163b:	48 89 b5 50 ff ff ff 	mov    %rsi,-0xb0(%rbp)
  401642:	48 81 c2 01 80 ff 7f 	add    $0x7fff8001,%rdx
  401649:	48 89 95 58 ff ff ff 	mov    %rdx,-0xa8(%rbp)
  401650:	80 c1 ff             	add    $0xff,%cl
  401653:	88 8d 67 ff ff ff    	mov    %cl,-0x99(%rbp)
  401659:	a8 01                	test   $0x1,%al
  40165b:	0f 85 05 00 00 00    	jne    401666 <CWE758_Undefined_Behavior__int_pointer_alloca_use_01_bad+0x216>
  401661:	e9 17 00 00 00       	jmpq   40167d <CWE758_Undefined_Behavior__int_pointer_alloca_use_01_bad+0x22d>
  401666:	48 8b 95 68 ff ff ff 	mov    -0x98(%rbp),%rdx
  40166d:	48 8b b5 48 ff ff ff 	mov    -0xb8(%rbp),%rsi
  401674:	48 8b 7d d0          	mov    -0x30(%rbp),%rdi
  401678:	e8 13 57 00 00       	callq  406d90 <__cocheck__reportError>
  40167d:	48 8b 85 48 ff ff ff 	mov    -0xb8(%rbp),%rax
  401684:	48 83 f8 09          	cmp    $0x9,%rax
  401688:	0f 83 37 00 00 00    	jae    4016c5 <CWE758_Undefined_Behavior__int_pointer_alloca_use_01_bad+0x275>
  40168e:	48 8b 85 48 ff ff ff 	mov    -0xb8(%rbp),%rax
  401695:	8a 8d 67 ff ff ff    	mov    -0x99(%rbp),%cl
  40169b:	c0 e9 05             	shr    $0x5,%cl
  40169e:	0f b6 c9             	movzbl %cl,%ecx
  4016a1:	48 01 c8             	add    %rcx,%rax
  4016a4:	48 83 f8 07          	cmp    $0x7,%rax
  4016a8:	0f 86 ee 00 00 00    	jbe    40179c <CWE758_Undefined_Behavior__int_pointer_alloca_use_01_bad+0x34c>
  4016ae:	48 8b 95 68 ff ff ff 	mov    -0x98(%rbp),%rdx
  4016b5:	48 8b b5 48 ff ff ff 	mov    -0xb8(%rbp),%rsi
  4016bc:	48 8b 7d d0          	mov    -0x30(%rbp),%rdi
  4016c0:	e8 cb 56 00 00       	callq  406d90 <__cocheck__reportError>
  4016c5:	48 8b 45 98          	mov    -0x68(%rbp),%rax
  4016c9:	8a 8d 67 ff ff ff    	mov    -0x99(%rbp),%cl
  4016cf:	0f b6 c9             	movzbl %cl,%ecx
  4016d2:	89 8d 40 ff ff ff    	mov    %ecx,-0xc0(%rbp)
  4016d8:	ba 01 00 00 00       	mov    $0x1,%edx
  4016dd:	d3 e2                	shl    %cl,%edx
  4016df:	48 8b 8d 58 ff ff ff 	mov    -0xa8(%rbp),%rcx
  4016e6:	89 95 44 ff ff ff    	mov    %edx,-0xbc(%rbp)
  4016ec:	c1 e2 01             	shl    $0x1,%edx
  4016ef:	48 63 d2             	movslq %edx,%rdx
  4016f2:	48 01 d0             	add    %rdx,%rax
  4016f5:	48 39 c8             	cmp    %rcx,%rax
  4016f8:	0f 86 27 00 00 00    	jbe    401725 <CWE758_Undefined_Behavior__int_pointer_alloca_use_01_bad+0x2d5>
  4016fe:	8b 8d 40 ff ff ff    	mov    -0xc0(%rbp),%ecx
  401704:	48 8b 85 58 ff ff ff 	mov    -0xa8(%rbp),%rax
  40170b:	8b 95 44 ff ff ff    	mov    -0xbc(%rbp),%edx
  401711:	48 63 d2             	movslq %edx,%rdx
  401714:	48 29 d0             	sub    %rdx,%rax
  401717:	0f b6 00             	movzbl (%rax),%eax
  40171a:	83 c0 ff             	add    $0xffffffff,%eax
  40171d:	39 c8                	cmp    %ecx,%eax
  40171f:	0f 84 17 00 00 00    	je     40173c <CWE758_Undefined_Behavior__int_pointer_alloca_use_01_bad+0x2ec>
  401725:	48 8b 95 68 ff ff ff 	mov    -0x98(%rbp),%rdx
  40172c:	48 8b b5 48 ff ff ff 	mov    -0xb8(%rbp),%rsi
  401733:	48 8b 7d d0          	mov    -0x30(%rbp),%rdi
  401737:	e8 54 56 00 00       	callq  406d90 <__cocheck__reportError>
  40173c:	48 8b 85 50 ff ff ff 	mov    -0xb0(%rbp),%rax
  401743:	8a 00                	mov    (%rax),%al
  401745:	0f b6 c0             	movzbl %al,%eax
  401748:	89 85 3c ff ff ff    	mov    %eax,-0xc4(%rbp)
  40174e:	83 e0 1f             	and    $0x1f,%eax
  401751:	83 f8 01             	cmp    $0x1,%eax
  401754:	0f 85 42 00 00 00    	jne    40179c <CWE758_Undefined_Behavior__int_pointer_alloca_use_01_bad+0x34c>
  40175a:	8b 8d 3c ff ff ff    	mov    -0xc4(%rbp),%ecx
  401760:	48 8b 85 48 ff ff ff 	mov    -0xb8(%rbp),%rax
  401767:	48 83 c0 07          	add    $0x7,%rax
  40176b:	48 83 e0 07          	and    $0x7,%rax
  40176f:	48 83 c0 01          	add    $0x1,%rax
  401773:	c1 e9 05             	shr    $0x5,%ecx
  401776:	89 c9                	mov    %ecx,%ecx
  401778:	48 01 c8             	add    %rcx,%rax
  40177b:	48 83 f8 07          	cmp    $0x7,%rax
  40177f:	0f 86 17 00 00 00    	jbe    40179c <CWE758_Undefined_Behavior__int_pointer_alloca_use_01_bad+0x34c>
  401785:	48 8b 95 68 ff ff ff 	mov    -0x98(%rbp),%rdx
  40178c:	48 8b b5 48 ff ff ff 	mov    -0xb8(%rbp),%rsi
  401793:	48 8b 7d d0          	mov    -0x30(%rbp),%rdi
  401797:	e8 f4 55 00 00       	callq  406d90 <__cocheck__reportError>
  40179c:	8a 85 7f ff ff ff    	mov    -0x81(%rbp),%al
  4017a2:	48 8b 95 70 ff ff ff 	mov    -0x90(%rbp),%rdx
  4017a9:	48 8b 75 d0          	mov    -0x30(%rbp),%rsi
  4017ad:	48 8b 8d 68 ff ff ff 	mov    -0x98(%rbp),%rcx
  4017b4:	0f b6 3a             	movzbl (%rdx),%edi
  4017b7:	89 bd 38 ff ff ff    	mov    %edi,-0xc8(%rbp)
  4017bd:	48 01 f1             	add    %rsi,%rcx
  4017c0:	48 39 d1             	cmp    %rdx,%rcx
  4017c3:	0f 96 c1             	setbe  %cl
  4017c6:	20 c8                	and    %cl,%al
  4017c8:	a8 01                	test   $0x1,%al
  4017ca:	0f 85 05 00 00 00    	jne    4017d5 <CWE758_Undefined_Behavior__int_pointer_alloca_use_01_bad+0x385>
  4017d0:	e9 91 01 00 00       	jmpq   401966 <CWE758_Undefined_Behavior__int_pointer_alloca_use_01_bad+0x516>
  4017d5:	8a 45 97             	mov    -0x69(%rbp),%al
  4017d8:	8a 4d 96             	mov    -0x6a(%rbp),%cl
  4017db:	48 8b 95 70 ff ff ff 	mov    -0x90(%rbp),%rdx
  4017e2:	48 8b 7d d0          	mov    -0x30(%rbp),%rdi
  4017e6:	48 89 d6             	mov    %rdx,%rsi
  4017e9:	48 29 fe             	sub    %rdi,%rsi
  4017ec:	48 89 b5 18 ff ff ff 	mov    %rsi,-0xe8(%rbp)
  4017f3:	48 83 c2 ff          	add    $0xffffffffffffffff,%rdx
  4017f7:	48 c1 ea 03          	shr    $0x3,%rdx
  4017fb:	48 89 d6             	mov    %rdx,%rsi
  4017fe:	48 81 c6 00 80 ff 7f 	add    $0x7fff8000,%rsi
  401805:	48 89 b5 20 ff ff ff 	mov    %rsi,-0xe0(%rbp)
  40180c:	48 81 c2 01 80 ff 7f 	add    $0x7fff8001,%rdx
  401813:	48 89 95 28 ff ff ff 	mov    %rdx,-0xd8(%rbp)
  40181a:	80 c1 ff             	add    $0xff,%cl
  40181d:	88 8d 37 ff ff ff    	mov    %cl,-0xc9(%rbp)
  401823:	a8 01                	test   $0x1,%al
  401825:	0f 85 05 00 00 00    	jne    401830 <CWE758_Undefined_Behavior__int_pointer_alloca_use_01_bad+0x3e0>
  40182b:	e9 17 00 00 00       	jmpq   401847 <CWE758_Undefined_Behavior__int_pointer_alloca_use_01_bad+0x3f7>
  401830:	48 8b 95 68 ff ff ff 	mov    -0x98(%rbp),%rdx
  401837:	48 8b b5 18 ff ff ff 	mov    -0xe8(%rbp),%rsi
  40183e:	48 8b 7d d0          	mov    -0x30(%rbp),%rdi
  401842:	e8 49 55 00 00       	callq  406d90 <__cocheck__reportError>
  401847:	48 8b 85 18 ff ff ff 	mov    -0xe8(%rbp),%rax
  40184e:	48 83 f8 09          	cmp    $0x9,%rax
  401852:	0f 83 37 00 00 00    	jae    40188f <CWE758_Undefined_Behavior__int_pointer_alloca_use_01_bad+0x43f>
  401858:	48 8b 85 18 ff ff ff 	mov    -0xe8(%rbp),%rax
  40185f:	8a 8d 37 ff ff ff    	mov    -0xc9(%rbp),%cl
  401865:	c0 e9 05             	shr    $0x5,%cl
  401868:	0f b6 c9             	movzbl %cl,%ecx
  40186b:	48 01 c8             	add    %rcx,%rax
  40186e:	48 83 f8 07          	cmp    $0x7,%rax
  401872:	0f 86 ee 00 00 00    	jbe    401966 <CWE758_Undefined_Behavior__int_pointer_alloca_use_01_bad+0x516>
  401878:	48 8b 95 68 ff ff ff 	mov    -0x98(%rbp),%rdx
  40187f:	48 8b b5 18 ff ff ff 	mov    -0xe8(%rbp),%rsi
  401886:	48 8b 7d d0          	mov    -0x30(%rbp),%rdi
  40188a:	e8 01 55 00 00       	callq  406d90 <__cocheck__reportError>
  40188f:	48 8b 45 98          	mov    -0x68(%rbp),%rax
  401893:	8a 8d 37 ff ff ff    	mov    -0xc9(%rbp),%cl
  401899:	0f b6 c9             	movzbl %cl,%ecx
  40189c:	89 8d 10 ff ff ff    	mov    %ecx,-0xf0(%rbp)
  4018a2:	ba 01 00 00 00       	mov    $0x1,%edx
  4018a7:	d3 e2                	shl    %cl,%edx
  4018a9:	48 8b 8d 28 ff ff ff 	mov    -0xd8(%rbp),%rcx
  4018b0:	89 95 14 ff ff ff    	mov    %edx,-0xec(%rbp)
  4018b6:	c1 e2 01             	shl    $0x1,%edx
  4018b9:	48 63 d2             	movslq %edx,%rdx
  4018bc:	48 01 d0             	add    %rdx,%rax
  4018bf:	48 39 c8             	cmp    %rcx,%rax
  4018c2:	0f 86 27 00 00 00    	jbe    4018ef <CWE758_Undefined_Behavior__int_pointer_alloca_use_01_bad+0x49f>
  4018c8:	8b 8d 10 ff ff ff    	mov    -0xf0(%rbp),%ecx
  4018ce:	48 8b 85 28 ff ff ff 	mov    -0xd8(%rbp),%rax
  4018d5:	8b 95 14 ff ff ff    	mov    -0xec(%rbp),%edx
  4018db:	48 63 d2             	movslq %edx,%rdx
  4018de:	48 29 d0             	sub    %rdx,%rax
  4018e1:	0f b6 00             	movzbl (%rax),%eax
  4018e4:	83 c0 ff             	add    $0xffffffff,%eax
  4018e7:	39 c8                	cmp    %ecx,%eax
  4018e9:	0f 84 17 00 00 00    	je     401906 <CWE758_Undefined_Behavior__int_pointer_alloca_use_01_bad+0x4b6>
  4018ef:	48 8b 95 68 ff ff ff 	mov    -0x98(%rbp),%rdx
  4018f6:	48 8b b5 18 ff ff ff 	mov    -0xe8(%rbp),%rsi
  4018fd:	48 8b 7d d0          	mov    -0x30(%rbp),%rdi
  401901:	e8 8a 54 00 00       	callq  406d90 <__cocheck__reportError>
  401906:	48 8b 85 20 ff ff ff 	mov    -0xe0(%rbp),%rax
  40190d:	8a 00                	mov    (%rax),%al
  40190f:	0f b6 c0             	movzbl %al,%eax
  401912:	89 85 0c ff ff ff    	mov    %eax,-0xf4(%rbp)
  401918:	83 e0 1f             	and    $0x1f,%eax
  40191b:	83 f8 01             	cmp    $0x1,%eax
  40191e:	0f 85 42 00 00 00    	jne    401966 <CWE758_Undefined_Behavior__int_pointer_alloca_use_01_bad+0x516>
  401924:	8b 8d 0c ff ff ff    	mov    -0xf4(%rbp),%ecx
  40192a:	48 8b 85 18 ff ff ff 	mov    -0xe8(%rbp),%rax
  401931:	48 83 c0 07          	add    $0x7,%rax
  401935:	48 83 e0 07          	and    $0x7,%rax
  401939:	48 83 c0 01          	add    $0x1,%rax
  40193d:	c1 e9 05             	shr    $0x5,%ecx
  401940:	89 c9                	mov    %ecx,%ecx
  401942:	48 01 c8             	add    %rcx,%rax
  401945:	48 83 f8 07          	cmp    $0x7,%rax
  401949:	0f 86 17 00 00 00    	jbe    401966 <CWE758_Undefined_Behavior__int_pointer_alloca_use_01_bad+0x516>
  40194f:	48 8b 95 68 ff ff ff 	mov    -0x98(%rbp),%rdx
  401956:	48 8b b5 18 ff ff ff 	mov    -0xe8(%rbp),%rsi
  40195d:	48 8b 7d d0          	mov    -0x30(%rbp),%rdi
  401961:	e8 2a 54 00 00       	callq  406d90 <__cocheck__reportError>
  401966:	8b 95 38 ff ff ff    	mov    -0xc8(%rbp),%edx
  40196c:	48 8b b5 70 ff ff ff 	mov    -0x90(%rbp),%rsi
  401973:	48 bf 58 49 41 00 00 	movabs $0x414958,%rdi
  40197a:	00 00 00 
  40197d:	b0 00                	mov    $0x0,%al
  40197f:	e8 dc f6 ff ff       	callq  401060 <printf@plt>
  401984:	48 8b 45 88          	mov    -0x78(%rbp),%rax
  401988:	48 83 c0 01          	add    $0x1,%rax
  40198c:	48 89 85 00 ff ff ff 	mov    %rax,-0x100(%rbp)
  401993:	48 83 f8 08          	cmp    $0x8,%rax
  401997:	0f 84 19 00 00 00    	je     4019b6 <CWE758_Undefined_Behavior__int_pointer_alloca_use_01_bad+0x566>
  40199d:	48 8b 85 00 ff ff ff 	mov    -0x100(%rbp),%rax
  4019a4:	48 8b 4d 98          	mov    -0x68(%rbp),%rcx
  4019a8:	8a 09                	mov    (%rcx),%cl
  4019aa:	88 4d bf             	mov    %cl,-0x41(%rbp)
  4019ad:	48 89 45 c0          	mov    %rax,-0x40(%rbp)
  4019b1:	e9 54 fb ff ff       	jmpq   40150a <CWE758_Undefined_Behavior__int_pointer_alloca_use_01_bad+0xba>
  4019b6:	bf 0a 00 00 00       	mov    $0xa,%edi
  4019bb:	e8 80 f8 ff ff       	callq  401240 <putchar@plt>
  4019c0:	48 8b 55 a0          	mov    -0x60(%rbp),%rdx
  4019c4:	48 bf 68 49 41 00 00 	movabs $0x414968,%rdi
  4019cb:	00 00 00 
  4019ce:	48 8d 75 f0          	lea    -0x10(%rbp),%rsi
  4019d2:	b0 00                	mov    $0x0,%al
  4019d4:	e8 87 f6 ff ff       	callq  401060 <printf@plt>
  4019d9:	48 8b 45 a0          	mov    -0x60(%rbp),%rax
  4019dd:	8b 38                	mov    (%rax),%edi
  4019df:	e8 4c 01 00 00       	callq  401b30 <printIntLine>
  4019e4:	48 81 c4 00 01 00 00 	add    $0x100,%rsp
  4019eb:	5d                   	pop    %rbp
  4019ec:	c3                   	retq   
  4019ed:	0f 1f 00             	nopl   (%rax)

00000000004019f0 <main>:
  4019f0:	55                   	push   %rbp
  4019f1:	48 89 e5             	mov    %rsp,%rbp
  4019f4:	31 c0                	xor    %eax,%eax
  4019f6:	89 c7                	mov    %eax,%edi
  4019f8:	e8 53 f7 ff ff       	callq  401150 <time@plt>
  4019fd:	89 c7                	mov    %eax,%edi
  4019ff:	e8 8c f7 ff ff       	callq  401190 <srand@plt>
  401a04:	48 bf 70 49 41 00 00 	movabs $0x414970,%rdi
  401a0b:	00 00 00 
  401a0e:	e8 ad 00 00 00       	callq  401ac0 <printLine>
  401a13:	e8 38 fa ff ff       	callq  401450 <CWE758_Undefined_Behavior__int_pointer_alloca_use_01_bad>
  401a18:	48 bf 88 49 41 00 00 	movabs $0x414988,%rdi
  401a1f:	00 00 00 
  401a22:	e8 99 00 00 00       	callq  401ac0 <printLine>
  401a27:	31 c0                	xor    %eax,%eax
  401a29:	5d                   	pop    %rbp
  401a2a:	c3                   	retq   
  401a2b:	0f 1f 44 00 00       	nopl   0x0(%rax,%rax,1)

0000000000401a30 <asan.module_ctor>:
  401a30:	50                   	push   %rax
  401a31:	e8 9a ad 00 00       	callq  40c7d0 <__cocheck__globalInit>
  401a36:	bf 58 49 41 00       	mov    $0x414958,%edi
  401a3b:	be 0a 00 00 00       	mov    $0xa,%esi
  401a40:	e8 9b ad 00 00       	callq  40c7e0 <__cocheck__globalRegister>
  401a45:	bf 80 49 41 00       	mov    $0x414980,%edi
  401a4a:	be 01 00 00 00       	mov    $0x1,%esi
  401a4f:	e8 8c ad 00 00       	callq  40c7e0 <__cocheck__globalRegister>
  401a54:	bf 68 49 41 00       	mov    $0x414968,%edi
  401a59:	be 07 00 00 00       	mov    $0x7,%esi
  401a5e:	e8 7d ad 00 00       	callq  40c7e0 <__cocheck__globalRegister>
  401a63:	bf 70 49 41 00       	mov    $0x414970,%edi
  401a68:	be 11 00 00 00       	mov    $0x11,%esi
  401a6d:	e8 6e ad 00 00       	callq  40c7e0 <__cocheck__globalRegister>
  401a72:	bf 88 49 41 00       	mov    $0x414988,%edi
  401a77:	be 0f 00 00 00       	mov    $0xf,%esi
  401a7c:	e8 5f ad 00 00       	callq  40c7e0 <__cocheck__globalRegister>
  401a81:	bf 80 81 61 00       	mov    $0x618180,%edi
  401a86:	be 08 00 00 00       	mov    $0x8,%esi
  401a8b:	48 89 34 24          	mov    %rsi,(%rsp)
  401a8f:	e8 4c ad 00 00       	callq  40c7e0 <__cocheck__globalRegister>
  401a94:	48 8b 34 24          	mov    (%rsp),%rsi
  401a98:	bf 88 81 61 00       	mov    $0x618188,%edi
  401a9d:	e8 3e ad 00 00       	callq  40c7e0 <__cocheck__globalRegister>
  401aa2:	48 8b 34 24          	mov    (%rsp),%rsi
  401aa6:	bf 90 81 61 00       	mov    $0x618190,%edi
  401aab:	e8 30 ad 00 00       	callq  40c7e0 <__cocheck__globalRegister>
  401ab0:	bf 98 81 61 00       	mov    $0x618198,%edi
  401ab5:	be 08 00 00 00       	mov    $0x8,%esi
  401aba:	58                   	pop    %rax
  401abb:	e9 20 ad 00 00       	jmpq   40c7e0 <__cocheck__globalRegister>

0000000000401ac0 <printLine>:
  401ac0:	55                   	push   %rbp
  401ac1:	48 89 e5             	mov    %rsp,%rbp
  401ac4:	48 83 ec 10          	sub    $0x10,%rsp
  401ac8:	48 89 7d f8          	mov    %rdi,-0x8(%rbp)
  401acc:	48 83 ff 00          	cmp    $0x0,%rdi
  401ad0:	0f 84 09 00 00 00    	je     401adf <printLine+0x1f>
  401ad6:	48 8b 7d f8          	mov    -0x8(%rbp),%rdi
  401ada:	e8 c1 f7 ff ff       	callq  4012a0 <puts@plt>
  401adf:	48 83 c4 10          	add    $0x10,%rsp
  401ae3:	5d                   	pop    %rbp
  401ae4:	c3                   	retq   
  401ae5:	66 2e 0f 1f 84 00 00 	nopw   %cs:0x0(%rax,%rax,1)
  401aec:	00 00 00 
  401aef:	90                   	nop

0000000000401af0 <printWLine>:
  401af0:	55                   	push   %rbp
  401af1:	48 89 e5             	mov    %rsp,%rbp
  401af4:	48 83 ec 10          	sub    $0x10,%rsp
  401af8:	48 89 7d f8          	mov    %rdi,-0x8(%rbp)
  401afc:	48 83 ff 00          	cmp    $0x0,%rdi
  401b00:	0f 84 15 00 00 00    	je     401b1b <printWLine+0x2b>
  401b06:	48 8b 75 f8          	mov    -0x8(%rbp),%rsi
  401b0a:	48 bf b8 4a 41 00 00 	movabs $0x414ab8,%rdi
  401b11:	00 00 00 
  401b14:	b0 00                	mov    $0x0,%al
  401b16:	e8 45 f7 ff ff       	callq  401260 <wprintf@plt>
  401b1b:	48 83 c4 10          	add    $0x10,%rsp
  401b1f:	5d                   	pop    %rbp
  401b20:	c3                   	retq   
  401b21:	66 2e 0f 1f 84 00 00 	nopw   %cs:0x0(%rax,%rax,1)
  401b28:	00 00 00 
  401b2b:	0f 1f 44 00 00       	nopl   0x0(%rax,%rax,1)

0000000000401b30 <printIntLine>:
  401b30:	55                   	push   %rbp
  401b31:	48 89 e5             	mov    %rsp,%rbp
  401b34:	89 fe                	mov    %edi,%esi
  401b36:	bf 38 4a 41 00       	mov    $0x414a38,%edi
  401b3b:	31 c0                	xor    %eax,%eax
  401b3d:	5d                   	pop    %rbp
  401b3e:	e9 1d f5 ff ff       	jmpq   401060 <printf@plt>
  401b43:	66 2e 0f 1f 84 00 00 	nopw   %cs:0x0(%rax,%rax,1)
  401b4a:	00 00 00 
  401b4d:	0f 1f 00             	nopl   (%rax)

0000000000401b50 <printShortLine>:
  401b50:	55                   	push   %rbp
  401b51:	48 89 e5             	mov    %rsp,%rbp
  401b54:	66 89 f8             	mov    %di,%ax
  401b57:	0f bf f0             	movswl %ax,%esi
  401b5a:	bf 40 4a 41 00       	mov    $0x414a40,%edi
  401b5f:	31 c0                	xor    %eax,%eax
  401b61:	5d                   	pop    %rbp
  401b62:	e9 f9 f4 ff ff       	jmpq   401060 <printf@plt>
  401b67:	66 0f 1f 84 00 00 00 	nopw   0x0(%rax,%rax,1)
  401b6e:	00 00 

0000000000401b70 <printFloatLine>:
  401b70:	55                   	push   %rbp
  401b71:	48 89 e5             	mov    %rsp,%rbp
  401b74:	f3 0f 5a c0          	cvtss2sd %xmm0,%xmm0
  401b78:	bf 48 4a 41 00       	mov    $0x414a48,%edi
  401b7d:	b0 01                	mov    $0x1,%al
  401b7f:	5d                   	pop    %rbp
  401b80:	e9 db f4 ff ff       	jmpq   401060 <printf@plt>
  401b85:	66 2e 0f 1f 84 00 00 	nopw   %cs:0x0(%rax,%rax,1)
  401b8c:	00 00 00 
  401b8f:	90                   	nop

0000000000401b90 <printLongLine>:
  401b90:	55                   	push   %rbp
  401b91:	48 89 e5             	mov    %rsp,%rbp
  401b94:	48 89 fe             	mov    %rdi,%rsi
  401b97:	bf 50 4a 41 00       	mov    $0x414a50,%edi
  401b9c:	31 c0                	xor    %eax,%eax
  401b9e:	5d                   	pop    %rbp
  401b9f:	e9 bc f4 ff ff       	jmpq   401060 <printf@plt>
  401ba4:	66 2e 0f 1f 84 00 00 	nopw   %cs:0x0(%rax,%rax,1)
  401bab:	00 00 00 
  401bae:	66 90                	xchg   %ax,%ax

0000000000401bb0 <printLongLongLine>:
  401bb0:	55                   	push   %rbp
  401bb1:	48 89 e5             	mov    %rsp,%rbp
  401bb4:	48 89 fe             	mov    %rdi,%rsi
  401bb7:	bf 50 4a 41 00       	mov    $0x414a50,%edi
  401bbc:	31 c0                	xor    %eax,%eax
  401bbe:	5d                   	pop    %rbp
  401bbf:	e9 9c f4 ff ff       	jmpq   401060 <printf@plt>
  401bc4:	66 2e 0f 1f 84 00 00 	nopw   %cs:0x0(%rax,%rax,1)
  401bcb:	00 00 00 
  401bce:	66 90                	xchg   %ax,%ax

0000000000401bd0 <printSizeTLine>:
  401bd0:	55                   	push   %rbp
  401bd1:	48 89 e5             	mov    %rsp,%rbp
  401bd4:	48 89 fe             	mov    %rdi,%rsi
  401bd7:	bf 58 4a 41 00       	mov    $0x414a58,%edi
  401bdc:	31 c0                	xor    %eax,%eax
  401bde:	5d                   	pop    %rbp
  401bdf:	e9 7c f4 ff ff       	jmpq   401060 <printf@plt>
  401be4:	66 2e 0f 1f 84 00 00 	nopw   %cs:0x0(%rax,%rax,1)
  401beb:	00 00 00 
  401bee:	66 90                	xchg   %ax,%ax

0000000000401bf0 <printHexCharLine>:
  401bf0:	55                   	push   %rbp
  401bf1:	48 89 e5             	mov    %rsp,%rbp
  401bf4:	40 88 f8             	mov    %dil,%al
  401bf7:	0f be f0             	movsbl %al,%esi
  401bfa:	bf 60 4a 41 00       	mov    $0x414a60,%edi
  401bff:	31 c0                	xor    %eax,%eax
  401c01:	5d                   	pop    %rbp
  401c02:	e9 59 f4 ff ff       	jmpq   401060 <printf@plt>
  401c07:	66 0f 1f 84 00 00 00 	nopw   0x0(%rax,%rax,1)
  401c0e:	00 00 

0000000000401c10 <printWcharLine>:
  401c10:	55                   	push   %rbp
  401c11:	48 89 e5             	mov    %rsp,%rbp
  401c14:	48 81 ec 10 01 00 00 	sub    $0x110,%rsp
  401c1b:	89 7d c4             	mov    %edi,-0x3c(%rbp)
  401c1e:	48 8d 4d f8          	lea    -0x8(%rbp),%rcx
  401c22:	48 89 4d c8          	mov    %rcx,-0x38(%rbp)
  401c26:	48 89 ca             	mov    %rcx,%rdx
  401c29:	48 83 c2 08          	add    $0x8,%rdx
  401c2d:	48 89 55 d0          	mov    %rdx,-0x30(%rbp)
  401c31:	48 89 c8             	mov    %rcx,%rax
  401c34:	48 c1 e8 08          	shr    $0x8,%rax
  401c38:	48 89 45 d8          	mov    %rax,-0x28(%rbp)
  401c3c:	48 81 e1 00 ff ff ff 	and    $0xffffffffffffff00,%rcx
  401c43:	48 89 4d e0          	mov    %rcx,-0x20(%rbp)
  401c47:	48 89 d1             	mov    %rdx,%rcx
  401c4a:	48 c1 e9 08          	shr    $0x8,%rcx
  401c4e:	48 89 4d e8          	mov    %rcx,-0x18(%rbp)
  401c52:	48 81 e2 00 ff ff ff 	and    $0xffffffffffffff00,%rdx
  401c59:	48 89 55 f0          	mov    %rdx,-0x10(%rbp)
  401c5d:	48 39 c8             	cmp    %rcx,%rax
  401c60:	0f 84 a9 00 00 00    	je     401d0f <printWcharLine+0xff>
  401c66:	48 8b 45 d8          	mov    -0x28(%rbp),%rax
  401c6a:	48 8b 4d e0          	mov    -0x20(%rbp),%rcx
  401c6e:	48 8b 55 c8          	mov    -0x38(%rbp),%rdx
  401c72:	48 39 d1             	cmp    %rdx,%rcx
  401c75:	0f 94 c1             	sete   %cl
  401c78:	88 4d af             	mov    %cl,-0x51(%rbp)
  401c7b:	f6 c1 01             	test   $0x1,%cl
  401c7e:	48 89 c1             	mov    %rax,%rcx
  401c81:	48 89 4d b0          	mov    %rcx,-0x50(%rbp)
  401c85:	48 89 45 b8          	mov    %rax,-0x48(%rbp)
  401c89:	0f 85 05 00 00 00    	jne    401c94 <printWcharLine+0x84>
  401c8f:	e9 d4 00 00 00       	jmpq   401d68 <printWcharLine+0x158>
  401c94:	48 8b 4d b0          	mov    -0x50(%rbp),%rcx
  401c98:	48 89 4d a0          	mov    %rcx,-0x60(%rbp)
  401c9c:	48 8b 04 25 c0 81 61 	mov    0x6181c0,%rax
  401ca3:	00 
  401ca4:	80 3c 08 00          	cmpb   $0x0,(%rax,%rcx,1)
  401ca8:	0f 84 28 00 00 00    	je     401cd6 <printWcharLine+0xc6>
  401cae:	48 8b 7d a0          	mov    -0x60(%rbp),%rdi
  401cb2:	48 c1 e7 05          	shl    $0x5,%rdi
  401cb6:	48 b8 e0 ff ff ff ff 	movabs $0x1fffffffffffffe0,%rax
  401cbd:	ff ff 1f 
  401cc0:	48 21 c7             	and    %rax,%rdi
  401cc3:	48 81 c7 00 80 ff 7f 	add    $0x7fff8000,%rdi
  401cca:	31 f6                	xor    %esi,%esi
  401ccc:	ba 20 00 00 00       	mov    $0x20,%edx
  401cd1:	e8 fa f3 ff ff       	callq  4010d0 <memset@plt>
  401cd6:	48 8b 4d e8          	mov    -0x18(%rbp),%rcx
  401cda:	48 8b 45 a0          	mov    -0x60(%rbp),%rax
  401cde:	48 8b 75 d0          	mov    -0x30(%rbp),%rsi
  401ce2:	48 69 d0 00 ff ff ff 	imul   $0xffffffffffffff00,%rax,%rdx
  401ce9:	48 01 f2             	add    %rsi,%rdx
  401cec:	89 d6                	mov    %edx,%esi
  401cee:	48 8b 14 25 b8 81 61 	mov    0x6181b8,%rdx
  401cf5:	00 
  401cf6:	89 34 82             	mov    %esi,(%rdx,%rax,4)
  401cf9:	48 83 c0 01          	add    $0x1,%rax
  401cfd:	48 39 c8             	cmp    %rcx,%rax
  401d00:	48 89 45 b0          	mov    %rax,-0x50(%rbp)
  401d04:	0f 84 ea 00 00 00    	je     401df4 <printWcharLine+0x1e4>
  401d0a:	e9 85 ff ff ff       	jmpq   401c94 <printWcharLine+0x84>
  401d0f:	48 8b 4d d8          	mov    -0x28(%rbp),%rcx
  401d13:	48 8b 04 25 c8 81 61 	mov    0x6181c8,%rax
  401d1a:	00 
  401d1b:	48 89 c2             	mov    %rax,%rdx
  401d1e:	48 01 ca             	add    %rcx,%rdx
  401d21:	48 89 55 98          	mov    %rdx,-0x68(%rbp)
  401d25:	80 3c 08 00          	cmpb   $0x0,(%rax,%rcx,1)
  401d29:	0f 85 25 00 00 00    	jne    401d54 <printWcharLine+0x144>
  401d2f:	48 8b 7d e0          	mov    -0x20(%rbp),%rdi
  401d33:	48 8b 45 98          	mov    -0x68(%rbp),%rax
  401d37:	c6 00 01             	movb   $0x1,(%rax)
  401d3a:	48 c1 ef 03          	shr    $0x3,%rdi
  401d3e:	48 81 c7 00 80 ff 7f 	add    $0x7fff8000,%rdi
  401d45:	be ff 00 00 00       	mov    $0xff,%esi
  401d4a:	ba 20 00 00 00       	mov    $0x20,%edx
  401d4f:	e8 7c f3 ff ff       	callq  4010d0 <memset@plt>
  401d54:	48 8b 45 c8          	mov    -0x38(%rbp),%rax
  401d58:	48 c1 e8 03          	shr    $0x3,%rax
  401d5c:	c6 80 00 80 ff 7f 01 	movb   $0x1,0x7fff8000(%rax)
  401d63:	e9 88 05 00 00       	jmpq   4022f0 <printWcharLine+0x6e0>
  401d68:	48 8b 55 d8          	mov    -0x28(%rbp),%rdx
  401d6c:	48 8b 4d b8          	mov    -0x48(%rbp),%rcx
  401d70:	48 89 4d 90          	mov    %rcx,-0x70(%rbp)
  401d74:	48 8b 04 25 c0 81 61 	mov    0x6181c0,%rax
  401d7b:	00 
  401d7c:	80 3c 08 00          	cmpb   $0x0,(%rax,%rcx,1)
  401d80:	0f 95 c0             	setne  %al
  401d83:	48 39 d1             	cmp    %rdx,%rcx
  401d86:	0f 95 c1             	setne  %cl
  401d89:	20 c8                	and    %cl,%al
  401d8b:	a8 01                	test   $0x1,%al
  401d8d:	0f 85 05 00 00 00    	jne    401d98 <printWcharLine+0x188>
  401d93:	e9 28 00 00 00       	jmpq   401dc0 <printWcharLine+0x1b0>
  401d98:	48 8b 7d 90          	mov    -0x70(%rbp),%rdi
  401d9c:	48 c1 e7 05          	shl    $0x5,%rdi
  401da0:	48 b8 e0 ff ff ff ff 	movabs $0x1fffffffffffffe0,%rax
  401da7:	ff ff 1f 
  401daa:	48 21 c7             	and    %rax,%rdi
  401dad:	48 81 c7 00 80 ff 7f 	add    $0x7fff8000,%rdi
  401db4:	31 f6                	xor    %esi,%esi
  401db6:	ba 20 00 00 00       	mov    $0x20,%edx
  401dbb:	e8 10 f3 ff ff       	callq  4010d0 <memset@plt>
  401dc0:	48 8b 4d e8          	mov    -0x18(%rbp),%rcx
  401dc4:	48 8b 45 90          	mov    -0x70(%rbp),%rax
  401dc8:	48 8b 75 d0          	mov    -0x30(%rbp),%rsi
  401dcc:	48 69 d0 00 ff ff ff 	imul   $0xffffffffffffff00,%rax,%rdx
  401dd3:	48 01 f2             	add    %rsi,%rdx
  401dd6:	89 d6                	mov    %edx,%esi
  401dd8:	48 8b 14 25 b8 81 61 	mov    0x6181b8,%rdx
  401ddf:	00 
  401de0:	89 34 82             	mov    %esi,(%rdx,%rax,4)
  401de3:	48 83 c0 01          	add    $0x1,%rax
  401de7:	48 39 c8             	cmp    %rcx,%rax
  401dea:	48 89 45 b8          	mov    %rax,-0x48(%rbp)
  401dee:	0f 85 74 ff ff ff    	jne    401d68 <printWcharLine+0x158>
  401df4:	8a 45 af             	mov    -0x51(%rbp),%al
  401df7:	a8 01                	test   $0x1,%al
  401df9:	0f 85 05 00 00 00    	jne    401e04 <printWcharLine+0x1f4>
  401dff:	e9 16 00 00 00       	jmpq   401e1a <printWcharLine+0x20a>
  401e04:	48 8b 4d d8          	mov    -0x28(%rbp),%rcx
  401e08:	48 8b 04 25 c0 81 61 	mov    0x6181c0,%rax
  401e0f:	00 
  401e10:	80 3c 08 00          	cmpb   $0x0,(%rax,%rcx,1)
  401e14:	0f 84 7a 00 00 00    	je     401e94 <printWcharLine+0x284>
  401e1a:	48 8b 4d d8          	mov    -0x28(%rbp),%rcx
  401e1e:	48 8b 55 e0          	mov    -0x20(%rbp),%rdx
  401e22:	48 8b 75 c8          	mov    -0x38(%rbp),%rsi
  401e26:	b8 00 01 00 00       	mov    $0x100,%eax
  401e2b:	48 29 f0             	sub    %rsi,%rax
  401e2e:	48 01 d0             	add    %rdx,%rax
  401e31:	48 89 45 80          	mov    %rax,-0x80(%rbp)
  401e35:	48 8b 04 25 c8 81 61 	mov    0x6181c8,%rax
  401e3c:	00 
  401e3d:	48 89 c2             	mov    %rax,%rdx
  401e40:	48 01 ca             	add    %rcx,%rdx
  401e43:	48 89 55 88          	mov    %rdx,-0x78(%rbp)
  401e47:	80 3c 08 00          	cmpb   $0x0,(%rax,%rcx,1)
  401e4b:	0f 85 25 00 00 00    	jne    401e76 <printWcharLine+0x266>
  401e51:	48 8b 7d e0          	mov    -0x20(%rbp),%rdi
  401e55:	48 8b 45 88          	mov    -0x78(%rbp),%rax
  401e59:	c6 00 01             	movb   $0x1,(%rax)
  401e5c:	48 c1 ef 03          	shr    $0x3,%rdi
  401e60:	48 81 c7 00 80 ff 7f 	add    $0x7fff8000,%rdi
  401e67:	be ff 00 00 00       	mov    $0xff,%esi
  401e6c:	ba 20 00 00 00       	mov    $0x20,%edx
  401e71:	e8 5a f2 ff ff       	callq  4010d0 <memset@plt>
  401e76:	48 8b 55 80          	mov    -0x80(%rbp),%rdx
  401e7a:	48 8b 7d c8          	mov    -0x38(%rbp),%rdi
  401e7e:	48 c1 ef 03          	shr    $0x3,%rdi
  401e82:	48 81 c7 00 80 ff 7f 	add    $0x7fff8000,%rdi
  401e89:	48 c1 ea 03          	shr    $0x3,%rdx
  401e8d:	31 f6                	xor    %esi,%esi
  401e8f:	e8 3c f2 ff ff       	callq  4010d0 <memset@plt>
  401e94:	48 8b 45 d0          	mov    -0x30(%rbp),%rax
  401e98:	48 8b 4d f0          	mov    -0x10(%rbp),%rcx
  401e9c:	48 39 c8             	cmp    %rcx,%rax
  401e9f:	0f 84 4b 04 00 00    	je     4022f0 <printWcharLine+0x6e0>
  401ea5:	48 8b 4d e8          	mov    -0x18(%rbp),%rcx
  401ea9:	48 8b 45 d0          	mov    -0x30(%rbp),%rax
  401ead:	48 25 f8 00 00 00    	and    $0xf8,%rax
  401eb3:	48 89 85 70 ff ff ff 	mov    %rax,-0x90(%rbp)
  401eba:	48 8b 04 25 c8 81 61 	mov    0x6181c8,%rax
  401ec1:	00 
  401ec2:	48 89 c2             	mov    %rax,%rdx
  401ec5:	48 01 ca             	add    %rcx,%rdx
  401ec8:	48 89 95 78 ff ff ff 	mov    %rdx,-0x88(%rbp)
  401ecf:	80 3c 08 00          	cmpb   $0x0,(%rax,%rcx,1)
  401ed3:	0f 84 1a 00 00 00    	je     401ef3 <printWcharLine+0x2e3>
  401ed9:	48 8b 45 f0          	mov    -0x10(%rbp),%rax
  401edd:	48 c1 e8 03          	shr    $0x3,%rax
  401ee1:	48 05 00 80 ff 7f    	add    $0x7fff8000,%rax
  401ee7:	48 89 85 68 ff ff ff 	mov    %rax,-0x98(%rbp)
  401eee:	e9 3d 00 00 00       	jmpq   401f30 <printWcharLine+0x320>
  401ef3:	48 8b 7d f0          	mov    -0x10(%rbp),%rdi
  401ef7:	48 8b 85 78 ff ff ff 	mov    -0x88(%rbp),%rax
  401efe:	c6 00 01             	movb   $0x1,(%rax)
  401f01:	48 c1 ef 03          	shr    $0x3,%rdi
  401f05:	48 81 c7 00 80 ff 7f 	add    $0x7fff8000,%rdi
  401f0c:	48 89 bd 60 ff ff ff 	mov    %rdi,-0xa0(%rbp)
  401f13:	be ff 00 00 00       	mov    $0xff,%esi
  401f18:	ba 20 00 00 00       	mov    $0x20,%edx
  401f1d:	e8 ae f1 ff ff       	callq  4010d0 <memset@plt>
  401f22:	48 8b 85 60 ff ff ff 	mov    -0xa0(%rbp),%rax
  401f29:	48 89 85 68 ff ff ff 	mov    %rax,-0x98(%rbp)
  401f30:	48 8b 85 70 ff ff ff 	mov    -0x90(%rbp),%rax
  401f37:	48 8b 4d c8          	mov    -0x38(%rbp),%rcx
  401f3b:	48 8b 95 68 ff ff ff 	mov    -0x98(%rbp),%rdx
  401f42:	48 89 95 40 ff ff ff 	mov    %rdx,-0xc0(%rbp)
  401f49:	48 c1 e9 03          	shr    $0x3,%rcx
  401f4d:	48 89 8d 48 ff ff ff 	mov    %rcx,-0xb8(%rbp)
  401f54:	48 89 ca             	mov    %rcx,%rdx
  401f57:	48 81 c2 00 80 ff 7f 	add    $0x7fff8000,%rdx
  401f5e:	48 89 95 50 ff ff ff 	mov    %rdx,-0xb0(%rbp)
  401f65:	48 81 c1 01 80 ff 7f 	add    $0x7fff8001,%rcx
  401f6c:	48 89 8d 58 ff ff ff 	mov    %rcx,-0xa8(%rbp)
  401f73:	48 3d 81 00 00 00    	cmp    $0x81,%rax
  401f79:	0f 83 7c 02 00 00    	jae    4021fb <printWcharLine+0x5eb>
  401f7f:	48 8b 85 70 ff ff ff 	mov    -0x90(%rbp),%rax
  401f86:	48 c1 e8 03          	shr    $0x3,%rax
  401f8a:	48 83 c0 ff          	add    $0xffffffffffffffff,%rax
  401f8e:	48 89 85 38 ff ff ff 	mov    %rax,-0xc8(%rbp)
  401f95:	48 83 e8 0f          	sub    $0xf,%rax
  401f99:	0f 87 51 03 00 00    	ja     4022f0 <printWcharLine+0x6e0>
  401f9f:	48 8b 85 38 ff ff ff 	mov    -0xc8(%rbp),%rax
  401fa6:	48 8b 04 c5 98 49 41 	mov    0x414998(,%rax,8),%rax
  401fad:	00 
  401fae:	ff e0                	jmpq   *%rax
  401fb0:	48 8b 85 50 ff ff ff 	mov    -0xb0(%rbp),%rax
  401fb7:	c6 00 01             	movb   $0x1,(%rax)
  401fba:	e9 31 03 00 00       	jmpq   4022f0 <printWcharLine+0x6e0>
  401fbf:	48 8b 85 48 ff ff ff 	mov    -0xb8(%rbp),%rax
  401fc6:	66 c7 80 ff 7f ff 7f 	movw   $0x102,0x7fff7fff(%rax)
  401fcd:	02 01 
  401fcf:	e9 1c 03 00 00       	jmpq   4022f0 <printWcharLine+0x6e0>
  401fd4:	48 8b 85 48 ff ff ff 	mov    -0xb8(%rbp),%rax
  401fdb:	48 8b 8d 50 ff ff ff 	mov    -0xb0(%rbp),%rcx
  401fe2:	c6 01 01             	movb   $0x1,(%rcx)
  401fe5:	66 c7 80 fe 7f ff 7f 	movw   $0x202,0x7fff7ffe(%rax)
  401fec:	02 02 
  401fee:	e9 fd 02 00 00       	jmpq   4022f0 <printWcharLine+0x6e0>
  401ff3:	48 8b 85 48 ff ff ff 	mov    -0xb8(%rbp),%rax
  401ffa:	c7 80 fd 7f ff 7f 03 	movl   $0x1020203,0x7fff7ffd(%rax)
  402001:	02 02 01 
  402004:	e9 e7 02 00 00       	jmpq   4022f0 <printWcharLine+0x6e0>
  402009:	48 8b 85 48 ff ff ff 	mov    -0xb8(%rbp),%rax
  402010:	48 8b 8d 50 ff ff ff 	mov    -0xb0(%rbp),%rcx
  402017:	c6 01 01             	movb   $0x1,(%rcx)
  40201a:	c7 80 fc 7f ff 7f 03 	movl   $0x2020303,0x7fff7ffc(%rax)
  402021:	03 02 02 
  402024:	e9 c7 02 00 00       	jmpq   4022f0 <printWcharLine+0x6e0>
  402029:	48 8b 85 48 ff ff ff 	mov    -0xb8(%rbp),%rax
  402030:	66 c7 80 ff 7f ff 7f 	movw   $0x102,0x7fff7fff(%rax)
  402037:	02 01 
  402039:	c7 80 fb 7f ff 7f 03 	movl   $0x2030303,0x7fff7ffb(%rax)
  402040:	03 03 02 
  402043:	e9 a8 02 00 00       	jmpq   4022f0 <printWcharLine+0x6e0>
  402048:	48 8b 85 48 ff ff ff 	mov    -0xb8(%rbp),%rax
  40204f:	48 8b 8d 50 ff ff ff 	mov    -0xb0(%rbp),%rcx
  402056:	c6 01 01             	movb   $0x1,(%rcx)
  402059:	66 c7 80 fe 7f ff 7f 	movw   $0x202,0x7fff7ffe(%rax)
  402060:	02 02 
  402062:	c7 80 fa 7f ff 7f 03 	movl   $0x3030303,0x7fff7ffa(%rax)
  402069:	03 03 03 
  40206c:	e9 7f 02 00 00       	jmpq   4022f0 <printWcharLine+0x6e0>
  402071:	48 8b 85 48 ff ff ff 	mov    -0xb8(%rbp),%rax
  402078:	48 b9 04 03 03 03 03 	movabs $0x102020303030304,%rcx
  40207f:	02 02 01 
  402082:	48 89 88 f9 7f ff 7f 	mov    %rcx,0x7fff7ff9(%rax)
  402089:	e9 62 02 00 00       	jmpq   4022f0 <printWcharLine+0x6e0>
  40208e:	48 8b 85 48 ff ff ff 	mov    -0xb8(%rbp),%rax
  402095:	48 8b 8d 50 ff ff ff 	mov    -0xb0(%rbp),%rcx
  40209c:	c6 01 01             	movb   $0x1,(%rcx)
  40209f:	48 b9 04 04 03 03 03 	movabs $0x202030303030404,%rcx
  4020a6:	03 02 02 
  4020a9:	48 89 88 f8 7f ff 7f 	mov    %rcx,0x7fff7ff8(%rax)
  4020b0:	e9 3b 02 00 00       	jmpq   4022f0 <printWcharLine+0x6e0>
  4020b5:	48 8b 85 48 ff ff ff 	mov    -0xb8(%rbp),%rax
  4020bc:	66 c7 80 ff 7f ff 7f 	movw   $0x102,0x7fff7fff(%rax)
  4020c3:	02 01 
  4020c5:	48 b9 04 04 04 03 03 	movabs $0x203030303040404,%rcx
  4020cc:	03 03 02 
  4020cf:	48 89 88 f7 7f ff 7f 	mov    %rcx,0x7fff7ff7(%rax)
  4020d6:	e9 15 02 00 00       	jmpq   4022f0 <printWcharLine+0x6e0>
  4020db:	48 8b 85 48 ff ff ff 	mov    -0xb8(%rbp),%rax
  4020e2:	48 8b 8d 50 ff ff ff 	mov    -0xb0(%rbp),%rcx
  4020e9:	c6 01 01             	movb   $0x1,(%rcx)
  4020ec:	66 c7 80 fe 7f ff 7f 	movw   $0x202,0x7fff7ffe(%rax)
  4020f3:	02 02 
  4020f5:	48 b9 04 04 04 04 03 	movabs $0x303030304040404,%rcx
  4020fc:	03 03 03 
  4020ff:	48 89 88 f6 7f ff 7f 	mov    %rcx,0x7fff7ff6(%rax)
  402106:	e9 e5 01 00 00       	jmpq   4022f0 <printWcharLine+0x6e0>
  40210b:	48 8b 85 48 ff ff ff 	mov    -0xb8(%rbp),%rax
  402112:	c7 80 fd 7f ff 7f 03 	movl   $0x1020203,0x7fff7ffd(%rax)
  402119:	02 02 01 
  40211c:	48 b9 04 04 04 04 04 	movabs $0x303030404040404,%rcx
  402123:	03 03 03 
  402126:	48 89 88 f5 7f ff 7f 	mov    %rcx,0x7fff7ff5(%rax)
  40212d:	e9 be 01 00 00       	jmpq   4022f0 <printWcharLine+0x6e0>
  402132:	48 8b 85 48 ff ff ff 	mov    -0xb8(%rbp),%rax
  402139:	48 8b 8d 50 ff ff ff 	mov    -0xb0(%rbp),%rcx
  402140:	c6 01 01             	movb   $0x1,(%rcx)
  402143:	c7 80 fc 7f ff 7f 03 	movl   $0x2020303,0x7fff7ffc(%rax)
  40214a:	03 02 02 
  40214d:	48 b9 04 04 04 04 04 	movabs $0x303040404040404,%rcx
  402154:	04 03 03 
  402157:	48 89 88 f4 7f ff 7f 	mov    %rcx,0x7fff7ff4(%rax)
  40215e:	e9 8d 01 00 00       	jmpq   4022f0 <printWcharLine+0x6e0>
  402163:	48 8b 85 48 ff ff ff 	mov    -0xb8(%rbp),%rax
  40216a:	66 c7 80 ff 7f ff 7f 	movw   $0x102,0x7fff7fff(%rax)
  402171:	02 01 
  402173:	c7 80 fb 7f ff 7f 03 	movl   $0x2030303,0x7fff7ffb(%rax)
  40217a:	03 03 02 
  40217d:	48 b9 04 04 04 04 04 	movabs $0x304040404040404,%rcx
  402184:	04 04 03 
  402187:	48 89 88 f3 7f ff 7f 	mov    %rcx,0x7fff7ff3(%rax)
  40218e:	e9 5d 01 00 00       	jmpq   4022f0 <printWcharLine+0x6e0>
  402193:	48 8b 85 48 ff ff ff 	mov    -0xb8(%rbp),%rax
  40219a:	48 8b 8d 50 ff ff ff 	mov    -0xb0(%rbp),%rcx
  4021a1:	c6 01 01             	movb   $0x1,(%rcx)
  4021a4:	66 c7 80 fe 7f ff 7f 	movw   $0x202,0x7fff7ffe(%rax)
  4021ab:	02 02 
  4021ad:	c7 80 fa 7f ff 7f 03 	movl   $0x3030303,0x7fff7ffa(%rax)
  4021b4:	03 03 03 
  4021b7:	48 b9 04 04 04 04 04 	movabs $0x404040404040404,%rcx
  4021be:	04 04 04 
  4021c1:	48 89 88 f2 7f ff 7f 	mov    %rcx,0x7fff7ff2(%rax)
  4021c8:	e9 23 01 00 00       	jmpq   4022f0 <printWcharLine+0x6e0>
  4021cd:	48 8b 85 48 ff ff ff 	mov    -0xb8(%rbp),%rax
  4021d4:	48 b9 04 03 03 03 03 	movabs $0x102020303030304,%rcx
  4021db:	02 02 01 
  4021de:	48 89 88 f9 7f ff 7f 	mov    %rcx,0x7fff7ff9(%rax)
  4021e5:	48 b9 05 04 04 04 04 	movabs $0x404040404040405,%rcx
  4021ec:	04 04 04 
  4021ef:	48 89 88 f1 7f ff 7f 	mov    %rcx,0x7fff7ff1(%rax)
  4021f6:	e9 f5 00 00 00       	jmpq   4022f0 <printWcharLine+0x6e0>
  4021fb:	48 8b 95 40 ff ff ff 	mov    -0xc0(%rbp),%rdx
  402202:	48 8b 85 48 ff ff ff 	mov    -0xb8(%rbp),%rax
  402209:	48 b9 04 03 03 03 03 	movabs $0x102020303030304,%rcx
  402210:	02 02 01 
  402213:	48 89 88 f9 7f ff 7f 	mov    %rcx,0x7fff7ff9(%rax)
  40221a:	48 89 c1             	mov    %rax,%rcx
  40221d:	48 81 c1 f1 7f ff 7f 	add    $0x7fff7ff1,%rcx
  402224:	48 be 05 04 04 04 04 	movabs $0x404040404040405,%rsi
  40222b:	04 04 04 
  40222e:	48 89 b0 f1 7f ff 7f 	mov    %rsi,0x7fff7ff1(%rax)
  402235:	b8 04 00 00 00       	mov    $0x4,%eax
  40223a:	48 39 d1             	cmp    %rdx,%rcx
  40223d:	48 89 8d 28 ff ff ff 	mov    %rcx,-0xd8(%rbp)
  402244:	48 89 85 30 ff ff ff 	mov    %rax,-0xd0(%rbp)
  40224b:	0f 82 9f 00 00 00    	jb     4022f0 <printWcharLine+0x6e0>
  402251:	48 8b 85 30 ff ff ff 	mov    -0xd0(%rbp),%rax
  402258:	48 8b 95 28 ff ff ff 	mov    -0xd8(%rbp),%rdx
  40225f:	48 8b bd 58 ff ff ff 	mov    -0xa8(%rbp),%rdi
  402266:	48 83 c0 01          	add    $0x1,%rax
  40226a:	48 89 85 20 ff ff ff 	mov    %rax,-0xe0(%rbp)
  402271:	89 c1                	mov    %eax,%ecx
  402273:	be 01 00 00 00       	mov    $0x1,%esi
  402278:	d3 e6                	shl    %cl,%esi
  40227a:	48 8b 8d 40 ff ff ff 	mov    -0xc0(%rbp),%rcx
  402281:	48 63 f6             	movslq %esi,%rsi
  402284:	48 29 f7             	sub    %rsi,%rdi
  402287:	48 89 bd 18 ff ff ff 	mov    %rdi,-0xe8(%rbp)
  40228e:	48 83 c7 01          	add    $0x1,%rdi
  402292:	48 89 bd f8 fe ff ff 	mov    %rdi,-0x108(%rbp)
  402299:	48 39 cf             	cmp    %rcx,%rdi
  40229c:	48 0f 42 f9          	cmovb  %rcx,%rdi
  4022a0:	48 89 bd 00 ff ff ff 	mov    %rdi,-0x100(%rbp)
  4022a7:	48 83 c2 01          	add    $0x1,%rdx
  4022ab:	48 89 95 08 ff ff ff 	mov    %rdx,-0xf8(%rbp)
  4022b2:	48 29 fa             	sub    %rdi,%rdx
  4022b5:	48 89 95 10 ff ff ff 	mov    %rdx,-0xf0(%rbp)
  4022bc:	0f b6 f0             	movzbl %al,%esi
  4022bf:	e8 0c ee ff ff       	callq  4010d0 <memset@plt>
  4022c4:	48 8b 95 40 ff ff ff 	mov    -0xc0(%rbp),%rdx
  4022cb:	48 8b 8d 18 ff ff ff 	mov    -0xe8(%rbp),%rcx
  4022d2:	48 8b 85 20 ff ff ff 	mov    -0xe0(%rbp),%rax
  4022d9:	48 39 d1             	cmp    %rdx,%rcx
  4022dc:	48 89 8d 28 ff ff ff 	mov    %rcx,-0xd8(%rbp)
  4022e3:	48 89 85 30 ff ff ff 	mov    %rax,-0xd0(%rbp)
  4022ea:	0f 83 61 ff ff ff    	jae    402251 <printWcharLine+0x641>
  4022f0:	8b 45 c4             	mov    -0x3c(%rbp),%eax
  4022f3:	48 8d 75 f8          	lea    -0x8(%rbp),%rsi
  4022f7:	89 45 f8             	mov    %eax,-0x8(%rbp)
  4022fa:	c7 45 fc 00 00 00 00 	movl   $0x0,-0x4(%rbp)
  402301:	48 bf 68 4a 41 00 00 	movabs $0x414a68,%rdi
  402308:	00 00 00 
  40230b:	b0 00                	mov    $0x0,%al
  40230d:	e8 4e ed ff ff       	callq  401060 <printf@plt>
  402312:	48 81 c4 10 01 00 00 	add    $0x110,%rsp
  402319:	5d                   	pop    %rbp
  40231a:	c3                   	retq   
  40231b:	0f 1f 44 00 00       	nopl   0x0(%rax,%rax,1)

0000000000402320 <printUnsignedLine>:
  402320:	55                   	push   %rbp
  402321:	48 89 e5             	mov    %rsp,%rbp
  402324:	89 fe                	mov    %edi,%esi
  402326:	bf 70 4a 41 00       	mov    $0x414a70,%edi
  40232b:	31 c0                	xor    %eax,%eax
  40232d:	5d                   	pop    %rbp
  40232e:	e9 2d ed ff ff       	jmpq   401060 <printf@plt>
  402333:	66 2e 0f 1f 84 00 00 	nopw   %cs:0x0(%rax,%rax,1)
  40233a:	00 00 00 
  40233d:	0f 1f 00             	nopl   (%rax)

0000000000402340 <printHexUnsignedCharLine>:
  402340:	55                   	push   %rbp
  402341:	48 89 e5             	mov    %rsp,%rbp
  402344:	40 88 f8             	mov    %dil,%al
  402347:	0f b6 f0             	movzbl %al,%esi
  40234a:	bf 60 4a 41 00       	mov    $0x414a60,%edi
  40234f:	31 c0                	xor    %eax,%eax
  402351:	5d                   	pop    %rbp
  402352:	e9 09 ed ff ff       	jmpq   401060 <printf@plt>
  402357:	66 0f 1f 84 00 00 00 	nopw   0x0(%rax,%rax,1)
  40235e:	00 00 

0000000000402360 <printDoubleLine>:
  402360:	55                   	push   %rbp
  402361:	48 89 e5             	mov    %rsp,%rbp
  402364:	bf 78 4a 41 00       	mov    $0x414a78,%edi
  402369:	b0 01                	mov    $0x1,%al
  40236b:	5d                   	pop    %rbp
  40236c:	e9 ef ec ff ff       	jmpq   401060 <printf@plt>
  402371:	66 2e 0f 1f 84 00 00 	nopw   %cs:0x0(%rax,%rax,1)
  402378:	00 00 00 
  40237b:	0f 1f 44 00 00       	nopl   0x0(%rax,%rax,1)

0000000000402380 <printStructLine>:
  402380:	55                   	push   %rbp
  402381:	48 89 e5             	mov    %rsp,%rbp
  402384:	48 83 ec 40          	sub    $0x40,%rsp
  402388:	48 89 7d e0          	mov    %rdi,-0x20(%rbp)
  40238c:	48 89 f8             	mov    %rdi,%rax
  40238f:	48 c1 e8 03          	shr    $0x3,%rax
  402393:	48 89 45 e8          	mov    %rax,-0x18(%rbp)
  402397:	48 89 c1             	mov    %rax,%rcx
  40239a:	48 81 c1 00 80 ff 7f 	add    $0x7fff8000,%rcx
  4023a1:	48 89 4d f0          	mov    %rcx,-0x10(%rbp)
  4023a5:	8a 80 00 80 ff 7f    	mov    0x7fff8000(%rax),%al
  4023ab:	88 45 fb             	mov    %al,-0x5(%rbp)
  4023ae:	8b 0f                	mov    (%rdi),%ecx
  4023b0:	89 4d fc             	mov    %ecx,-0x4(%rbp)
  4023b3:	3c 00                	cmp    $0x0,%al
  4023b5:	0f 85 3e 00 00 00    	jne    4023f9 <printStructLine+0x79>
  4023bb:	48 8b 45 e0          	mov    -0x20(%rbp),%rax
  4023bf:	48 89 c2             	mov    %rax,%rdx
  4023c2:	48 c1 ea 08          	shr    $0x8,%rdx
  4023c6:	48 8b 0c 25 b0 81 61 	mov    0x6181b0,%rcx
  4023cd:	00 
  4023ce:	48 63 14 91          	movslq (%rcx,%rdx,4),%rdx
  4023d2:	48 89 c1             	mov    %rax,%rcx
  4023d5:	48 81 e1 00 ff ff ff 	and    $0xffffffffffffff00,%rcx
  4023dc:	48 01 d1             	add    %rdx,%rcx
  4023df:	48 89 4d d0          	mov    %rcx,-0x30(%rbp)
  4023e3:	48 83 c0 04          	add    $0x4,%rax
  4023e7:	48 39 c1             	cmp    %rax,%rcx
  4023ea:	48 89 45 d8          	mov    %rax,-0x28(%rbp)
  4023ee:	0f 87 e1 00 00 00    	ja     4024d5 <printStructLine+0x155>
  4023f4:	e9 b5 00 00 00       	jmpq   4024ae <printStructLine+0x12e>
  4023f9:	8a 4d fb             	mov    -0x5(%rbp),%cl
  4023fc:	48 8b 75 e0          	mov    -0x20(%rbp),%rsi
  402400:	48 8b 45 f0          	mov    -0x10(%rbp),%rax
  402404:	48 8b 55 e8          	mov    -0x18(%rbp),%rdx
  402408:	80 c1 1f             	add    $0x1f,%cl
  40240b:	80 e1 1f             	and    $0x1f,%cl
  40240e:	0f b6 c9             	movzbl %cl,%ecx
  402411:	bf 01 00 00 00       	mov    $0x1,%edi
  402416:	d3 e7                	shl    %cl,%edi
  402418:	89 f9                	mov    %edi,%ecx
  40241a:	48 63 c9             	movslq %ecx,%rcx
  40241d:	48 81 c2 ff 7f ff 7f 	add    $0x7fff7fff,%rdx
  402424:	48 01 ca             	add    %rcx,%rdx
  402427:	8a 0a                	mov    (%rdx),%cl
  402429:	80 c1 1f             	add    $0x1f,%cl
  40242c:	80 e1 1f             	and    $0x1f,%cl
  40242f:	0f b6 c9             	movzbl %cl,%ecx
  402432:	bf ff ff ff ff       	mov    $0xffffffff,%edi
  402437:	d3 e7                	shl    %cl,%edi
  402439:	89 f9                	mov    %edi,%ecx
  40243b:	83 f1 ff             	xor    $0xffffffff,%ecx
  40243e:	89 c9                	mov    %ecx,%ecx
  402440:	48 01 ca             	add    %rcx,%rdx
  402443:	8a 0a                	mov    (%rdx),%cl
  402445:	80 c1 1f             	add    $0x1f,%cl
  402448:	80 e1 1f             	and    $0x1f,%cl
  40244b:	0f b6 c9             	movzbl %cl,%ecx
  40244e:	bf ff ff ff ff       	mov    $0xffffffff,%edi
  402453:	d3 e7                	shl    %cl,%edi
  402455:	8a 4d fb             	mov    -0x5(%rbp),%cl
  402458:	83 f7 ff             	xor    $0xffffffff,%edi
  40245b:	89 ff                	mov    %edi,%edi
  40245d:	48 01 fa             	add    %rdi,%rdx
  402460:	40 8a 3a             	mov    (%rdx),%dil
  402463:	40 80 c7 ff          	add    $0xff,%dil
  402467:	48 29 c2             	sub    %rax,%rdx
  40246a:	48 c1 e2 03          	shl    $0x3,%rdx
  40246e:	40 c0 ef 05          	shr    $0x5,%dil
  402472:	b0 08                	mov    $0x8,%al
  402474:	40 28 f8             	sub    %dil,%al
  402477:	0f b6 c0             	movzbl %al,%eax
  40247a:	48 01 c2             	add    %rax,%rdx
  40247d:	48 89 55 c8          	mov    %rdx,-0x38(%rbp)
  402481:	48 89 f0             	mov    %rsi,%rax
  402484:	48 83 c0 04          	add    $0x4,%rax
  402488:	48 01 f2             	add    %rsi,%rdx
  40248b:	48 39 c2             	cmp    %rax,%rdx
  40248e:	0f 96 c2             	setbe  %dl
  402491:	80 c1 ff             	add    $0xff,%cl
  402494:	80 f9 00             	cmp    $0x0,%cl
  402497:	0f 9c c1             	setl   %cl
  40249a:	20 d1                	and    %dl,%cl
  40249c:	f6 c1 01             	test   $0x1,%cl
  40249f:	48 89 45 d8          	mov    %rax,-0x28(%rbp)
  4024a3:	0f 85 1a 00 00 00    	jne    4024c3 <printStructLine+0x143>
  4024a9:	e9 27 00 00 00       	jmpq   4024d5 <printStructLine+0x155>
  4024ae:	48 8b 7d e0          	mov    -0x20(%rbp),%rdi
  4024b2:	48 8b 55 d0          	mov    -0x30(%rbp),%rdx
  4024b6:	48 29 fa             	sub    %rdi,%rdx
  4024b9:	be 04 00 00 00       	mov    $0x4,%esi
  4024be:	e8 cd 48 00 00       	callq  406d90 <__cocheck__reportError>
  4024c3:	48 8b 55 c8          	mov    -0x38(%rbp),%rdx
  4024c7:	48 8b 7d e0          	mov    -0x20(%rbp),%rdi
  4024cb:	be 04 00 00 00       	mov    $0x4,%esi
  4024d0:	e8 bb 48 00 00       	callq  406d90 <__cocheck__reportError>
  4024d5:	8b 75 fc             	mov    -0x4(%rbp),%esi
  4024d8:	48 8b 45 d8          	mov    -0x28(%rbp),%rax
  4024dc:	8b 10                	mov    (%rax),%edx
  4024de:	bf 80 4a 41 00       	mov    $0x414a80,%edi
  4024e3:	31 c0                	xor    %eax,%eax
  4024e5:	48 83 c4 40          	add    $0x40,%rsp
  4024e9:	5d                   	pop    %rbp
  4024ea:	e9 71 eb ff ff       	jmpq   401060 <printf@plt>
  4024ef:	90                   	nop

00000000004024f0 <printBytesLine>:
  4024f0:	55                   	push   %rbp
  4024f1:	48 89 e5             	mov    %rsp,%rbp
  4024f4:	48 81 ec 90 00 00 00 	sub    $0x90,%rsp
  4024fb:	48 89 7d f0          	mov    %rdi,-0x10(%rbp)
  4024ff:	48 89 75 f8          	mov    %rsi,-0x8(%rbp)
  402503:	48 83 fe 00          	cmp    $0x0,%rsi
  402507:	0f 84 9d 02 00 00    	je     4027aa <printBytesLine+0x2ba>
  40250d:	48 8b 45 f0          	mov    -0x10(%rbp),%rax
  402511:	48 89 c1             	mov    %rax,%rcx
  402514:	48 c1 e9 03          	shr    $0x3,%rcx
  402518:	48 89 ca             	mov    %rcx,%rdx
  40251b:	48 81 c2 00 80 ff 7f 	add    $0x7fff8000,%rdx
  402522:	48 89 55 c8          	mov    %rdx,-0x38(%rbp)
  402526:	48 81 c1 ff 7f ff 7f 	add    $0x7fff7fff,%rcx
  40252d:	48 89 4d d0          	mov    %rcx,-0x30(%rbp)
  402531:	48 89 c1             	mov    %rax,%rcx
  402534:	48 c1 e9 08          	shr    $0x8,%rcx
  402538:	48 89 4d d8          	mov    %rcx,-0x28(%rbp)
  40253c:	48 25 ff 00 00 00    	and    $0xff,%rax
  402542:	48 89 45 e0          	mov    %rax,-0x20(%rbp)
  402546:	31 c0                	xor    %eax,%eax
  402548:	48 89 45 e8          	mov    %rax,-0x18(%rbp)
  40254c:	48 8b 45 c8          	mov    -0x38(%rbp),%rax
  402550:	48 8b 4d e8          	mov    -0x18(%rbp),%rcx
  402554:	48 89 4d b8          	mov    %rcx,-0x48(%rbp)
  402558:	8a 00                	mov    (%rax),%al
  40255a:	88 45 c6             	mov    %al,-0x3a(%rbp)
  40255d:	3c 00                	cmp    $0x0,%al
  40255f:	0f 94 c0             	sete   %al
  402562:	88 45 c7             	mov    %al,-0x39(%rbp)
  402565:	a8 01                	test   $0x1,%al
  402567:	0f 85 05 00 00 00    	jne    402572 <printBytesLine+0x82>
  40256d:	e9 20 00 00 00       	jmpq   402592 <printBytesLine+0xa2>
  402572:	48 8b 4d e0          	mov    -0x20(%rbp),%rcx
  402576:	48 8b 55 d8          	mov    -0x28(%rbp),%rdx
  40257a:	48 8b 04 25 b0 81 61 	mov    0x6181b0,%rax
  402581:	00 
  402582:	48 63 04 90          	movslq (%rax,%rdx,4),%rax
  402586:	48 29 c8             	sub    %rcx,%rax
  402589:	48 89 45 b0          	mov    %rax,-0x50(%rbp)
  40258d:	e9 76 00 00 00       	jmpq   402608 <printBytesLine+0x118>
  402592:	48 8b 45 d0          	mov    -0x30(%rbp),%rax
  402596:	8a 4d c6             	mov    -0x3a(%rbp),%cl
  402599:	80 c1 1f             	add    $0x1f,%cl
  40259c:	80 e1 1f             	and    $0x1f,%cl
  40259f:	0f b6 c9             	movzbl %cl,%ecx
  4025a2:	ba 01 00 00 00       	mov    $0x1,%edx
  4025a7:	d3 e2                	shl    %cl,%edx
  4025a9:	89 d1                	mov    %edx,%ecx
  4025ab:	48 63 c9             	movslq %ecx,%rcx
  4025ae:	48 01 c8             	add    %rcx,%rax
  4025b1:	8a 08                	mov    (%rax),%cl
  4025b3:	80 c1 1f             	add    $0x1f,%cl
  4025b6:	80 e1 1f             	and    $0x1f,%cl
  4025b9:	0f b6 c9             	movzbl %cl,%ecx
  4025bc:	ba ff ff ff ff       	mov    $0xffffffff,%edx
  4025c1:	d3 e2                	shl    %cl,%edx
  4025c3:	89 d1                	mov    %edx,%ecx
  4025c5:	83 f1 ff             	xor    $0xffffffff,%ecx
  4025c8:	89 c9                	mov    %ecx,%ecx
  4025ca:	48 01 c8             	add    %rcx,%rax
  4025cd:	8a 08                	mov    (%rax),%cl
  4025cf:	80 c1 1f             	add    $0x1f,%cl
  4025d2:	80 e1 1f             	and    $0x1f,%cl
  4025d5:	0f b6 c9             	movzbl %cl,%ecx
  4025d8:	ba ff ff ff ff       	mov    $0xffffffff,%edx
  4025dd:	d3 e2                	shl    %cl,%edx
  4025df:	48 8b 4d c8          	mov    -0x38(%rbp),%rcx
  4025e3:	83 f2 ff             	xor    $0xffffffff,%edx
  4025e6:	89 d2                	mov    %edx,%edx
  4025e8:	48 01 d0             	add    %rdx,%rax
  4025eb:	8a 10                	mov    (%rax),%dl
  4025ed:	80 c2 ff             	add    $0xff,%dl
  4025f0:	48 29 c8             	sub    %rcx,%rax
  4025f3:	48 c1 e0 03          	shl    $0x3,%rax
  4025f7:	c0 ea 05             	shr    $0x5,%dl
  4025fa:	b1 08                	mov    $0x8,%cl
  4025fc:	28 d1                	sub    %dl,%cl
  4025fe:	0f b6 c9             	movzbl %cl,%ecx
  402601:	48 01 c8             	add    %rcx,%rax
  402604:	48 89 45 b0          	mov    %rax,-0x50(%rbp)
  402608:	48 8b 45 b8          	mov    -0x48(%rbp),%rax
  40260c:	48 8b 75 f0          	mov    -0x10(%rbp),%rsi
  402610:	48 8b 4d b0          	mov    -0x50(%rbp),%rcx
  402614:	48 89 4d a0          	mov    %rcx,-0x60(%rbp)
  402618:	48 89 f2             	mov    %rsi,%rdx
  40261b:	48 01 c2             	add    %rax,%rdx
  40261e:	48 89 55 a8          	mov    %rdx,-0x58(%rbp)
  402622:	48 01 f1             	add    %rsi,%rcx
  402625:	48 39 d1             	cmp    %rdx,%rcx
  402628:	0f 96 c1             	setbe  %cl
  40262b:	48 83 f8 00          	cmp    $0x0,%rax
  40262f:	0f 9f c0             	setg   %al
  402632:	20 c8                	and    %cl,%al
  402634:	a8 01                	test   $0x1,%al
  402636:	0f 85 05 00 00 00    	jne    402641 <printBytesLine+0x151>
  40263c:	e9 38 01 00 00       	jmpq   402779 <printBytesLine+0x289>
  402641:	8a 45 c7             	mov    -0x39(%rbp),%al
  402644:	8a 4d c6             	mov    -0x3a(%rbp),%cl
  402647:	48 8b 55 a8          	mov    -0x58(%rbp),%rdx
  40264b:	48 83 c2 ff          	add    $0xffffffffffffffff,%rdx
  40264f:	48 c1 ea 03          	shr    $0x3,%rdx
  402653:	48 89 d6             	mov    %rdx,%rsi
  402656:	48 81 c6 00 80 ff 7f 	add    $0x7fff8000,%rsi
  40265d:	48 89 75 88          	mov    %rsi,-0x78(%rbp)
  402661:	48 81 c2 01 80 ff 7f 	add    $0x7fff8001,%rdx
  402668:	48 89 55 90          	mov    %rdx,-0x70(%rbp)
  40266c:	80 c1 ff             	add    $0xff,%cl
  40266f:	88 4d 9f             	mov    %cl,-0x61(%rbp)
  402672:	a8 01                	test   $0x1,%al
  402674:	0f 85 05 00 00 00    	jne    40267f <printBytesLine+0x18f>
  40267a:	e9 11 00 00 00       	jmpq   402690 <printBytesLine+0x1a0>
  40267f:	48 8b 55 a0          	mov    -0x60(%rbp),%rdx
  402683:	48 8b 75 b8          	mov    -0x48(%rbp),%rsi
  402687:	48 8b 7d f0          	mov    -0x10(%rbp),%rdi
  40268b:	e8 00 47 00 00       	callq  406d90 <__cocheck__reportError>
  402690:	48 8b 45 b8          	mov    -0x48(%rbp),%rax
  402694:	48 83 f8 09          	cmp    $0x9,%rax
  402698:	0f 83 2b 00 00 00    	jae    4026c9 <printBytesLine+0x1d9>
  40269e:	48 8b 45 b8          	mov    -0x48(%rbp),%rax
  4026a2:	8a 4d 9f             	mov    -0x61(%rbp),%cl
  4026a5:	c0 e9 05             	shr    $0x5,%cl
  4026a8:	0f b6 c9             	movzbl %cl,%ecx
  4026ab:	48 01 c8             	add    %rcx,%rax
  4026ae:	48 83 f8 07          	cmp    $0x7,%rax
  4026b2:	0f 86 c1 00 00 00    	jbe    402779 <printBytesLine+0x289>
  4026b8:	48 8b 55 a0          	mov    -0x60(%rbp),%rdx
  4026bc:	48 8b 75 b8          	mov    -0x48(%rbp),%rsi
  4026c0:	48 8b 7d f0          	mov    -0x10(%rbp),%rdi
  4026c4:	e8 c7 46 00 00       	callq  406d90 <__cocheck__reportError>
  4026c9:	48 8b 45 c8          	mov    -0x38(%rbp),%rax
  4026cd:	8a 4d 9f             	mov    -0x61(%rbp),%cl
  4026d0:	0f b6 c9             	movzbl %cl,%ecx
  4026d3:	89 4d 80             	mov    %ecx,-0x80(%rbp)
  4026d6:	ba 01 00 00 00       	mov    $0x1,%edx
  4026db:	d3 e2                	shl    %cl,%edx
  4026dd:	48 8b 4d 90          	mov    -0x70(%rbp),%rcx
  4026e1:	89 55 84             	mov    %edx,-0x7c(%rbp)
  4026e4:	c1 e2 01             	shl    $0x1,%edx
  4026e7:	48 63 d2             	movslq %edx,%rdx
  4026ea:	48 01 d0             	add    %rdx,%rax
  4026ed:	48 39 c8             	cmp    %rcx,%rax
  4026f0:	0f 86 1e 00 00 00    	jbe    402714 <printBytesLine+0x224>
  4026f6:	8b 4d 80             	mov    -0x80(%rbp),%ecx
  4026f9:	48 8b 45 90          	mov    -0x70(%rbp),%rax
  4026fd:	8b 55 84             	mov    -0x7c(%rbp),%edx
  402700:	48 63 d2             	movslq %edx,%rdx
  402703:	48 29 d0             	sub    %rdx,%rax
  402706:	0f b6 00             	movzbl (%rax),%eax
  402709:	83 c0 ff             	add    $0xffffffff,%eax
  40270c:	39 c8                	cmp    %ecx,%eax
  40270e:	0f 84 11 00 00 00    	je     402725 <printBytesLine+0x235>
  402714:	48 8b 55 a0          	mov    -0x60(%rbp),%rdx
  402718:	48 8b 75 b8          	mov    -0x48(%rbp),%rsi
  40271c:	48 8b 7d f0          	mov    -0x10(%rbp),%rdi
  402720:	e8 6b 46 00 00       	callq  406d90 <__cocheck__reportError>
  402725:	48 8b 45 88          	mov    -0x78(%rbp),%rax
  402729:	8a 00                	mov    (%rax),%al
  40272b:	0f b6 c0             	movzbl %al,%eax
  40272e:	89 85 7c ff ff ff    	mov    %eax,-0x84(%rbp)
  402734:	83 e0 1f             	and    $0x1f,%eax
  402737:	83 f8 01             	cmp    $0x1,%eax
  40273a:	0f 85 39 00 00 00    	jne    402779 <printBytesLine+0x289>
  402740:	8b 8d 7c ff ff ff    	mov    -0x84(%rbp),%ecx
  402746:	48 8b 45 b8          	mov    -0x48(%rbp),%rax
  40274a:	48 83 c0 07          	add    $0x7,%rax
  40274e:	48 83 e0 07          	and    $0x7,%rax
  402752:	48 83 c0 01          	add    $0x1,%rax
  402756:	c1 e9 05             	shr    $0x5,%ecx
  402759:	89 c9                	mov    %ecx,%ecx
  40275b:	48 01 c8             	add    %rcx,%rax
  40275e:	48 83 f8 07          	cmp    $0x7,%rax
  402762:	0f 86 11 00 00 00    	jbe    402779 <printBytesLine+0x289>
  402768:	48 8b 55 a0          	mov    -0x60(%rbp),%rdx
  40276c:	48 8b 75 b8          	mov    -0x48(%rbp),%rsi
  402770:	48 8b 7d f0          	mov    -0x10(%rbp),%rdi
  402774:	e8 17 46 00 00       	callq  406d90 <__cocheck__reportError>
  402779:	48 8b 45 a8          	mov    -0x58(%rbp),%rax
  40277d:	0f b6 30             	movzbl (%rax),%esi
  402780:	48 bf 90 4a 41 00 00 	movabs $0x414a90,%rdi
  402787:	00 00 00 
  40278a:	b0 00                	mov    $0x0,%al
  40278c:	e8 cf e8 ff ff       	callq  401060 <printf@plt>
  402791:	48 8b 4d f8          	mov    -0x8(%rbp),%rcx
  402795:	48 8b 45 b8          	mov    -0x48(%rbp),%rax
  402799:	48 83 c0 01          	add    $0x1,%rax
  40279d:	48 39 c8             	cmp    %rcx,%rax
  4027a0:	48 89 45 e8          	mov    %rax,-0x18(%rbp)
  4027a4:	0f 85 a2 fd ff ff    	jne    40254c <printBytesLine+0x5c>
  4027aa:	bf 0a 00 00 00       	mov    $0xa,%edi
  4027af:	48 81 c4 90 00 00 00 	add    $0x90,%rsp
  4027b6:	5d                   	pop    %rbp
  4027b7:	e9 84 ea ff ff       	jmpq   401240 <putchar@plt>
  4027bc:	0f 1f 40 00          	nopl   0x0(%rax)

00000000004027c0 <decodeHexChars>:
  4027c0:	55                   	push   %rbp
  4027c1:	48 89 e5             	mov    %rsp,%rbp
  4027c4:	48 81 ec 40 01 00 00 	sub    $0x140,%rsp
  4027cb:	48 89 7d d0          	mov    %rdi,-0x30(%rbp)
  4027cf:	48 89 75 d8          	mov    %rsi,-0x28(%rbp)
  4027d3:	48 89 55 e0          	mov    %rdx,-0x20(%rbp)
  4027d7:	48 8d 4d f8          	lea    -0x8(%rbp),%rcx
  4027db:	48 89 4d e8          	mov    %rcx,-0x18(%rbp)
  4027df:	48 c1 e9 08          	shr    $0x8,%rcx
  4027e3:	48 8b 04 25 c8 81 61 	mov    0x6181c8,%rax
  4027ea:	00 
  4027eb:	48 89 c2             	mov    %rax,%rdx
  4027ee:	48 01 ca             	add    %rcx,%rdx
  4027f1:	48 89 55 f0          	mov    %rdx,-0x10(%rbp)
  4027f5:	80 3c 08 00          	cmpb   $0x0,(%rax,%rcx,1)
  4027f9:	0f 84 11 00 00 00    	je     402810 <decodeHexChars+0x50>
  4027ff:	48 8b 45 e8          	mov    -0x18(%rbp),%rax
  402803:	48 c1 e8 03          	shr    $0x3,%rax
  402807:	48 89 45 c8          	mov    %rax,-0x38(%rbp)
  40280b:	e9 3e 00 00 00       	jmpq   40284e <decodeHexChars+0x8e>
  402810:	48 8b 7d e8          	mov    -0x18(%rbp),%rdi
  402814:	48 8b 45 f0          	mov    -0x10(%rbp),%rax
  402818:	c6 00 01             	movb   $0x1,(%rax)
  40281b:	48 c1 ef 03          	shr    $0x3,%rdi
  40281f:	48 89 7d c0          	mov    %rdi,-0x40(%rbp)
  402823:	48 b8 e0 ff ff ff ff 	movabs $0x1fffffffffffffe0,%rax
  40282a:	ff ff 1f 
  40282d:	48 21 c7             	and    %rax,%rdi
  402830:	48 81 c7 00 80 ff 7f 	add    $0x7fff8000,%rdi
  402837:	be ff 00 00 00       	mov    $0xff,%esi
  40283c:	ba 20 00 00 00       	mov    $0x20,%edx
  402841:	e8 8a e8 ff ff       	callq  4010d0 <memset@plt>
  402846:	48 8b 45 c0          	mov    -0x40(%rbp),%rax
  40284a:	48 89 45 c8          	mov    %rax,-0x38(%rbp)
  40284e:	48 8b 4d d8          	mov    -0x28(%rbp),%rcx
  402852:	48 8b 45 c8          	mov    -0x38(%rbp),%rax
  402856:	c6 80 00 80 ff 7f 81 	movb   $0x81,0x7fff8000(%rax)
  40285d:	31 c0                	xor    %eax,%eax
  40285f:	48 83 f9 00          	cmp    $0x0,%rcx
  402863:	48 89 45 b8          	mov    %rax,-0x48(%rbp)
  402867:	0f 84 96 06 00 00    	je     402f03 <decodeHexChars+0x743>
  40286d:	e8 5e e9 ff ff       	callq  4011d0 <__ctype_b_loc@plt>
  402872:	48 8b 4d e0          	mov    -0x20(%rbp),%rcx
  402876:	48 89 c2             	mov    %rax,%rdx
  402879:	48 8b 45 d0          	mov    -0x30(%rbp),%rax
  40287d:	48 89 95 68 ff ff ff 	mov    %rdx,-0x98(%rbp)
  402884:	48 89 ca             	mov    %rcx,%rdx
  402887:	48 c1 ea 03          	shr    $0x3,%rdx
  40288b:	48 89 d6             	mov    %rdx,%rsi
  40288e:	48 81 c6 00 80 ff 7f 	add    $0x7fff8000,%rsi
  402895:	48 89 b5 70 ff ff ff 	mov    %rsi,-0x90(%rbp)
  40289c:	48 81 c2 ff 7f ff 7f 	add    $0x7fff7fff,%rdx
  4028a3:	48 89 95 78 ff ff ff 	mov    %rdx,-0x88(%rbp)
  4028aa:	48 89 ca             	mov    %rcx,%rdx
  4028ad:	48 c1 ea 08          	shr    $0x8,%rdx
  4028b1:	48 89 55 80          	mov    %rdx,-0x80(%rbp)
  4028b5:	48 81 e1 ff 00 00 00 	and    $0xff,%rcx
  4028bc:	48 89 4d 88          	mov    %rcx,-0x78(%rbp)
  4028c0:	48 89 c1             	mov    %rax,%rcx
  4028c3:	48 c1 e9 03          	shr    $0x3,%rcx
  4028c7:	48 89 ca             	mov    %rcx,%rdx
  4028ca:	48 81 c2 00 80 ff 7f 	add    $0x7fff8000,%rdx
  4028d1:	48 89 55 90          	mov    %rdx,-0x70(%rbp)
  4028d5:	48 81 c1 ff 7f ff 7f 	add    $0x7fff7fff,%rcx
  4028dc:	48 89 4d 98          	mov    %rcx,-0x68(%rbp)
  4028e0:	48 89 c1             	mov    %rax,%rcx
  4028e3:	48 c1 e9 08          	shr    $0x8,%rcx
  4028e7:	48 89 4d a0          	mov    %rcx,-0x60(%rbp)
  4028eb:	48 25 ff 00 00 00    	and    $0xff,%rax
  4028f1:	48 89 45 a8          	mov    %rax,-0x58(%rbp)
  4028f5:	31 c0                	xor    %eax,%eax
  4028f7:	48 89 45 b0          	mov    %rax,-0x50(%rbp)
  4028fb:	48 8b 55 e0          	mov    -0x20(%rbp),%rdx
  4028ff:	48 8b 8d 68 ff ff ff 	mov    -0x98(%rbp),%rcx
  402906:	48 8b 45 b0          	mov    -0x50(%rbp),%rax
  40290a:	48 89 85 48 ff ff ff 	mov    %rax,-0xb8(%rbp)
  402911:	48 8b 09             	mov    (%rcx),%rcx
  402914:	48 89 8d 50 ff ff ff 	mov    %rcx,-0xb0(%rbp)
  40291b:	48 89 c6             	mov    %rax,%rsi
  40291e:	48 c1 e6 01          	shl    $0x1,%rsi
  402922:	48 89 b5 58 ff ff ff 	mov    %rsi,-0xa8(%rbp)
  402929:	48 89 d7             	mov    %rdx,%rdi
  40292c:	48 01 f7             	add    %rsi,%rdi
  40292f:	48 89 bd 60 ff ff ff 	mov    %rdi,-0xa0(%rbp)
  402936:	48 0f be 14 32       	movsbq (%rdx,%rsi,1),%rdx
  40293b:	66 8b 0c 51          	mov    (%rcx,%rdx,2),%cx
  40293f:	66 81 e1 00 10       	and    $0x1000,%cx
  402944:	66 83 f9 00          	cmp    $0x0,%cx
  402948:	48 89 45 b8          	mov    %rax,-0x48(%rbp)
  40294c:	0f 84 b1 05 00 00    	je     402f03 <decodeHexChars+0x743>
  402952:	48 8b 85 48 ff ff ff 	mov    -0xb8(%rbp),%rax
  402959:	48 8b 8d 50 ff ff ff 	mov    -0xb0(%rbp),%rcx
  402960:	48 8b 55 e0          	mov    -0x20(%rbp),%rdx
  402964:	48 8b b5 58 ff ff ff 	mov    -0xa8(%rbp),%rsi
  40296b:	48 83 ce 01          	or     $0x1,%rsi
  40296f:	48 0f be 14 32       	movsbq (%rdx,%rsi,1),%rdx
  402974:	66 8b 0c 51          	mov    (%rcx,%rdx,2),%cx
  402978:	66 81 e1 00 10       	and    $0x1000,%cx
  40297d:	66 83 f9 00          	cmp    $0x0,%cx
  402981:	48 89 45 b8          	mov    %rax,-0x48(%rbp)
  402985:	0f 84 78 05 00 00    	je     402f03 <decodeHexChars+0x743>
  40298b:	48 8b 85 70 ff ff ff 	mov    -0x90(%rbp),%rax
  402992:	8a 00                	mov    (%rax),%al
  402994:	88 85 46 ff ff ff    	mov    %al,-0xba(%rbp)
  40299a:	3c 00                	cmp    $0x0,%al
  40299c:	0f 94 c0             	sete   %al
  40299f:	88 85 47 ff ff ff    	mov    %al,-0xb9(%rbp)
  4029a5:	a8 01                	test   $0x1,%al
  4029a7:	0f 85 05 00 00 00    	jne    4029b2 <decodeHexChars+0x1f2>
  4029ad:	e9 23 00 00 00       	jmpq   4029d5 <decodeHexChars+0x215>
  4029b2:	48 8b 4d 88          	mov    -0x78(%rbp),%rcx
  4029b6:	48 8b 55 80          	mov    -0x80(%rbp),%rdx
  4029ba:	48 8b 04 25 b0 81 61 	mov    0x6181b0,%rax
  4029c1:	00 
  4029c2:	48 63 04 90          	movslq (%rax,%rdx,4),%rax
  4029c6:	48 29 c8             	sub    %rcx,%rax
  4029c9:	48 89 85 38 ff ff ff 	mov    %rax,-0xc8(%rbp)
  4029d0:	e9 82 00 00 00       	jmpq   402a57 <decodeHexChars+0x297>
  4029d5:	48 8b 85 78 ff ff ff 	mov    -0x88(%rbp),%rax
  4029dc:	8a 8d 46 ff ff ff    	mov    -0xba(%rbp),%cl
  4029e2:	80 c1 1f             	add    $0x1f,%cl
  4029e5:	80 e1 1f             	and    $0x1f,%cl
  4029e8:	0f b6 c9             	movzbl %cl,%ecx
  4029eb:	ba 01 00 00 00       	mov    $0x1,%edx
  4029f0:	d3 e2                	shl    %cl,%edx
  4029f2:	89 d1                	mov    %edx,%ecx
  4029f4:	48 63 c9             	movslq %ecx,%rcx
  4029f7:	48 01 c8             	add    %rcx,%rax
  4029fa:	8a 08                	mov    (%rax),%cl
  4029fc:	80 c1 1f             	add    $0x1f,%cl
  4029ff:	80 e1 1f             	and    $0x1f,%cl
  402a02:	0f b6 c9             	movzbl %cl,%ecx
  402a05:	ba ff ff ff ff       	mov    $0xffffffff,%edx
  402a0a:	d3 e2                	shl    %cl,%edx
  402a0c:	89 d1                	mov    %edx,%ecx
  402a0e:	83 f1 ff             	xor    $0xffffffff,%ecx
  402a11:	89 c9                	mov    %ecx,%ecx
  402a13:	48 01 c8             	add    %rcx,%rax
  402a16:	8a 08                	mov    (%rax),%cl
  402a18:	80 c1 1f             	add    $0x1f,%cl
  402a1b:	80 e1 1f             	and    $0x1f,%cl
  402a1e:	0f b6 c9             	movzbl %cl,%ecx
  402a21:	ba ff ff ff ff       	mov    $0xffffffff,%edx
  402a26:	d3 e2                	shl    %cl,%edx
  402a28:	48 8b 8d 70 ff ff ff 	mov    -0x90(%rbp),%rcx
  402a2f:	83 f2 ff             	xor    $0xffffffff,%edx
  402a32:	89 d2                	mov    %edx,%edx
  402a34:	48 01 d0             	add    %rdx,%rax
  402a37:	8a 10                	mov    (%rax),%dl
  402a39:	80 c2 ff             	add    $0xff,%dl
  402a3c:	48 29 c8             	sub    %rcx,%rax
  402a3f:	48 c1 e0 03          	shl    $0x3,%rax
  402a43:	c0 ea 05             	shr    $0x5,%dl
  402a46:	b1 08                	mov    $0x8,%cl
  402a48:	28 d1                	sub    %dl,%cl
  402a4a:	0f b6 c9             	movzbl %cl,%ecx
  402a4d:	48 01 c8             	add    %rcx,%rax
  402a50:	48 89 85 38 ff ff ff 	mov    %rax,-0xc8(%rbp)
  402a57:	48 8b 85 58 ff ff ff 	mov    -0xa8(%rbp),%rax
  402a5e:	48 8b 95 60 ff ff ff 	mov    -0xa0(%rbp),%rdx
  402a65:	48 8b 75 e0          	mov    -0x20(%rbp),%rsi
  402a69:	48 8b 8d 38 ff ff ff 	mov    -0xc8(%rbp),%rcx
  402a70:	48 89 8d 30 ff ff ff 	mov    %rcx,-0xd0(%rbp)
  402a77:	48 01 f1             	add    %rsi,%rcx
  402a7a:	48 39 d1             	cmp    %rdx,%rcx
  402a7d:	0f 96 c1             	setbe  %cl
  402a80:	48 83 f8 00          	cmp    $0x0,%rax
  402a84:	0f 9f c0             	setg   %al
  402a87:	20 c8                	and    %cl,%al
  402a89:	a8 01                	test   $0x1,%al
  402a8b:	0f 85 05 00 00 00    	jne    402a96 <decodeHexChars+0x2d6>
  402a91:	e9 89 01 00 00       	jmpq   402c1f <decodeHexChars+0x45f>
  402a96:	8a 85 47 ff ff ff    	mov    -0xb9(%rbp),%al
  402a9c:	8a 8d 46 ff ff ff    	mov    -0xba(%rbp),%cl
  402aa2:	48 8b 95 60 ff ff ff 	mov    -0xa0(%rbp),%rdx
  402aa9:	48 83 c2 ff          	add    $0xffffffffffffffff,%rdx
  402aad:	48 c1 ea 03          	shr    $0x3,%rdx
  402ab1:	48 89 d6             	mov    %rdx,%rsi
  402ab4:	48 81 c6 00 80 ff 7f 	add    $0x7fff8000,%rsi
  402abb:	48 89 b5 18 ff ff ff 	mov    %rsi,-0xe8(%rbp)
  402ac2:	48 81 c2 01 80 ff 7f 	add    $0x7fff8001,%rdx
  402ac9:	48 89 95 20 ff ff ff 	mov    %rdx,-0xe0(%rbp)
  402ad0:	80 c1 ff             	add    $0xff,%cl
  402ad3:	88 8d 2f ff ff ff    	mov    %cl,-0xd1(%rbp)
  402ad9:	a8 01                	test   $0x1,%al
  402adb:	0f 85 05 00 00 00    	jne    402ae6 <decodeHexChars+0x326>
  402ae1:	e9 17 00 00 00       	jmpq   402afd <decodeHexChars+0x33d>
  402ae6:	48 8b 95 30 ff ff ff 	mov    -0xd0(%rbp),%rdx
  402aed:	48 8b b5 58 ff ff ff 	mov    -0xa8(%rbp),%rsi
  402af4:	48 8b 7d e0          	mov    -0x20(%rbp),%rdi
  402af8:	e8 93 42 00 00       	callq  406d90 <__cocheck__reportError>
  402afd:	48 8b 85 58 ff ff ff 	mov    -0xa8(%rbp),%rax
  402b04:	48 83 f8 09          	cmp    $0x9,%rax
  402b08:	0f 83 37 00 00 00    	jae    402b45 <decodeHexChars+0x385>
  402b0e:	48 8b 85 58 ff ff ff 	mov    -0xa8(%rbp),%rax
  402b15:	8a 8d 2f ff ff ff    	mov    -0xd1(%rbp),%cl
  402b1b:	c0 e9 05             	shr    $0x5,%cl
  402b1e:	0f b6 c9             	movzbl %cl,%ecx
  402b21:	48 01 c8             	add    %rcx,%rax
  402b24:	48 83 f8 07          	cmp    $0x7,%rax
  402b28:	0f 86 f1 00 00 00    	jbe    402c1f <decodeHexChars+0x45f>
  402b2e:	48 8b 95 30 ff ff ff 	mov    -0xd0(%rbp),%rdx
  402b35:	48 8b b5 58 ff ff ff 	mov    -0xa8(%rbp),%rsi
  402b3c:	48 8b 7d e0          	mov    -0x20(%rbp),%rdi
  402b40:	e8 4b 42 00 00       	callq  406d90 <__cocheck__reportError>
  402b45:	48 8b 85 70 ff ff ff 	mov    -0x90(%rbp),%rax
  402b4c:	8a 8d 2f ff ff ff    	mov    -0xd1(%rbp),%cl
  402b52:	0f b6 c9             	movzbl %cl,%ecx
  402b55:	89 8d 10 ff ff ff    	mov    %ecx,-0xf0(%rbp)
  402b5b:	ba 01 00 00 00       	mov    $0x1,%edx
  402b60:	d3 e2                	shl    %cl,%edx
  402b62:	48 8b 8d 20 ff ff ff 	mov    -0xe0(%rbp),%rcx
  402b69:	89 95 14 ff ff ff    	mov    %edx,-0xec(%rbp)
  402b6f:	c1 e2 01             	shl    $0x1,%edx
  402b72:	48 63 d2             	movslq %edx,%rdx
  402b75:	48 01 d0             	add    %rdx,%rax
  402b78:	48 39 c8             	cmp    %rcx,%rax
  402b7b:	0f 86 27 00 00 00    	jbe    402ba8 <decodeHexChars+0x3e8>
  402b81:	8b 8d 10 ff ff ff    	mov    -0xf0(%rbp),%ecx
  402b87:	48 8b 85 20 ff ff ff 	mov    -0xe0(%rbp),%rax
  402b8e:	8b 95 14 ff ff ff    	mov    -0xec(%rbp),%edx
  402b94:	48 63 d2             	movslq %edx,%rdx
  402b97:	48 29 d0             	sub    %rdx,%rax
  402b9a:	0f b6 00             	movzbl (%rax),%eax
  402b9d:	83 c0 ff             	add    $0xffffffff,%eax
  402ba0:	39 c8                	cmp    %ecx,%eax
  402ba2:	0f 84 17 00 00 00    	je     402bbf <decodeHexChars+0x3ff>
  402ba8:	48 8b 95 30 ff ff ff 	mov    -0xd0(%rbp),%rdx
  402baf:	48 8b b5 58 ff ff ff 	mov    -0xa8(%rbp),%rsi
  402bb6:	48 8b 7d e0          	mov    -0x20(%rbp),%rdi
  402bba:	e8 d1 41 00 00       	callq  406d90 <__cocheck__reportError>
  402bbf:	48 8b 85 18 ff ff ff 	mov    -0xe8(%rbp),%rax
  402bc6:	8a 00                	mov    (%rax),%al
  402bc8:	0f b6 c0             	movzbl %al,%eax
  402bcb:	89 85 0c ff ff ff    	mov    %eax,-0xf4(%rbp)
  402bd1:	83 e0 1f             	and    $0x1f,%eax
  402bd4:	83 f8 01             	cmp    $0x1,%eax
  402bd7:	0f 85 42 00 00 00    	jne    402c1f <decodeHexChars+0x45f>
  402bdd:	8b 8d 0c ff ff ff    	mov    -0xf4(%rbp),%ecx
  402be3:	48 8b 85 58 ff ff ff 	mov    -0xa8(%rbp),%rax
  402bea:	48 83 c0 07          	add    $0x7,%rax
  402bee:	48 83 e0 07          	and    $0x7,%rax
  402bf2:	48 83 c0 01          	add    $0x1,%rax
  402bf6:	c1 e9 05             	shr    $0x5,%ecx
  402bf9:	89 c9                	mov    %ecx,%ecx
  402bfb:	48 01 c8             	add    %rcx,%rax
  402bfe:	48 83 f8 07          	cmp    $0x7,%rax
  402c02:	0f 86 17 00 00 00    	jbe    402c1f <decodeHexChars+0x45f>
  402c08:	48 8b 95 30 ff ff ff 	mov    -0xd0(%rbp),%rdx
  402c0f:	48 8b b5 58 ff ff ff 	mov    -0xa8(%rbp),%rsi
  402c16:	48 8b 7d e0          	mov    -0x20(%rbp),%rdi
  402c1a:	e8 71 41 00 00       	callq  406d90 <__cocheck__reportError>
  402c1f:	48 8b bd 60 ff ff ff 	mov    -0xa0(%rbp),%rdi
  402c26:	48 be 90 4a 41 00 00 	movabs $0x414a90,%rsi
  402c2d:	00 00 00 
  402c30:	48 8d 55 f8          	lea    -0x8(%rbp),%rdx
  402c34:	b0 00                	mov    $0x0,%al
  402c36:	e8 65 e5 ff ff       	callq  4011a0 <__isoc99_sscanf@plt>
  402c3b:	48 8b 45 90          	mov    -0x70(%rbp),%rax
  402c3f:	8b 4d f8             	mov    -0x8(%rbp),%ecx
  402c42:	88 8d 09 ff ff ff    	mov    %cl,-0xf7(%rbp)
  402c48:	8a 00                	mov    (%rax),%al
  402c4a:	88 85 0a ff ff ff    	mov    %al,-0xf6(%rbp)
  402c50:	3c 00                	cmp    $0x0,%al
  402c52:	0f 94 c0             	sete   %al
  402c55:	88 85 0b ff ff ff    	mov    %al,-0xf5(%rbp)
  402c5b:	a8 01                	test   $0x1,%al
  402c5d:	0f 85 05 00 00 00    	jne    402c68 <decodeHexChars+0x4a8>
  402c63:	e9 23 00 00 00       	jmpq   402c8b <decodeHexChars+0x4cb>
  402c68:	48 8b 4d a8          	mov    -0x58(%rbp),%rcx
  402c6c:	48 8b 55 a0          	mov    -0x60(%rbp),%rdx
  402c70:	48 8b 04 25 b0 81 61 	mov    0x6181b0,%rax
  402c77:	00 
  402c78:	48 63 04 90          	movslq (%rax,%rdx,4),%rax
  402c7c:	48 29 c8             	sub    %rcx,%rax
  402c7f:	48 89 85 00 ff ff ff 	mov    %rax,-0x100(%rbp)
  402c86:	e9 7c 00 00 00       	jmpq   402d07 <decodeHexChars+0x547>
  402c8b:	48 8b 45 98          	mov    -0x68(%rbp),%rax
  402c8f:	8a 8d 0a ff ff ff    	mov    -0xf6(%rbp),%cl
  402c95:	80 c1 1f             	add    $0x1f,%cl
  402c98:	80 e1 1f             	and    $0x1f,%cl
  402c9b:	0f b6 c9             	movzbl %cl,%ecx
  402c9e:	ba 01 00 00 00       	mov    $0x1,%edx
  402ca3:	d3 e2                	shl    %cl,%edx
  402ca5:	89 d1                	mov    %edx,%ecx
  402ca7:	48 63 c9             	movslq %ecx,%rcx
  402caa:	48 01 c8             	add    %rcx,%rax
  402cad:	8a 08                	mov    (%rax),%cl
  402caf:	80 c1 1f             	add    $0x1f,%cl
  402cb2:	80 e1 1f             	and    $0x1f,%cl
  402cb5:	0f b6 c9             	movzbl %cl,%ecx
  402cb8:	ba ff ff ff ff       	mov    $0xffffffff,%edx
  402cbd:	d3 e2                	shl    %cl,%edx
  402cbf:	89 d1                	mov    %edx,%ecx
  402cc1:	83 f1 ff             	xor    $0xffffffff,%ecx
  402cc4:	89 c9                	mov    %ecx,%ecx
  402cc6:	48 01 c8             	add    %rcx,%rax
  402cc9:	8a 08                	mov    (%rax),%cl
  402ccb:	80 c1 1f             	add    $0x1f,%cl
  402cce:	80 e1 1f             	and    $0x1f,%cl
  402cd1:	0f b6 c9             	movzbl %cl,%ecx
  402cd4:	ba ff ff ff ff       	mov    $0xffffffff,%edx
  402cd9:	d3 e2                	shl    %cl,%edx
  402cdb:	48 8b 4d 90          	mov    -0x70(%rbp),%rcx
  402cdf:	83 f2 ff             	xor    $0xffffffff,%edx
  402ce2:	89 d2                	mov    %edx,%edx
  402ce4:	48 01 d0             	add    %rdx,%rax
  402ce7:	8a 10                	mov    (%rax),%dl
  402ce9:	80 c2 ff             	add    $0xff,%dl
  402cec:	48 29 c8             	sub    %rcx,%rax
  402cef:	48 c1 e0 03          	shl    $0x3,%rax
  402cf3:	c0 ea 05             	shr    $0x5,%dl
  402cf6:	b1 08                	mov    $0x8,%cl
  402cf8:	28 d1                	sub    %dl,%cl
  402cfa:	0f b6 c9             	movzbl %cl,%ecx
  402cfd:	48 01 c8             	add    %rcx,%rax
  402d00:	48 89 85 00 ff ff ff 	mov    %rax,-0x100(%rbp)
  402d07:	48 8b 85 48 ff ff ff 	mov    -0xb8(%rbp),%rax
  402d0e:	48 8b 75 d0          	mov    -0x30(%rbp),%rsi
  402d12:	48 8b 8d 00 ff ff ff 	mov    -0x100(%rbp),%rcx
  402d19:	48 89 8d f0 fe ff ff 	mov    %rcx,-0x110(%rbp)
  402d20:	48 89 f2             	mov    %rsi,%rdx
  402d23:	48 01 c2             	add    %rax,%rdx
  402d26:	48 89 95 f8 fe ff ff 	mov    %rdx,-0x108(%rbp)
  402d2d:	48 01 f1             	add    %rsi,%rcx
  402d30:	48 39 d1             	cmp    %rdx,%rcx
  402d33:	0f 96 c1             	setbe  %cl
  402d36:	48 83 f8 00          	cmp    $0x0,%rax
  402d3a:	0f 9f c0             	setg   %al
  402d3d:	20 c8                	and    %cl,%al
  402d3f:	a8 01                	test   $0x1,%al
  402d41:	0f 85 05 00 00 00    	jne    402d4c <decodeHexChars+0x58c>
  402d47:	e9 86 01 00 00       	jmpq   402ed2 <decodeHexChars+0x712>
  402d4c:	8a 85 0b ff ff ff    	mov    -0xf5(%rbp),%al
  402d52:	8a 8d 0a ff ff ff    	mov    -0xf6(%rbp),%cl
  402d58:	48 8b 95 f8 fe ff ff 	mov    -0x108(%rbp),%rdx
  402d5f:	48 83 c2 ff          	add    $0xffffffffffffffff,%rdx
  402d63:	48 c1 ea 03          	shr    $0x3,%rdx
  402d67:	48 89 d6             	mov    %rdx,%rsi
  402d6a:	48 81 c6 00 80 ff 7f 	add    $0x7fff8000,%rsi
  402d71:	48 89 b5 d8 fe ff ff 	mov    %rsi,-0x128(%rbp)
  402d78:	48 81 c2 01 80 ff 7f 	add    $0x7fff8001,%rdx
  402d7f:	48 89 95 e0 fe ff ff 	mov    %rdx,-0x120(%rbp)
  402d86:	80 c1 ff             	add    $0xff,%cl
  402d89:	88 8d ef fe ff ff    	mov    %cl,-0x111(%rbp)
  402d8f:	a8 01                	test   $0x1,%al
  402d91:	0f 85 05 00 00 00    	jne    402d9c <decodeHexChars+0x5dc>
  402d97:	e9 17 00 00 00       	jmpq   402db3 <decodeHexChars+0x5f3>
  402d9c:	48 8b 95 f0 fe ff ff 	mov    -0x110(%rbp),%rdx
  402da3:	48 8b b5 48 ff ff ff 	mov    -0xb8(%rbp),%rsi
  402daa:	48 8b 7d d0          	mov    -0x30(%rbp),%rdi
  402dae:	e8 dd 3f 00 00       	callq  406d90 <__cocheck__reportError>
  402db3:	48 8b 85 48 ff ff ff 	mov    -0xb8(%rbp),%rax
  402dba:	48 83 f8 09          	cmp    $0x9,%rax
  402dbe:	0f 83 37 00 00 00    	jae    402dfb <decodeHexChars+0x63b>
  402dc4:	48 8b 85 48 ff ff ff 	mov    -0xb8(%rbp),%rax
  402dcb:	8a 8d ef fe ff ff    	mov    -0x111(%rbp),%cl
  402dd1:	c0 e9 05             	shr    $0x5,%cl
  402dd4:	0f b6 c9             	movzbl %cl,%ecx
  402dd7:	48 01 c8             	add    %rcx,%rax
  402dda:	48 83 f8 07          	cmp    $0x7,%rax
  402dde:	0f 86 ee 00 00 00    	jbe    402ed2 <decodeHexChars+0x712>
  402de4:	48 8b 95 f0 fe ff ff 	mov    -0x110(%rbp),%rdx
  402deb:	48 8b b5 48 ff ff ff 	mov    -0xb8(%rbp),%rsi
  402df2:	48 8b 7d d0          	mov    -0x30(%rbp),%rdi
  402df6:	e8 95 3f 00 00       	callq  406d90 <__cocheck__reportError>
  402dfb:	48 8b 45 90          	mov    -0x70(%rbp),%rax
  402dff:	8a 8d ef fe ff ff    	mov    -0x111(%rbp),%cl
  402e05:	0f b6 c9             	movzbl %cl,%ecx
  402e08:	89 8d d0 fe ff ff    	mov    %ecx,-0x130(%rbp)
  402e0e:	ba 01 00 00 00       	mov    $0x1,%edx
  402e13:	d3 e2                	shl    %cl,%edx
  402e15:	48 8b 8d e0 fe ff ff 	mov    -0x120(%rbp),%rcx
  402e1c:	89 95 d4 fe ff ff    	mov    %edx,-0x12c(%rbp)
  402e22:	c1 e2 01             	shl    $0x1,%edx
  402e25:	48 63 d2             	movslq %edx,%rdx
  402e28:	48 01 d0             	add    %rdx,%rax
  402e2b:	48 39 c8             	cmp    %rcx,%rax
  402e2e:	0f 86 27 00 00 00    	jbe    402e5b <decodeHexChars+0x69b>
  402e34:	8b 8d d0 fe ff ff    	mov    -0x130(%rbp),%ecx
  402e3a:	48 8b 85 e0 fe ff ff 	mov    -0x120(%rbp),%rax
  402e41:	8b 95 d4 fe ff ff    	mov    -0x12c(%rbp),%edx
  402e47:	48 63 d2             	movslq %edx,%rdx
  402e4a:	48 29 d0             	sub    %rdx,%rax
  402e4d:	0f b6 00             	movzbl (%rax),%eax
  402e50:	83 c0 ff             	add    $0xffffffff,%eax
  402e53:	39 c8                	cmp    %ecx,%eax
  402e55:	0f 84 17 00 00 00    	je     402e72 <decodeHexChars+0x6b2>
  402e5b:	48 8b 95 f0 fe ff ff 	mov    -0x110(%rbp),%rdx
  402e62:	48 8b b5 48 ff ff ff 	mov    -0xb8(%rbp),%rsi
  402e69:	48 8b 7d d0          	mov    -0x30(%rbp),%rdi
  402e6d:	e8 1e 3f 00 00       	callq  406d90 <__cocheck__reportError>
  402e72:	48 8b 85 d8 fe ff ff 	mov    -0x128(%rbp),%rax
  402e79:	8a 00                	mov    (%rax),%al
  402e7b:	0f b6 c0             	movzbl %al,%eax
  402e7e:	89 85 cc fe ff ff    	mov    %eax,-0x134(%rbp)
  402e84:	83 e0 1f             	and    $0x1f,%eax
  402e87:	83 f8 01             	cmp    $0x1,%eax
  402e8a:	0f 85 42 00 00 00    	jne    402ed2 <decodeHexChars+0x712>
  402e90:	8b 8d cc fe ff ff    	mov    -0x134(%rbp),%ecx
  402e96:	48 8b 85 48 ff ff ff 	mov    -0xb8(%rbp),%rax
  402e9d:	48 83 c0 07          	add    $0x7,%rax
  402ea1:	48 83 e0 07          	and    $0x7,%rax
  402ea5:	48 83 c0 01          	add    $0x1,%rax
  402ea9:	c1 e9 05             	shr    $0x5,%ecx
  402eac:	89 c9                	mov    %ecx,%ecx
  402eae:	48 01 c8             	add    %rcx,%rax
  402eb1:	48 83 f8 07          	cmp    $0x7,%rax
  402eb5:	0f 86 17 00 00 00    	jbe    402ed2 <decodeHexChars+0x712>
  402ebb:	48 8b 95 f0 fe ff ff 	mov    -0x110(%rbp),%rdx
  402ec2:	48 8b b5 48 ff ff ff 	mov    -0xb8(%rbp),%rsi
  402ec9:	48 8b 7d d0          	mov    -0x30(%rbp),%rdi
  402ecd:	e8 be 3e 00 00       	callq  406d90 <__cocheck__reportError>
  402ed2:	48 8b 45 d8          	mov    -0x28(%rbp),%rax
  402ed6:	48 8b 8d 48 ff ff ff 	mov    -0xb8(%rbp),%rcx
  402edd:	48 8b 95 f8 fe ff ff 	mov    -0x108(%rbp),%rdx
  402ee4:	40 8a b5 09 ff ff ff 	mov    -0xf7(%rbp),%sil
  402eeb:	40 88 32             	mov    %sil,(%rdx)
  402eee:	48 83 c1 01          	add    $0x1,%rcx
  402ef2:	48 39 c1             	cmp    %rax,%rcx
  402ef5:	48 89 4d b0          	mov    %rcx,-0x50(%rbp)
  402ef9:	48 89 45 b8          	mov    %rax,-0x48(%rbp)
  402efd:	0f 85 f8 f9 ff ff    	jne    4028fb <decodeHexChars+0x13b>
  402f03:	48 8b 45 b8          	mov    -0x48(%rbp),%rax
  402f07:	48 81 c4 40 01 00 00 	add    $0x140,%rsp
  402f0e:	5d                   	pop    %rbp
  402f0f:	c3                   	retq   

0000000000402f10 <decodeHexWChars>:
  402f10:	55                   	push   %rbp
  402f11:	48 89 e5             	mov    %rsp,%rbp
  402f14:	48 81 ec d0 01 00 00 	sub    $0x1d0,%rsp
  402f1b:	48 89 7d d0          	mov    %rdi,-0x30(%rbp)
  402f1f:	48 89 75 d8          	mov    %rsi,-0x28(%rbp)
  402f23:	48 89 55 e0          	mov    %rdx,-0x20(%rbp)
  402f27:	48 8d 4d f8          	lea    -0x8(%rbp),%rcx
  402f2b:	48 89 4d e8          	mov    %rcx,-0x18(%rbp)
  402f2f:	48 c1 e9 08          	shr    $0x8,%rcx
  402f33:	48 8b 04 25 c8 81 61 	mov    0x6181c8,%rax
  402f3a:	00 
  402f3b:	48 89 c2             	mov    %rax,%rdx
  402f3e:	48 01 ca             	add    %rcx,%rdx
  402f41:	48 89 55 f0          	mov    %rdx,-0x10(%rbp)
  402f45:	80 3c 08 00          	cmpb   $0x0,(%rax,%rcx,1)
  402f49:	0f 84 11 00 00 00    	je     402f60 <decodeHexWChars+0x50>
  402f4f:	48 8b 45 e8          	mov    -0x18(%rbp),%rax
  402f53:	48 c1 e8 03          	shr    $0x3,%rax
  402f57:	48 89 45 c8          	mov    %rax,-0x38(%rbp)
  402f5b:	e9 3e 00 00 00       	jmpq   402f9e <decodeHexWChars+0x8e>
  402f60:	48 8b 7d e8          	mov    -0x18(%rbp),%rdi
  402f64:	48 8b 45 f0          	mov    -0x10(%rbp),%rax
  402f68:	c6 00 01             	movb   $0x1,(%rax)
  402f6b:	48 c1 ef 03          	shr    $0x3,%rdi
  402f6f:	48 89 7d c0          	mov    %rdi,-0x40(%rbp)
  402f73:	48 b8 e0 ff ff ff ff 	movabs $0x1fffffffffffffe0,%rax
  402f7a:	ff ff 1f 
  402f7d:	48 21 c7             	and    %rax,%rdi
  402f80:	48 81 c7 00 80 ff 7f 	add    $0x7fff8000,%rdi
  402f87:	be ff 00 00 00       	mov    $0xff,%esi
  402f8c:	ba 20 00 00 00       	mov    $0x20,%edx
  402f91:	e8 3a e1 ff ff       	callq  4010d0 <memset@plt>
  402f96:	48 8b 45 c0          	mov    -0x40(%rbp),%rax
  402f9a:	48 89 45 c8          	mov    %rax,-0x38(%rbp)
  402f9e:	48 8b 4d d8          	mov    -0x28(%rbp),%rcx
  402fa2:	48 8b 45 c8          	mov    -0x38(%rbp),%rax
  402fa6:	c6 80 00 80 ff 7f 81 	movb   $0x81,0x7fff8000(%rax)
  402fad:	31 c0                	xor    %eax,%eax
  402faf:	48 83 f9 00          	cmp    $0x0,%rcx
  402fb3:	48 89 45 b8          	mov    %rax,-0x48(%rbp)
  402fb7:	0f 84 12 0b 00 00    	je     403acf <decodeHexWChars+0xbbf>
  402fbd:	48 8b 45 d0          	mov    -0x30(%rbp),%rax
  402fc1:	48 8b 4d e0          	mov    -0x20(%rbp),%rcx
  402fc5:	48 89 ca             	mov    %rcx,%rdx
  402fc8:	48 c1 ea 03          	shr    $0x3,%rdx
  402fcc:	48 89 d6             	mov    %rdx,%rsi
  402fcf:	48 81 c6 00 80 ff 7f 	add    $0x7fff8000,%rsi
  402fd6:	48 89 b5 70 ff ff ff 	mov    %rsi,-0x90(%rbp)
  402fdd:	48 81 c2 ff 7f ff 7f 	add    $0x7fff7fff,%rdx
  402fe4:	48 89 95 78 ff ff ff 	mov    %rdx,-0x88(%rbp)
  402feb:	48 89 ca             	mov    %rcx,%rdx
  402fee:	48 c1 ea 08          	shr    $0x8,%rdx
  402ff2:	48 89 55 80          	mov    %rdx,-0x80(%rbp)
  402ff6:	48 81 e1 ff 00 00 00 	and    $0xff,%rcx
  402ffd:	48 89 4d 88          	mov    %rcx,-0x78(%rbp)
  403001:	48 89 c1             	mov    %rax,%rcx
  403004:	48 c1 e9 03          	shr    $0x3,%rcx
  403008:	48 89 ca             	mov    %rcx,%rdx
  40300b:	48 81 c2 00 80 ff 7f 	add    $0x7fff8000,%rdx
  403012:	48 89 55 90          	mov    %rdx,-0x70(%rbp)
  403016:	48 81 c1 ff 7f ff 7f 	add    $0x7fff7fff,%rcx
  40301d:	48 89 4d 98          	mov    %rcx,-0x68(%rbp)
  403021:	48 89 c1             	mov    %rax,%rcx
  403024:	48 c1 e9 08          	shr    $0x8,%rcx
  403028:	48 89 4d a0          	mov    %rcx,-0x60(%rbp)
  40302c:	48 25 ff 00 00 00    	and    $0xff,%rax
  403032:	48 89 45 a8          	mov    %rax,-0x58(%rbp)
  403036:	31 c0                	xor    %eax,%eax
  403038:	48 89 45 b0          	mov    %rax,-0x50(%rbp)
  40303c:	48 8b 85 70 ff ff ff 	mov    -0x90(%rbp),%rax
  403043:	48 8b 4d b0          	mov    -0x50(%rbp),%rcx
  403047:	48 89 8d 60 ff ff ff 	mov    %rcx,-0xa0(%rbp)
  40304e:	8a 00                	mov    (%rax),%al
  403050:	88 85 6e ff ff ff    	mov    %al,-0x92(%rbp)
  403056:	3c 00                	cmp    $0x0,%al
  403058:	0f 94 c0             	sete   %al
  40305b:	88 85 6f ff ff ff    	mov    %al,-0x91(%rbp)
  403061:	a8 01                	test   $0x1,%al
  403063:	0f 85 05 00 00 00    	jne    40306e <decodeHexWChars+0x15e>
  403069:	e9 23 00 00 00       	jmpq   403091 <decodeHexWChars+0x181>
  40306e:	48 8b 4d 88          	mov    -0x78(%rbp),%rcx
  403072:	48 8b 55 80          	mov    -0x80(%rbp),%rdx
  403076:	48 8b 04 25 b0 81 61 	mov    0x6181b0,%rax
  40307d:	00 
  40307e:	48 63 04 90          	movslq (%rax,%rdx,4),%rax
  403082:	48 29 c8             	sub    %rcx,%rax
  403085:	48 89 85 58 ff ff ff 	mov    %rax,-0xa8(%rbp)
  40308c:	e9 82 00 00 00       	jmpq   403113 <decodeHexWChars+0x203>
  403091:	48 8b 85 78 ff ff ff 	mov    -0x88(%rbp),%rax
  403098:	8a 8d 6e ff ff ff    	mov    -0x92(%rbp),%cl
  40309e:	80 c1 1f             	add    $0x1f,%cl
  4030a1:	80 e1 1f             	and    $0x1f,%cl
  4030a4:	0f b6 c9             	movzbl %cl,%ecx
  4030a7:	ba 01 00 00 00       	mov    $0x1,%edx
  4030ac:	d3 e2                	shl    %cl,%edx
  4030ae:	89 d1                	mov    %edx,%ecx
  4030b0:	48 63 c9             	movslq %ecx,%rcx
  4030b3:	48 01 c8             	add    %rcx,%rax
  4030b6:	8a 08                	mov    (%rax),%cl
  4030b8:	80 c1 1f             	add    $0x1f,%cl
  4030bb:	80 e1 1f             	and    $0x1f,%cl
  4030be:	0f b6 c9             	movzbl %cl,%ecx
  4030c1:	ba ff ff ff ff       	mov    $0xffffffff,%edx
  4030c6:	d3 e2                	shl    %cl,%edx
  4030c8:	89 d1                	mov    %edx,%ecx
  4030ca:	83 f1 ff             	xor    $0xffffffff,%ecx
  4030cd:	89 c9                	mov    %ecx,%ecx
  4030cf:	48 01 c8             	add    %rcx,%rax
  4030d2:	8a 08                	mov    (%rax),%cl
  4030d4:	80 c1 1f             	add    $0x1f,%cl
  4030d7:	80 e1 1f             	and    $0x1f,%cl
  4030da:	0f b6 c9             	movzbl %cl,%ecx
  4030dd:	ba ff ff ff ff       	mov    $0xffffffff,%edx
  4030e2:	d3 e2                	shl    %cl,%edx
  4030e4:	48 8b 8d 70 ff ff ff 	mov    -0x90(%rbp),%rcx
  4030eb:	83 f2 ff             	xor    $0xffffffff,%edx
  4030ee:	89 d2                	mov    %edx,%edx
  4030f0:	48 01 d0             	add    %rdx,%rax
  4030f3:	8a 10                	mov    (%rax),%dl
  4030f5:	80 c2 ff             	add    $0xff,%dl
  4030f8:	48 29 c8             	sub    %rcx,%rax
  4030fb:	48 c1 e0 03          	shl    $0x3,%rax
  4030ff:	c0 ea 05             	shr    $0x5,%dl
  403102:	b1 08                	mov    $0x8,%cl
  403104:	28 d1                	sub    %dl,%cl
  403106:	0f b6 c9             	movzbl %cl,%ecx
  403109:	48 01 c8             	add    %rcx,%rax
  40310c:	48 89 85 58 ff ff ff 	mov    %rax,-0xa8(%rbp)
  403113:	48 8b 75 e0          	mov    -0x20(%rbp),%rsi
  403117:	48 8b 85 60 ff ff ff 	mov    -0xa0(%rbp),%rax
  40311e:	48 8b 8d 58 ff ff ff 	mov    -0xa8(%rbp),%rcx
  403125:	48 89 8d 38 ff ff ff 	mov    %rcx,-0xc8(%rbp)
  40312c:	48 c1 e0 01          	shl    $0x1,%rax
  403130:	48 89 85 40 ff ff ff 	mov    %rax,-0xc0(%rbp)
  403137:	48 89 c7             	mov    %rax,%rdi
  40313a:	48 c1 e7 02          	shl    $0x2,%rdi
  40313e:	48 89 f2             	mov    %rsi,%rdx
  403141:	48 01 fa             	add    %rdi,%rdx
  403144:	48 89 95 48 ff ff ff 	mov    %rdx,-0xb8(%rbp)
  40314b:	48 01 f1             	add    %rsi,%rcx
  40314e:	48 39 d1             	cmp    %rdx,%rcx
  403151:	0f 96 c1             	setbe  %cl
  403154:	48 83 f8 00          	cmp    $0x0,%rax
  403158:	0f 9f c0             	setg   %al
  40315b:	88 85 57 ff ff ff    	mov    %al,-0xa9(%rbp)
  403161:	20 c8                	and    %cl,%al
  403163:	a8 01                	test   $0x1,%al
  403165:	0f 85 05 00 00 00    	jne    403170 <decodeHexWChars+0x260>
  40316b:	e9 54 01 00 00       	jmpq   4032c4 <decodeHexWChars+0x3b4>
  403170:	8a 85 6f ff ff ff    	mov    -0x91(%rbp),%al
  403176:	8a 8d 6e ff ff ff    	mov    -0x92(%rbp),%cl
  40317c:	48 8b 95 48 ff ff ff 	mov    -0xb8(%rbp),%rdx
  403183:	48 8b b5 60 ff ff ff 	mov    -0xa0(%rbp),%rsi
  40318a:	48 c1 e6 03          	shl    $0x3,%rsi
  40318e:	48 89 b5 18 ff ff ff 	mov    %rsi,-0xe8(%rbp)
  403195:	48 83 c2 ff          	add    $0xffffffffffffffff,%rdx
  403199:	48 c1 ea 03          	shr    $0x3,%rdx
  40319d:	48 89 d6             	mov    %rdx,%rsi
  4031a0:	48 81 c6 00 80 ff 7f 	add    $0x7fff8000,%rsi
  4031a7:	48 89 b5 20 ff ff ff 	mov    %rsi,-0xe0(%rbp)
  4031ae:	48 81 c2 01 80 ff 7f 	add    $0x7fff8001,%rdx
  4031b5:	48 89 95 28 ff ff ff 	mov    %rdx,-0xd8(%rbp)
  4031bc:	80 c1 ff             	add    $0xff,%cl
  4031bf:	88 8d 37 ff ff ff    	mov    %cl,-0xc9(%rbp)
  4031c5:	a8 01                	test   $0x1,%al
  4031c7:	0f 85 05 00 00 00    	jne    4031d2 <decodeHexWChars+0x2c2>
  4031cd:	e9 17 00 00 00       	jmpq   4031e9 <decodeHexWChars+0x2d9>
  4031d2:	48 8b 95 38 ff ff ff 	mov    -0xc8(%rbp),%rdx
  4031d9:	48 8b b5 18 ff ff ff 	mov    -0xe8(%rbp),%rsi
  4031e0:	48 8b 7d e0          	mov    -0x20(%rbp),%rdi
  4031e4:	e8 a7 3b 00 00       	callq  406d90 <__cocheck__reportError>
  4031e9:	48 8b 85 18 ff ff ff 	mov    -0xe8(%rbp),%rax
  4031f0:	48 83 f8 09          	cmp    $0x9,%rax
  4031f4:	0f 83 26 00 00 00    	jae    403220 <decodeHexWChars+0x310>
  4031fa:	48 8b 85 18 ff ff ff 	mov    -0xe8(%rbp),%rax
  403201:	48 83 f8 08          	cmp    $0x8,%rax
  403205:	0f 85 b9 00 00 00    	jne    4032c4 <decodeHexWChars+0x3b4>
  40320b:	48 8b 95 38 ff ff ff 	mov    -0xc8(%rbp),%rdx
  403212:	48 8b 7d e0          	mov    -0x20(%rbp),%rdi
  403216:	be 08 00 00 00       	mov    $0x8,%esi
  40321b:	e8 70 3b 00 00       	callq  406d90 <__cocheck__reportError>
  403220:	48 8b 85 70 ff ff ff 	mov    -0x90(%rbp),%rax
  403227:	8a 8d 37 ff ff ff    	mov    -0xc9(%rbp),%cl
  40322d:	0f b6 c9             	movzbl %cl,%ecx
  403230:	89 8d 10 ff ff ff    	mov    %ecx,-0xf0(%rbp)
  403236:	ba 01 00 00 00       	mov    $0x1,%edx
  40323b:	d3 e2                	shl    %cl,%edx
  40323d:	48 8b 8d 28 ff ff ff 	mov    -0xd8(%rbp),%rcx
  403244:	89 95 14 ff ff ff    	mov    %edx,-0xec(%rbp)
  40324a:	c1 e2 01             	shl    $0x1,%edx
  40324d:	48 63 d2             	movslq %edx,%rdx
  403250:	48 01 d0             	add    %rdx,%rax
  403253:	48 39 c8             	cmp    %rcx,%rax
  403256:	0f 86 27 00 00 00    	jbe    403283 <decodeHexWChars+0x373>
  40325c:	8b 8d 10 ff ff ff    	mov    -0xf0(%rbp),%ecx
  403262:	48 8b 85 28 ff ff ff 	mov    -0xd8(%rbp),%rax
  403269:	8b 95 14 ff ff ff    	mov    -0xec(%rbp),%edx
  40326f:	48 63 d2             	movslq %edx,%rdx
  403272:	48 29 d0             	sub    %rdx,%rax
  403275:	0f b6 00             	movzbl (%rax),%eax
  403278:	83 c0 ff             	add    $0xffffffff,%eax
  40327b:	39 c8                	cmp    %ecx,%eax
  40327d:	0f 84 17 00 00 00    	je     40329a <decodeHexWChars+0x38a>
  403283:	48 8b 95 38 ff ff ff 	mov    -0xc8(%rbp),%rdx
  40328a:	48 8b b5 18 ff ff ff 	mov    -0xe8(%rbp),%rsi
  403291:	48 8b 7d e0          	mov    -0x20(%rbp),%rdi
  403295:	e8 f6 3a 00 00       	callq  406d90 <__cocheck__reportError>
  40329a:	48 8b 85 20 ff ff ff 	mov    -0xe0(%rbp),%rax
  4032a1:	8a 00                	mov    (%rax),%al
  4032a3:	24 1f                	and    $0x1f,%al
  4032a5:	3c 01                	cmp    $0x1,%al
  4032a7:	0f 85 17 00 00 00    	jne    4032c4 <decodeHexWChars+0x3b4>
  4032ad:	48 8b 95 38 ff ff ff 	mov    -0xc8(%rbp),%rdx
  4032b4:	48 8b b5 18 ff ff ff 	mov    -0xe8(%rbp),%rsi
  4032bb:	48 8b 7d e0          	mov    -0x20(%rbp),%rdi
  4032bf:	e8 cc 3a 00 00       	callq  406d90 <__cocheck__reportError>
  4032c4:	48 8b 85 48 ff ff ff 	mov    -0xb8(%rbp),%rax
  4032cb:	8b 38                	mov    (%rax),%edi
  4032cd:	e8 1e e0 ff ff       	callq  4012f0 <iswxdigit@plt>
  4032d2:	89 c1                	mov    %eax,%ecx
  4032d4:	48 8b 85 60 ff ff ff 	mov    -0xa0(%rbp),%rax
  4032db:	83 f9 00             	cmp    $0x0,%ecx
  4032de:	48 89 45 b8          	mov    %rax,-0x48(%rbp)
  4032e2:	0f 84 e7 07 00 00    	je     403acf <decodeHexWChars+0xbbf>
  4032e8:	48 8b 85 70 ff ff ff 	mov    -0x90(%rbp),%rax
  4032ef:	8a 00                	mov    (%rax),%al
  4032f1:	88 85 0e ff ff ff    	mov    %al,-0xf2(%rbp)
  4032f7:	3c 00                	cmp    $0x0,%al
  4032f9:	0f 94 c0             	sete   %al
  4032fc:	88 85 0f ff ff ff    	mov    %al,-0xf1(%rbp)
  403302:	a8 01                	test   $0x1,%al
  403304:	0f 85 05 00 00 00    	jne    40330f <decodeHexWChars+0x3ff>
  40330a:	e9 23 00 00 00       	jmpq   403332 <decodeHexWChars+0x422>
  40330f:	48 8b 4d 88          	mov    -0x78(%rbp),%rcx
  403313:	48 8b 55 80          	mov    -0x80(%rbp),%rdx
  403317:	48 8b 04 25 b0 81 61 	mov    0x6181b0,%rax
  40331e:	00 
  40331f:	48 63 04 90          	movslq (%rax,%rdx,4),%rax
  403323:	48 29 c8             	sub    %rcx,%rax
  403326:	48 89 85 00 ff ff ff 	mov    %rax,-0x100(%rbp)
  40332d:	e9 82 00 00 00       	jmpq   4033b4 <decodeHexWChars+0x4a4>
  403332:	48 8b 85 78 ff ff ff 	mov    -0x88(%rbp),%rax
  403339:	8a 8d 0e ff ff ff    	mov    -0xf2(%rbp),%cl
  40333f:	80 c1 1f             	add    $0x1f,%cl
  403342:	80 e1 1f             	and    $0x1f,%cl
  403345:	0f b6 c9             	movzbl %cl,%ecx
  403348:	ba 01 00 00 00       	mov    $0x1,%edx
  40334d:	d3 e2                	shl    %cl,%edx
  40334f:	89 d1                	mov    %edx,%ecx
  403351:	48 63 c9             	movslq %ecx,%rcx
  403354:	48 01 c8             	add    %rcx,%rax
  403357:	8a 08                	mov    (%rax),%cl
  403359:	80 c1 1f             	add    $0x1f,%cl
  40335c:	80 e1 1f             	and    $0x1f,%cl
  40335f:	0f b6 c9             	movzbl %cl,%ecx
  403362:	ba ff ff ff ff       	mov    $0xffffffff,%edx
  403367:	d3 e2                	shl    %cl,%edx
  403369:	89 d1                	mov    %edx,%ecx
  40336b:	83 f1 ff             	xor    $0xffffffff,%ecx
  40336e:	89 c9                	mov    %ecx,%ecx
  403370:	48 01 c8             	add    %rcx,%rax
  403373:	8a 08                	mov    (%rax),%cl
  403375:	80 c1 1f             	add    $0x1f,%cl
  403378:	80 e1 1f             	and    $0x1f,%cl
  40337b:	0f b6 c9             	movzbl %cl,%ecx
  40337e:	ba ff ff ff ff       	mov    $0xffffffff,%edx
  403383:	d3 e2                	shl    %cl,%edx
  403385:	48 8b 8d 70 ff ff ff 	mov    -0x90(%rbp),%rcx
  40338c:	83 f2 ff             	xor    $0xffffffff,%edx
  40338f:	89 d2                	mov    %edx,%edx
  403391:	48 01 d0             	add    %rdx,%rax
  403394:	8a 10                	mov    (%rax),%dl
  403396:	80 c2 ff             	add    $0xff,%dl
  403399:	48 29 c8             	sub    %rcx,%rax
  40339c:	48 c1 e0 03          	shl    $0x3,%rax
  4033a0:	c0 ea 05             	shr    $0x5,%dl
  4033a3:	b1 08                	mov    $0x8,%cl
  4033a5:	28 d1                	sub    %dl,%cl
  4033a7:	0f b6 c9             	movzbl %cl,%ecx
  4033aa:	48 01 c8             	add    %rcx,%rax
  4033ad:	48 89 85 00 ff ff ff 	mov    %rax,-0x100(%rbp)
  4033b4:	48 8b 75 e0          	mov    -0x20(%rbp),%rsi
  4033b8:	48 8b 85 40 ff ff ff 	mov    -0xc0(%rbp),%rax
  4033bf:	48 8b 8d 00 ff ff ff 	mov    -0x100(%rbp),%rcx
  4033c6:	48 89 8d e8 fe ff ff 	mov    %rcx,-0x118(%rbp)
  4033cd:	48 83 c8 01          	or     $0x1,%rax
  4033d1:	48 89 85 f0 fe ff ff 	mov    %rax,-0x110(%rbp)
  4033d8:	48 89 c7             	mov    %rax,%rdi
  4033db:	48 c1 e7 02          	shl    $0x2,%rdi
  4033df:	48 89 f2             	mov    %rsi,%rdx
  4033e2:	48 01 fa             	add    %rdi,%rdx
  4033e5:	48 89 95 f8 fe ff ff 	mov    %rdx,-0x108(%rbp)
  4033ec:	48 01 f1             	add    %rsi,%rcx
  4033ef:	48 39 d1             	cmp    %rdx,%rcx
  4033f2:	0f 96 c1             	setbe  %cl
  4033f5:	48 83 f8 00          	cmp    $0x0,%rax
  4033f9:	0f 9f c0             	setg   %al
  4033fc:	20 c8                	and    %cl,%al
  4033fe:	a8 01                	test   $0x1,%al
  403400:	0f 85 05 00 00 00    	jne    40340b <decodeHexWChars+0x4fb>
  403406:	e9 65 01 00 00       	jmpq   403570 <decodeHexWChars+0x660>
  40340b:	8a 85 0f ff ff ff    	mov    -0xf1(%rbp),%al
  403411:	8a 8d 0e ff ff ff    	mov    -0xf2(%rbp),%cl
  403417:	48 8b 95 f8 fe ff ff 	mov    -0x108(%rbp),%rdx
  40341e:	48 8b b5 f0 fe ff ff 	mov    -0x110(%rbp),%rsi
  403425:	48 c1 e6 02          	shl    $0x2,%rsi
  403429:	48 89 b5 c8 fe ff ff 	mov    %rsi,-0x138(%rbp)
  403430:	48 83 c2 ff          	add    $0xffffffffffffffff,%rdx
  403434:	48 c1 ea 03          	shr    $0x3,%rdx
  403438:	48 89 d6             	mov    %rdx,%rsi
  40343b:	48 81 c6 00 80 ff 7f 	add    $0x7fff8000,%rsi
  403442:	48 89 b5 d0 fe ff ff 	mov    %rsi,-0x130(%rbp)
  403449:	48 81 c2 01 80 ff 7f 	add    $0x7fff8001,%rdx
  403450:	48 89 95 d8 fe ff ff 	mov    %rdx,-0x128(%rbp)
  403457:	80 c1 ff             	add    $0xff,%cl
  40345a:	88 8d e7 fe ff ff    	mov    %cl,-0x119(%rbp)
  403460:	a8 01                	test   $0x1,%al
  403462:	0f 85 05 00 00 00    	jne    40346d <decodeHexWChars+0x55d>
  403468:	e9 17 00 00 00       	jmpq   403484 <decodeHexWChars+0x574>
  40346d:	48 8b 95 e8 fe ff ff 	mov    -0x118(%rbp),%rdx
  403474:	48 8b b5 c8 fe ff ff 	mov    -0x138(%rbp),%rsi
  40347b:	48 8b 7d e0          	mov    -0x20(%rbp),%rdi
  40347f:	e8 0c 39 00 00       	callq  406d90 <__cocheck__reportError>
  403484:	48 8b 85 c8 fe ff ff 	mov    -0x138(%rbp),%rax
  40348b:	48 83 f8 09          	cmp    $0x9,%rax
  40348f:	0f 83 37 00 00 00    	jae    4034cc <decodeHexWChars+0x5bc>
  403495:	48 8b 85 c8 fe ff ff 	mov    -0x138(%rbp),%rax
  40349c:	8a 8d e7 fe ff ff    	mov    -0x119(%rbp),%cl
  4034a2:	c0 e9 05             	shr    $0x5,%cl
  4034a5:	0f b6 c9             	movzbl %cl,%ecx
  4034a8:	48 01 c8             	add    %rcx,%rax
  4034ab:	48 83 f8 07          	cmp    $0x7,%rax
  4034af:	0f 86 bb 00 00 00    	jbe    403570 <decodeHexWChars+0x660>
  4034b5:	48 8b 95 e8 fe ff ff 	mov    -0x118(%rbp),%rdx
  4034bc:	48 8b b5 c8 fe ff ff 	mov    -0x138(%rbp),%rsi
  4034c3:	48 8b 7d e0          	mov    -0x20(%rbp),%rdi
  4034c7:	e8 c4 38 00 00       	callq  406d90 <__cocheck__reportError>
  4034cc:	48 8b 85 70 ff ff ff 	mov    -0x90(%rbp),%rax
  4034d3:	8a 8d e7 fe ff ff    	mov    -0x119(%rbp),%cl
  4034d9:	0f b6 c9             	movzbl %cl,%ecx
  4034dc:	89 8d c0 fe ff ff    	mov    %ecx,-0x140(%rbp)
  4034e2:	ba 01 00 00 00       	mov    $0x1,%edx
  4034e7:	d3 e2                	shl    %cl,%edx
  4034e9:	48 8b 8d d8 fe ff ff 	mov    -0x128(%rbp),%rcx
  4034f0:	89 95 c4 fe ff ff    	mov    %edx,-0x13c(%rbp)
  4034f6:	c1 e2 01             	shl    $0x1,%edx
  4034f9:	48 63 d2             	movslq %edx,%rdx
  4034fc:	48 01 d0             	add    %rdx,%rax
  4034ff:	48 39 c8             	cmp    %rcx,%rax
  403502:	0f 86 27 00 00 00    	jbe    40352f <decodeHexWChars+0x61f>
  403508:	8b 8d c0 fe ff ff    	mov    -0x140(%rbp),%ecx
  40350e:	48 8b 85 d8 fe ff ff 	mov    -0x128(%rbp),%rax
  403515:	8b 95 c4 fe ff ff    	mov    -0x13c(%rbp),%edx
  40351b:	48 63 d2             	movslq %edx,%rdx
  40351e:	48 29 d0             	sub    %rdx,%rax
  403521:	0f b6 00             	movzbl (%rax),%eax
  403524:	83 c0 ff             	add    $0xffffffff,%eax
  403527:	39 c8                	cmp    %ecx,%eax
  403529:	0f 84 17 00 00 00    	je     403546 <decodeHexWChars+0x636>
  40352f:	48 8b 95 e8 fe ff ff 	mov    -0x118(%rbp),%rdx
  403536:	48 8b b5 c8 fe ff ff 	mov    -0x138(%rbp),%rsi
  40353d:	48 8b 7d e0          	mov    -0x20(%rbp),%rdi
  403541:	e8 4a 38 00 00       	callq  406d90 <__cocheck__reportError>
  403546:	48 8b 85 d0 fe ff ff 	mov    -0x130(%rbp),%rax
  40354d:	8a 00                	mov    (%rax),%al
  40354f:	24 9f                	and    $0x9f,%al
  403551:	3c 81                	cmp    $0x81,%al
  403553:	0f 85 17 00 00 00    	jne    403570 <decodeHexWChars+0x660>
  403559:	48 8b 95 e8 fe ff ff 	mov    -0x118(%rbp),%rdx
  403560:	48 8b b5 c8 fe ff ff 	mov    -0x138(%rbp),%rsi
  403567:	48 8b 7d e0          	mov    -0x20(%rbp),%rdi
  40356b:	e8 20 38 00 00       	callq  406d90 <__cocheck__reportError>
  403570:	48 8b 85 f8 fe ff ff 	mov    -0x108(%rbp),%rax
  403577:	8b 38                	mov    (%rax),%edi
  403579:	e8 72 dd ff ff       	callq  4012f0 <iswxdigit@plt>
  40357e:	89 c1                	mov    %eax,%ecx
  403580:	48 8b 85 60 ff ff ff 	mov    -0xa0(%rbp),%rax
  403587:	83 f9 00             	cmp    $0x0,%ecx
  40358a:	48 89 45 b8          	mov    %rax,-0x48(%rbp)
  40358e:	0f 84 3b 05 00 00    	je     403acf <decodeHexWChars+0xbbf>
  403594:	48 8b 85 70 ff ff ff 	mov    -0x90(%rbp),%rax
  40359b:	8a 00                	mov    (%rax),%al
  40359d:	88 85 be fe ff ff    	mov    %al,-0x142(%rbp)
  4035a3:	3c 00                	cmp    $0x0,%al
  4035a5:	0f 94 c0             	sete   %al
  4035a8:	88 85 bf fe ff ff    	mov    %al,-0x141(%rbp)
  4035ae:	a8 01                	test   $0x1,%al
  4035b0:	0f 85 05 00 00 00    	jne    4035bb <decodeHexWChars+0x6ab>
  4035b6:	e9 23 00 00 00       	jmpq   4035de <decodeHexWChars+0x6ce>
  4035bb:	48 8b 4d 88          	mov    -0x78(%rbp),%rcx
  4035bf:	48 8b 55 80          	mov    -0x80(%rbp),%rdx
  4035c3:	48 8b 04 25 b0 81 61 	mov    0x6181b0,%rax
  4035ca:	00 
  4035cb:	48 63 04 90          	movslq (%rax,%rdx,4),%rax
  4035cf:	48 29 c8             	sub    %rcx,%rax
  4035d2:	48 89 85 b0 fe ff ff 	mov    %rax,-0x150(%rbp)
  4035d9:	e9 82 00 00 00       	jmpq   403660 <decodeHexWChars+0x750>
  4035de:	48 8b 85 78 ff ff ff 	mov    -0x88(%rbp),%rax
  4035e5:	8a 8d be fe ff ff    	mov    -0x142(%rbp),%cl
  4035eb:	80 c1 1f             	add    $0x1f,%cl
  4035ee:	80 e1 1f             	and    $0x1f,%cl
  4035f1:	0f b6 c9             	movzbl %cl,%ecx
  4035f4:	ba 01 00 00 00       	mov    $0x1,%edx
  4035f9:	d3 e2                	shl    %cl,%edx
  4035fb:	89 d1                	mov    %edx,%ecx
  4035fd:	48 63 c9             	movslq %ecx,%rcx
  403600:	48 01 c8             	add    %rcx,%rax
  403603:	8a 08                	mov    (%rax),%cl
  403605:	80 c1 1f             	add    $0x1f,%cl
  403608:	80 e1 1f             	and    $0x1f,%cl
  40360b:	0f b6 c9             	movzbl %cl,%ecx
  40360e:	ba ff ff ff ff       	mov    $0xffffffff,%edx
  403613:	d3 e2                	shl    %cl,%edx
  403615:	89 d1                	mov    %edx,%ecx
  403617:	83 f1 ff             	xor    $0xffffffff,%ecx
  40361a:	89 c9                	mov    %ecx,%ecx
  40361c:	48 01 c8             	add    %rcx,%rax
  40361f:	8a 08                	mov    (%rax),%cl
  403621:	80 c1 1f             	add    $0x1f,%cl
  403624:	80 e1 1f             	and    $0x1f,%cl
  403627:	0f b6 c9             	movzbl %cl,%ecx
  40362a:	ba ff ff ff ff       	mov    $0xffffffff,%edx
  40362f:	d3 e2                	shl    %cl,%edx
  403631:	48 8b 8d 70 ff ff ff 	mov    -0x90(%rbp),%rcx
  403638:	83 f2 ff             	xor    $0xffffffff,%edx
  40363b:	89 d2                	mov    %edx,%edx
  40363d:	48 01 d0             	add    %rdx,%rax
  403640:	8a 10                	mov    (%rax),%dl
  403642:	80 c2 ff             	add    $0xff,%dl
  403645:	48 29 c8             	sub    %rcx,%rax
  403648:	48 c1 e0 03          	shl    $0x3,%rax
  40364c:	c0 ea 05             	shr    $0x5,%dl
  40364f:	b1 08                	mov    $0x8,%cl
  403651:	28 d1                	sub    %dl,%cl
  403653:	0f b6 c9             	movzbl %cl,%ecx
  403656:	48 01 c8             	add    %rcx,%rax
  403659:	48 89 85 b0 fe ff ff 	mov    %rax,-0x150(%rbp)
  403660:	8a 85 57 ff ff ff    	mov    -0xa9(%rbp),%al
  403666:	48 8b 95 48 ff ff ff 	mov    -0xb8(%rbp),%rdx
  40366d:	48 8b 75 e0          	mov    -0x20(%rbp),%rsi
  403671:	48 8b 8d b0 fe ff ff 	mov    -0x150(%rbp),%rcx
  403678:	48 89 8d a8 fe ff ff 	mov    %rcx,-0x158(%rbp)
  40367f:	48 01 f1             	add    %rsi,%rcx
  403682:	48 39 d1             	cmp    %rdx,%rcx
  403685:	0f 96 c1             	setbe  %cl
  403688:	20 c8                	and    %cl,%al
  40368a:	a8 01                	test   $0x1,%al
  40368c:	0f 85 05 00 00 00    	jne    403697 <decodeHexWChars+0x787>
  403692:	e9 54 01 00 00       	jmpq   4037eb <decodeHexWChars+0x8db>
  403697:	8a 85 bf fe ff ff    	mov    -0x141(%rbp),%al
  40369d:	8a 8d be fe ff ff    	mov    -0x142(%rbp),%cl
  4036a3:	48 8b 95 48 ff ff ff 	mov    -0xb8(%rbp),%rdx
  4036aa:	48 8b b5 60 ff ff ff 	mov    -0xa0(%rbp),%rsi
  4036b1:	48 c1 e6 03          	shl    $0x3,%rsi
  4036b5:	48 89 b5 88 fe ff ff 	mov    %rsi,-0x178(%rbp)
  4036bc:	48 83 c2 ff          	add    $0xffffffffffffffff,%rdx
  4036c0:	48 c1 ea 03          	shr    $0x3,%rdx
  4036c4:	48 89 d6             	mov    %rdx,%rsi
  4036c7:	48 81 c6 00 80 ff 7f 	add    $0x7fff8000,%rsi
  4036ce:	48 89 b5 90 fe ff ff 	mov    %rsi,-0x170(%rbp)
  4036d5:	48 81 c2 01 80 ff 7f 	add    $0x7fff8001,%rdx
  4036dc:	48 89 95 98 fe ff ff 	mov    %rdx,-0x168(%rbp)
  4036e3:	80 c1 ff             	add    $0xff,%cl
  4036e6:	88 8d a7 fe ff ff    	mov    %cl,-0x159(%rbp)
  4036ec:	a8 01                	test   $0x1,%al
  4036ee:	0f 85 05 00 00 00    	jne    4036f9 <decodeHexWChars+0x7e9>
  4036f4:	e9 17 00 00 00       	jmpq   403710 <decodeHexWChars+0x800>
  4036f9:	48 8b 95 a8 fe ff ff 	mov    -0x158(%rbp),%rdx
  403700:	48 8b b5 88 fe ff ff 	mov    -0x178(%rbp),%rsi
  403707:	48 8b 7d e0          	mov    -0x20(%rbp),%rdi
  40370b:	e8 80 36 00 00       	callq  406d90 <__cocheck__reportError>
  403710:	48 8b 85 88 fe ff ff 	mov    -0x178(%rbp),%rax
  403717:	48 83 f8 09          	cmp    $0x9,%rax
  40371b:	0f 83 26 00 00 00    	jae    403747 <decodeHexWChars+0x837>
  403721:	48 8b 85 88 fe ff ff 	mov    -0x178(%rbp),%rax
  403728:	48 83 f8 08          	cmp    $0x8,%rax
  40372c:	0f 85 b9 00 00 00    	jne    4037eb <decodeHexWChars+0x8db>
  403732:	48 8b 95 a8 fe ff ff 	mov    -0x158(%rbp),%rdx
  403739:	48 8b 7d e0          	mov    -0x20(%rbp),%rdi
  40373d:	be 08 00 00 00       	mov    $0x8,%esi
  403742:	e8 49 36 00 00       	callq  406d90 <__cocheck__reportError>
  403747:	48 8b 85 70 ff ff ff 	mov    -0x90(%rbp),%rax
  40374e:	8a 8d a7 fe ff ff    	mov    -0x159(%rbp),%cl
  403754:	0f b6 c9             	movzbl %cl,%ecx
  403757:	89 8d 80 fe ff ff    	mov    %ecx,-0x180(%rbp)
  40375d:	ba 01 00 00 00       	mov    $0x1,%edx
  403762:	d3 e2                	shl    %cl,%edx
  403764:	48 8b 8d 98 fe ff ff 	mov    -0x168(%rbp),%rcx
  40376b:	89 95 84 fe ff ff    	mov    %edx,-0x17c(%rbp)
  403771:	c1 e2 01             	shl    $0x1,%edx
  403774:	48 63 d2             	movslq %edx,%rdx
  403777:	48 01 d0             	add    %rdx,%rax
  40377a:	48 39 c8             	cmp    %rcx,%rax
  40377d:	0f 86 27 00 00 00    	jbe    4037aa <decodeHexWChars+0x89a>
  403783:	8b 8d 80 fe ff ff    	mov    -0x180(%rbp),%ecx
  403789:	48 8b 85 98 fe ff ff 	mov    -0x168(%rbp),%rax
  403790:	8b 95 84 fe ff ff    	mov    -0x17c(%rbp),%edx
  403796:	48 63 d2             	movslq %edx,%rdx
  403799:	48 29 d0             	sub    %rdx,%rax
  40379c:	0f b6 00             	movzbl (%rax),%eax
  40379f:	83 c0 ff             	add    $0xffffffff,%eax
  4037a2:	39 c8                	cmp    %ecx,%eax
  4037a4:	0f 84 17 00 00 00    	je     4037c1 <decodeHexWChars+0x8b1>
  4037aa:	48 8b 95 a8 fe ff ff 	mov    -0x158(%rbp),%rdx
  4037b1:	48 8b b5 88 fe ff ff 	mov    -0x178(%rbp),%rsi
  4037b8:	48 8b 7d e0          	mov    -0x20(%rbp),%rdi
  4037bc:	e8 cf 35 00 00       	callq  406d90 <__cocheck__reportError>
  4037c1:	48 8b 85 90 fe ff ff 	mov    -0x170(%rbp),%rax
  4037c8:	8a 00                	mov    (%rax),%al
  4037ca:	24 1f                	and    $0x1f,%al
  4037cc:	3c 01                	cmp    $0x1,%al
  4037ce:	0f 85 17 00 00 00    	jne    4037eb <decodeHexWChars+0x8db>
  4037d4:	48 8b 95 a8 fe ff ff 	mov    -0x158(%rbp),%rdx
  4037db:	48 8b b5 88 fe ff ff 	mov    -0x178(%rbp),%rsi
  4037e2:	48 8b 7d e0          	mov    -0x20(%rbp),%rdi
  4037e6:	e8 a5 35 00 00       	callq  406d90 <__cocheck__reportError>
  4037eb:	48 8b bd 48 ff ff ff 	mov    -0xb8(%rbp),%rdi
  4037f2:	48 be d0 4a 41 00 00 	movabs $0x414ad0,%rsi
  4037f9:	00 00 00 
  4037fc:	48 8d 55 f8          	lea    -0x8(%rbp),%rdx
  403800:	b0 00                	mov    $0x0,%al
  403802:	e8 b9 d8 ff ff       	callq  4010c0 <__isoc99_swscanf@plt>
  403807:	48 8b 45 90          	mov    -0x70(%rbp),%rax
  40380b:	8b 4d f8             	mov    -0x8(%rbp),%ecx
  40380e:	88 8d 7d fe ff ff    	mov    %cl,-0x183(%rbp)
  403814:	8a 00                	mov    (%rax),%al
  403816:	88 85 7e fe ff ff    	mov    %al,-0x182(%rbp)
  40381c:	3c 00                	cmp    $0x0,%al
  40381e:	0f 94 c0             	sete   %al
  403821:	88 85 7f fe ff ff    	mov    %al,-0x181(%rbp)
  403827:	a8 01                	test   $0x1,%al
  403829:	0f 85 05 00 00 00    	jne    403834 <decodeHexWChars+0x924>
  40382f:	e9 23 00 00 00       	jmpq   403857 <decodeHexWChars+0x947>
  403834:	48 8b 4d a8          	mov    -0x58(%rbp),%rcx
  403838:	48 8b 55 a0          	mov    -0x60(%rbp),%rdx
  40383c:	48 8b 04 25 b0 81 61 	mov    0x6181b0,%rax
  403843:	00 
  403844:	48 63 04 90          	movslq (%rax,%rdx,4),%rax
  403848:	48 29 c8             	sub    %rcx,%rax
  40384b:	48 89 85 70 fe ff ff 	mov    %rax,-0x190(%rbp)
  403852:	e9 7c 00 00 00       	jmpq   4038d3 <decodeHexWChars+0x9c3>
  403857:	48 8b 45 98          	mov    -0x68(%rbp),%rax
  40385b:	8a 8d 7e fe ff ff    	mov    -0x182(%rbp),%cl
  403861:	80 c1 1f             	add    $0x1f,%cl
  403864:	80 e1 1f             	and    $0x1f,%cl
  403867:	0f b6 c9             	movzbl %cl,%ecx
  40386a:	ba 01 00 00 00       	mov    $0x1,%edx
  40386f:	d3 e2                	shl    %cl,%edx
  403871:	89 d1                	mov    %edx,%ecx
  403873:	48 63 c9             	movslq %ecx,%rcx
  403876:	48 01 c8             	add    %rcx,%rax
  403879:	8a 08                	mov    (%rax),%cl
  40387b:	80 c1 1f             	add    $0x1f,%cl
  40387e:	80 e1 1f             	and    $0x1f,%cl
  403881:	0f b6 c9             	movzbl %cl,%ecx
  403884:	ba ff ff ff ff       	mov    $0xffffffff,%edx
  403889:	d3 e2                	shl    %cl,%edx
  40388b:	89 d1                	mov    %edx,%ecx
  40388d:	83 f1 ff             	xor    $0xffffffff,%ecx
  403890:	89 c9                	mov    %ecx,%ecx
  403892:	48 01 c8             	add    %rcx,%rax
  403895:	8a 08                	mov    (%rax),%cl
  403897:	80 c1 1f             	add    $0x1f,%cl
  40389a:	80 e1 1f             	and    $0x1f,%cl
  40389d:	0f b6 c9             	movzbl %cl,%ecx
  4038a0:	ba ff ff ff ff       	mov    $0xffffffff,%edx
  4038a5:	d3 e2                	shl    %cl,%edx
  4038a7:	48 8b 4d 90          	mov    -0x70(%rbp),%rcx
  4038ab:	83 f2 ff             	xor    $0xffffffff,%edx
  4038ae:	89 d2                	mov    %edx,%edx
  4038b0:	48 01 d0             	add    %rdx,%rax
  4038b3:	8a 10                	mov    (%rax),%dl
  4038b5:	80 c2 ff             	add    $0xff,%dl
  4038b8:	48 29 c8             	sub    %rcx,%rax
  4038bb:	48 c1 e0 03          	shl    $0x3,%rax
  4038bf:	c0 ea 05             	shr    $0x5,%dl
  4038c2:	b1 08                	mov    $0x8,%cl
  4038c4:	28 d1                	sub    %dl,%cl
  4038c6:	0f b6 c9             	movzbl %cl,%ecx
  4038c9:	48 01 c8             	add    %rcx,%rax
  4038cc:	48 89 85 70 fe ff ff 	mov    %rax,-0x190(%rbp)
  4038d3:	48 8b 85 60 ff ff ff 	mov    -0xa0(%rbp),%rax
  4038da:	48 8b 75 d0          	mov    -0x30(%rbp),%rsi
  4038de:	48 8b 8d 70 fe ff ff 	mov    -0x190(%rbp),%rcx
  4038e5:	48 89 8d 60 fe ff ff 	mov    %rcx,-0x1a0(%rbp)
  4038ec:	48 89 f2             	mov    %rsi,%rdx
  4038ef:	48 01 c2             	add    %rax,%rdx
  4038f2:	48 89 95 68 fe ff ff 	mov    %rdx,-0x198(%rbp)
  4038f9:	48 01 f1             	add    %rsi,%rcx
  4038fc:	48 39 d1             	cmp    %rdx,%rcx
  4038ff:	0f 96 c1             	setbe  %cl
  403902:	48 83 f8 00          	cmp    $0x0,%rax
  403906:	0f 9f c0             	setg   %al
  403909:	20 c8                	and    %cl,%al
  40390b:	a8 01                	test   $0x1,%al
  40390d:	0f 85 05 00 00 00    	jne    403918 <decodeHexWChars+0xa08>
  403913:	e9 86 01 00 00       	jmpq   403a9e <decodeHexWChars+0xb8e>
  403918:	8a 85 7f fe ff ff    	mov    -0x181(%rbp),%al
  40391e:	8a 8d 7e fe ff ff    	mov    -0x182(%rbp),%cl
  403924:	48 8b 95 68 fe ff ff 	mov    -0x198(%rbp),%rdx
  40392b:	48 83 c2 ff          	add    $0xffffffffffffffff,%rdx
  40392f:	48 c1 ea 03          	shr    $0x3,%rdx
  403933:	48 89 d6             	mov    %rdx,%rsi
  403936:	48 81 c6 00 80 ff 7f 	add    $0x7fff8000,%rsi
  40393d:	48 89 b5 48 fe ff ff 	mov    %rsi,-0x1b8(%rbp)
  403944:	48 81 c2 01 80 ff 7f 	add    $0x7fff8001,%rdx
  40394b:	48 89 95 50 fe ff ff 	mov    %rdx,-0x1b0(%rbp)
  403952:	80 c1 ff             	add    $0xff,%cl
  403955:	88 8d 5f fe ff ff    	mov    %cl,-0x1a1(%rbp)
  40395b:	a8 01                	test   $0x1,%al
  40395d:	0f 85 05 00 00 00    	jne    403968 <decodeHexWChars+0xa58>
  403963:	e9 17 00 00 00       	jmpq   40397f <decodeHexWChars+0xa6f>
  403968:	48 8b 95 60 fe ff ff 	mov    -0x1a0(%rbp),%rdx
  40396f:	48 8b b5 60 ff ff ff 	mov    -0xa0(%rbp),%rsi
  403976:	48 8b 7d d0          	mov    -0x30(%rbp),%rdi
  40397a:	e8 11 34 00 00       	callq  406d90 <__cocheck__reportError>
  40397f:	48 8b 85 60 ff ff ff 	mov    -0xa0(%rbp),%rax
  403986:	48 83 f8 09          	cmp    $0x9,%rax
  40398a:	0f 83 37 00 00 00    	jae    4039c7 <decodeHexWChars+0xab7>
  403990:	48 8b 85 60 ff ff ff 	mov    -0xa0(%rbp),%rax
  403997:	8a 8d 5f fe ff ff    	mov    -0x1a1(%rbp),%cl
  40399d:	c0 e9 05             	shr    $0x5,%cl
  4039a0:	0f b6 c9             	movzbl %cl,%ecx
  4039a3:	48 01 c8             	add    %rcx,%rax
  4039a6:	48 83 f8 07          	cmp    $0x7,%rax
  4039aa:	0f 86 ee 00 00 00    	jbe    403a9e <decodeHexWChars+0xb8e>
  4039b0:	48 8b 95 60 fe ff ff 	mov    -0x1a0(%rbp),%rdx
  4039b7:	48 8b b5 60 ff ff ff 	mov    -0xa0(%rbp),%rsi
  4039be:	48 8b 7d d0          	mov    -0x30(%rbp),%rdi
  4039c2:	e8 c9 33 00 00       	callq  406d90 <__cocheck__reportError>
  4039c7:	48 8b 45 90          	mov    -0x70(%rbp),%rax
  4039cb:	8a 8d 5f fe ff ff    	mov    -0x1a1(%rbp),%cl
  4039d1:	0f b6 c9             	movzbl %cl,%ecx
  4039d4:	89 8d 40 fe ff ff    	mov    %ecx,-0x1c0(%rbp)
  4039da:	ba 01 00 00 00       	mov    $0x1,%edx
  4039df:	d3 e2                	shl    %cl,%edx
  4039e1:	48 8b 8d 50 fe ff ff 	mov    -0x1b0(%rbp),%rcx
  4039e8:	89 95 44 fe ff ff    	mov    %edx,-0x1bc(%rbp)
  4039ee:	c1 e2 01             	shl    $0x1,%edx
  4039f1:	48 63 d2             	movslq %edx,%rdx
  4039f4:	48 01 d0             	add    %rdx,%rax
  4039f7:	48 39 c8             	cmp    %rcx,%rax
  4039fa:	0f 86 27 00 00 00    	jbe    403a27 <decodeHexWChars+0xb17>
  403a00:	8b 8d 40 fe ff ff    	mov    -0x1c0(%rbp),%ecx
  403a06:	48 8b 85 50 fe ff ff 	mov    -0x1b0(%rbp),%rax
  403a0d:	8b 95 44 fe ff ff    	mov    -0x1bc(%rbp),%edx
  403a13:	48 63 d2             	movslq %edx,%rdx
  403a16:	48 29 d0             	sub    %rdx,%rax
  403a19:	0f b6 00             	movzbl (%rax),%eax
  403a1c:	83 c0 ff             	add    $0xffffffff,%eax
  403a1f:	39 c8                	cmp    %ecx,%eax
  403a21:	0f 84 17 00 00 00    	je     403a3e <decodeHexWChars+0xb2e>
  403a27:	48 8b 95 60 fe ff ff 	mov    -0x1a0(%rbp),%rdx
  403a2e:	48 8b b5 60 ff ff ff 	mov    -0xa0(%rbp),%rsi
  403a35:	48 8b 7d d0          	mov    -0x30(%rbp),%rdi
  403a39:	e8 52 33 00 00       	callq  406d90 <__cocheck__reportError>
  403a3e:	48 8b 85 48 fe ff ff 	mov    -0x1b8(%rbp),%rax
  403a45:	8a 00                	mov    (%rax),%al
  403a47:	0f b6 c0             	movzbl %al,%eax
  403a4a:	89 85 3c fe ff ff    	mov    %eax,-0x1c4(%rbp)
  403a50:	83 e0 1f             	and    $0x1f,%eax
  403a53:	83 f8 01             	cmp    $0x1,%eax
  403a56:	0f 85 42 00 00 00    	jne    403a9e <decodeHexWChars+0xb8e>
  403a5c:	8b 8d 3c fe ff ff    	mov    -0x1c4(%rbp),%ecx
  403a62:	48 8b 85 60 ff ff ff 	mov    -0xa0(%rbp),%rax
  403a69:	48 83 c0 07          	add    $0x7,%rax
  403a6d:	48 83 e0 07          	and    $0x7,%rax
  403a71:	48 83 c0 01          	add    $0x1,%rax
  403a75:	c1 e9 05             	shr    $0x5,%ecx
  403a78:	89 c9                	mov    %ecx,%ecx
  403a7a:	48 01 c8             	add    %rcx,%rax
  403a7d:	48 83 f8 07          	cmp    $0x7,%rax
  403a81:	0f 86 17 00 00 00    	jbe    403a9e <decodeHexWChars+0xb8e>
  403a87:	48 8b 95 60 fe ff ff 	mov    -0x1a0(%rbp),%rdx
  403a8e:	48 8b b5 60 ff ff ff 	mov    -0xa0(%rbp),%rsi
  403a95:	48 8b 7d d0          	mov    -0x30(%rbp),%rdi
  403a99:	e8 f2 32 00 00       	callq  406d90 <__cocheck__reportError>
  403a9e:	48 8b 45 d8          	mov    -0x28(%rbp),%rax
  403aa2:	48 8b 8d 60 ff ff ff 	mov    -0xa0(%rbp),%rcx
  403aa9:	48 8b 95 68 fe ff ff 	mov    -0x198(%rbp),%rdx
  403ab0:	40 8a b5 7d fe ff ff 	mov    -0x183(%rbp),%sil
  403ab7:	40 88 32             	mov    %sil,(%rdx)
  403aba:	48 83 c1 01          	add    $0x1,%rcx
  403abe:	48 39 c1             	cmp    %rax,%rcx
  403ac1:	48 89 4d b0          	mov    %rcx,-0x50(%rbp)
  403ac5:	48 89 45 b8          	mov    %rax,-0x48(%rbp)
  403ac9:	0f 85 6d f5 ff ff    	jne    40303c <decodeHexWChars+0x12c>
  403acf:	48 8b 45 b8          	mov    -0x48(%rbp),%rax
  403ad3:	48 81 c4 d0 01 00 00 	add    $0x1d0,%rsp
  403ada:	5d                   	pop    %rbp
  403adb:	c3                   	retq   
  403adc:	0f 1f 40 00          	nopl   0x0(%rax)

0000000000403ae0 <globalReturnsTrue>:
  403ae0:	55                   	push   %rbp
  403ae1:	48 89 e5             	mov    %rsp,%rbp
  403ae4:	b8 01 00 00 00       	mov    $0x1,%eax
  403ae9:	5d                   	pop    %rbp
  403aea:	c3                   	retq   
  403aeb:	0f 1f 44 00 00       	nopl   0x0(%rax,%rax,1)

0000000000403af0 <globalReturnsFalse>:
  403af0:	55                   	push   %rbp
  403af1:	48 89 e5             	mov    %rsp,%rbp
  403af4:	31 c0                	xor    %eax,%eax
  403af6:	5d                   	pop    %rbp
  403af7:	c3                   	retq   
  403af8:	0f 1f 84 00 00 00 00 	nopl   0x0(%rax,%rax,1)
  403aff:	00 

0000000000403b00 <globalReturnsTrueOrFalse>:
  403b00:	55                   	push   %rbp
  403b01:	48 89 e5             	mov    %rsp,%rbp
  403b04:	48 83 ec 10          	sub    $0x10,%rsp
  403b08:	48 bf 98 4a 41 00 00 	movabs $0x414a98,%rdi
  403b0f:	00 00 00 
  403b12:	e8 09 d7 ff ff       	callq  401220 <getenv@plt>
  403b17:	ba 01 00 00 00       	mov    $0x1,%edx
  403b1c:	48 83 f8 00          	cmp    $0x0,%rax
  403b20:	89 55 fc             	mov    %edx,-0x4(%rbp)
  403b23:	0f 85 2e 00 00 00    	jne    403b57 <globalReturnsTrueOrFalse+0x57>
  403b29:	48 bf a8 4a 41 00 00 	movabs $0x414aa8,%rdi
  403b30:	00 00 00 
  403b33:	e8 e8 d6 ff ff       	callq  401220 <getenv@plt>
  403b38:	31 d2                	xor    %edx,%edx
  403b3a:	48 83 f8 00          	cmp    $0x0,%rax
  403b3e:	89 55 fc             	mov    %edx,-0x4(%rbp)
  403b41:	0f 85 10 00 00 00    	jne    403b57 <globalReturnsTrueOrFalse+0x57>
  403b47:	e8 34 d5 ff ff       	callq  401080 <rand@plt>
  403b4c:	b9 02 00 00 00       	mov    $0x2,%ecx
  403b51:	99                   	cltd   
  403b52:	f7 f9                	idiv   %ecx
  403b54:	89 55 fc             	mov    %edx,-0x4(%rbp)
  403b57:	8b 45 fc             	mov    -0x4(%rbp),%eax
  403b5a:	48 83 c4 10          	add    $0x10,%rsp
  403b5e:	5d                   	pop    %rbp
  403b5f:	c3                   	retq   

0000000000403b60 <good1>:
  403b60:	55                   	push   %rbp
  403b61:	48 89 e5             	mov    %rsp,%rbp
  403b64:	5d                   	pop    %rbp
  403b65:	c3                   	retq   
  403b66:	66 2e 0f 1f 84 00 00 	nopw   %cs:0x0(%rax,%rax,1)
  403b6d:	00 00 00 

0000000000403b70 <good2>:
  403b70:	55                   	push   %rbp
  403b71:	48 89 e5             	mov    %rsp,%rbp
  403b74:	5d                   	pop    %rbp
  403b75:	c3                   	retq   
  403b76:	66 2e 0f 1f 84 00 00 	nopw   %cs:0x0(%rax,%rax,1)
  403b7d:	00 00 00 

0000000000403b80 <good3>:
  403b80:	55                   	push   %rbp
  403b81:	48 89 e5             	mov    %rsp,%rbp
  403b84:	5d                   	pop    %rbp
  403b85:	c3                   	retq   
  403b86:	66 2e 0f 1f 84 00 00 	nopw   %cs:0x0(%rax,%rax,1)
  403b8d:	00 00 00 

0000000000403b90 <good4>:
  403b90:	55                   	push   %rbp
  403b91:	48 89 e5             	mov    %rsp,%rbp
  403b94:	5d                   	pop    %rbp
  403b95:	c3                   	retq   
  403b96:	66 2e 0f 1f 84 00 00 	nopw   %cs:0x0(%rax,%rax,1)
  403b9d:	00 00 00 

0000000000403ba0 <good5>:
  403ba0:	55                   	push   %rbp
  403ba1:	48 89 e5             	mov    %rsp,%rbp
  403ba4:	5d                   	pop    %rbp
  403ba5:	c3                   	retq   
  403ba6:	66 2e 0f 1f 84 00 00 	nopw   %cs:0x0(%rax,%rax,1)
  403bad:	00 00 00 

0000000000403bb0 <good6>:
  403bb0:	55                   	push   %rbp
  403bb1:	48 89 e5             	mov    %rsp,%rbp
  403bb4:	5d                   	pop    %rbp
  403bb5:	c3                   	retq   
  403bb6:	66 2e 0f 1f 84 00 00 	nopw   %cs:0x0(%rax,%rax,1)
  403bbd:	00 00 00 

0000000000403bc0 <good7>:
  403bc0:	55                   	push   %rbp
  403bc1:	48 89 e5             	mov    %rsp,%rbp
  403bc4:	5d                   	pop    %rbp
  403bc5:	c3                   	retq   
  403bc6:	66 2e 0f 1f 84 00 00 	nopw   %cs:0x0(%rax,%rax,1)
  403bcd:	00 00 00 

0000000000403bd0 <good8>:
  403bd0:	55                   	push   %rbp
  403bd1:	48 89 e5             	mov    %rsp,%rbp
  403bd4:	5d                   	pop    %rbp
  403bd5:	c3                   	retq   
  403bd6:	66 2e 0f 1f 84 00 00 	nopw   %cs:0x0(%rax,%rax,1)
  403bdd:	00 00 00 

0000000000403be0 <good9>:
  403be0:	55                   	push   %rbp
  403be1:	48 89 e5             	mov    %rsp,%rbp
  403be4:	5d                   	pop    %rbp
  403be5:	c3                   	retq   
  403be6:	66 2e 0f 1f 84 00 00 	nopw   %cs:0x0(%rax,%rax,1)
  403bed:	00 00 00 

0000000000403bf0 <bad1>:
  403bf0:	55                   	push   %rbp
  403bf1:	48 89 e5             	mov    %rsp,%rbp
  403bf4:	5d                   	pop    %rbp
  403bf5:	c3                   	retq   
  403bf6:	66 2e 0f 1f 84 00 00 	nopw   %cs:0x0(%rax,%rax,1)
  403bfd:	00 00 00 

0000000000403c00 <bad2>:
  403c00:	55                   	push   %rbp
  403c01:	48 89 e5             	mov    %rsp,%rbp
  403c04:	5d                   	pop    %rbp
  403c05:	c3                   	retq   
  403c06:	66 2e 0f 1f 84 00 00 	nopw   %cs:0x0(%rax,%rax,1)
  403c0d:	00 00 00 

0000000000403c10 <bad3>:
  403c10:	55                   	push   %rbp
  403c11:	48 89 e5             	mov    %rsp,%rbp
  403c14:	5d                   	pop    %rbp
  403c15:	c3                   	retq   
  403c16:	66 2e 0f 1f 84 00 00 	nopw   %cs:0x0(%rax,%rax,1)
  403c1d:	00 00 00 

0000000000403c20 <bad4>:
  403c20:	55                   	push   %rbp
  403c21:	48 89 e5             	mov    %rsp,%rbp
  403c24:	5d                   	pop    %rbp
  403c25:	c3                   	retq   
  403c26:	66 2e 0f 1f 84 00 00 	nopw   %cs:0x0(%rax,%rax,1)
  403c2d:	00 00 00 

0000000000403c30 <bad5>:
  403c30:	55                   	push   %rbp
  403c31:	48 89 e5             	mov    %rsp,%rbp
  403c34:	5d                   	pop    %rbp
  403c35:	c3                   	retq   
  403c36:	66 2e 0f 1f 84 00 00 	nopw   %cs:0x0(%rax,%rax,1)
  403c3d:	00 00 00 

0000000000403c40 <bad6>:
  403c40:	55                   	push   %rbp
  403c41:	48 89 e5             	mov    %rsp,%rbp
  403c44:	5d                   	pop    %rbp
  403c45:	c3                   	retq   
  403c46:	66 2e 0f 1f 84 00 00 	nopw   %cs:0x0(%rax,%rax,1)
  403c4d:	00 00 00 

0000000000403c50 <bad7>:
  403c50:	55                   	push   %rbp
  403c51:	48 89 e5             	mov    %rsp,%rbp
  403c54:	5d                   	pop    %rbp
  403c55:	c3                   	retq   
  403c56:	66 2e 0f 1f 84 00 00 	nopw   %cs:0x0(%rax,%rax,1)
  403c5d:	00 00 00 

0000000000403c60 <bad8>:
  403c60:	55                   	push   %rbp
  403c61:	48 89 e5             	mov    %rsp,%rbp
  403c64:	5d                   	pop    %rbp
  403c65:	c3                   	retq   
  403c66:	66 2e 0f 1f 84 00 00 	nopw   %cs:0x0(%rax,%rax,1)
  403c6d:	00 00 00 

0000000000403c70 <bad9>:
  403c70:	55                   	push   %rbp
  403c71:	48 89 e5             	mov    %rsp,%rbp
  403c74:	5d                   	pop    %rbp
  403c75:	c3                   	retq   
  403c76:	66 2e 0f 1f 84 00 00 	nopw   %cs:0x0(%rax,%rax,1)
  403c7d:	00 00 00 

0000000000403c80 <asan.module_ctor>:
  403c80:	48 83 ec 28          	sub    $0x28,%rsp
  403c84:	e8 47 8b 00 00       	callq  40c7d0 <__cocheck__globalInit>
  403c89:	bf 30 4a 41 00       	mov    $0x414a30,%edi
  403c8e:	be 04 00 00 00       	mov    $0x4,%esi
  403c93:	48 89 74 24 18       	mov    %rsi,0x18(%rsp)
  403c98:	e8 43 8b 00 00       	callq  40c7e0 <__cocheck__globalRegister>
  403c9d:	bf b8 4a 41 00       	mov    $0x414ab8,%edi
  403ca2:	be 14 00 00 00       	mov    $0x14,%esi
  403ca7:	48 89 74 24 10       	mov    %rsi,0x10(%rsp)
  403cac:	e8 2f 8b 00 00       	callq  40c7e0 <__cocheck__globalRegister>
  403cb1:	48 8b 74 24 18       	mov    0x18(%rsp),%rsi
  403cb6:	bf 38 4a 41 00       	mov    $0x414a38,%edi
  403cbb:	e8 20 8b 00 00       	callq  40c7e0 <__cocheck__globalRegister>
  403cc0:	bf 40 4a 41 00       	mov    $0x414a40,%edi
  403cc5:	be 05 00 00 00       	mov    $0x5,%esi
  403cca:	48 89 74 24 08       	mov    %rsi,0x8(%rsp)
  403ccf:	e8 0c 8b 00 00       	callq  40c7e0 <__cocheck__globalRegister>
  403cd4:	48 8b 74 24 18       	mov    0x18(%rsp),%rsi
  403cd9:	bf 48 4a 41 00       	mov    $0x414a48,%edi
  403cde:	e8 fd 8a 00 00       	callq  40c7e0 <__cocheck__globalRegister>
  403ce3:	48 8b 74 24 08       	mov    0x8(%rsp),%rsi
  403ce8:	bf 50 4a 41 00       	mov    $0x414a50,%edi
  403ced:	e8 ee 8a 00 00       	callq  40c7e0 <__cocheck__globalRegister>
  403cf2:	48 8b 74 24 08       	mov    0x8(%rsp),%rsi
  403cf7:	bf 58 4a 41 00       	mov    $0x414a58,%edi
  403cfc:	e8 df 8a 00 00       	callq  40c7e0 <__cocheck__globalRegister>
  403d01:	bf 60 4a 41 00       	mov    $0x414a60,%edi
  403d06:	be 06 00 00 00       	mov    $0x6,%esi
  403d0b:	e8 d0 8a 00 00       	callq  40c7e0 <__cocheck__globalRegister>
  403d10:	48 8b 74 24 08       	mov    0x8(%rsp),%rsi
  403d15:	bf 68 4a 41 00       	mov    $0x414a68,%edi
  403d1a:	e8 c1 8a 00 00       	callq  40c7e0 <__cocheck__globalRegister>
  403d1f:	48 8b 74 24 18       	mov    0x18(%rsp),%rsi
  403d24:	bf 70 4a 41 00       	mov    $0x414a70,%edi
  403d29:	e8 b2 8a 00 00       	callq  40c7e0 <__cocheck__globalRegister>
  403d2e:	48 8b 74 24 18       	mov    0x18(%rsp),%rsi
  403d33:	bf 78 4a 41 00       	mov    $0x414a78,%edi
  403d38:	e8 a3 8a 00 00       	callq  40c7e0 <__cocheck__globalRegister>
  403d3d:	bf 80 4a 41 00       	mov    $0x414a80,%edi
  403d42:	be 0a 00 00 00       	mov    $0xa,%esi
  403d47:	e8 94 8a 00 00       	callq  40c7e0 <__cocheck__globalRegister>
  403d4c:	48 8b 74 24 08       	mov    0x8(%rsp),%rsi
  403d51:	bf 90 4a 41 00       	mov    $0x414a90,%edi
  403d56:	e8 85 8a 00 00       	callq  40c7e0 <__cocheck__globalRegister>
  403d5b:	bf 80 49 41 00       	mov    $0x414980,%edi
  403d60:	be 01 00 00 00       	mov    $0x1,%esi
  403d65:	e8 76 8a 00 00       	callq  40c7e0 <__cocheck__globalRegister>
  403d6a:	48 8b 74 24 10       	mov    0x10(%rsp),%rsi
  403d6f:	bf d0 4a 41 00       	mov    $0x414ad0,%edi
  403d74:	e8 67 8a 00 00       	callq  40c7e0 <__cocheck__globalRegister>
  403d79:	bf 98 4a 41 00       	mov    $0x414a98,%edi
  403d7e:	be 0b 00 00 00       	mov    $0xb,%esi
  403d83:	e8 58 8a 00 00       	callq  40c7e0 <__cocheck__globalRegister>
  403d88:	bf a8 4a 41 00       	mov    $0x414aa8,%edi
  403d8d:	be 0c 00 00 00       	mov    $0xc,%esi
  403d92:	e8 49 8a 00 00       	callq  40c7e0 <__cocheck__globalRegister>
  403d97:	48 8b 74 24 18       	mov    0x18(%rsp),%rsi
  403d9c:	bf 18 4a 41 00       	mov    $0x414a18,%edi
  403da1:	e8 3a 8a 00 00       	callq  40c7e0 <__cocheck__globalRegister>
  403da6:	48 8b 74 24 18       	mov    0x18(%rsp),%rsi
  403dab:	bf 20 4a 41 00       	mov    $0x414a20,%edi
  403db0:	e8 2b 8a 00 00       	callq  40c7e0 <__cocheck__globalRegister>
  403db5:	48 8b 74 24 18       	mov    0x18(%rsp),%rsi
  403dba:	bf 28 4a 41 00       	mov    $0x414a28,%edi
  403dbf:	e8 1c 8a 00 00       	callq  40c7e0 <__cocheck__globalRegister>
  403dc4:	48 8b 74 24 18       	mov    0x18(%rsp),%rsi
  403dc9:	bf a0 81 61 00       	mov    $0x6181a0,%edi
  403dce:	e8 0d 8a 00 00       	callq  40c7e0 <__cocheck__globalRegister>
  403dd3:	48 8b 74 24 18       	mov    0x18(%rsp),%rsi
  403dd8:	bf 98 84 61 00       	mov    $0x618498,%edi
  403ddd:	e8 fe 89 00 00       	callq  40c7e0 <__cocheck__globalRegister>
  403de2:	48 8b 74 24 18       	mov    0x18(%rsp),%rsi
  403de7:	bf a8 81 61 00       	mov    $0x6181a8,%edi
  403dec:	e8 ef 89 00 00       	callq  40c7e0 <__cocheck__globalRegister>
  403df1:	48 8b 74 24 18       	mov    0x18(%rsp),%rsi
  403df6:	bf a0 84 61 00       	mov    $0x6184a0,%edi
  403dfb:	e8 e0 89 00 00       	callq  40c7e0 <__cocheck__globalRegister>
  403e00:	bf a8 84 61 00       	mov    $0x6184a8,%edi
  403e05:	be 08 00 00 00       	mov    $0x8,%esi
  403e0a:	48 89 74 24 20       	mov    %rsi,0x20(%rsp)
  403e0f:	e8 cc 89 00 00       	callq  40c7e0 <__cocheck__globalRegister>
  403e14:	48 8b 74 24 20       	mov    0x20(%rsp),%rsi
  403e19:	bf b0 81 61 00       	mov    $0x6181b0,%edi
  403e1e:	e8 bd 89 00 00       	callq  40c7e0 <__cocheck__globalRegister>
  403e23:	48 8b 74 24 20       	mov    0x20(%rsp),%rsi
  403e28:	bf b8 81 61 00       	mov    $0x6181b8,%edi
  403e2d:	e8 ae 89 00 00       	callq  40c7e0 <__cocheck__globalRegister>
  403e32:	48 8b 74 24 20       	mov    0x20(%rsp),%rsi
  403e37:	bf c0 81 61 00       	mov    $0x6181c0,%edi
  403e3c:	e8 9f 89 00 00       	callq  40c7e0 <__cocheck__globalRegister>
  403e41:	bf c8 81 61 00       	mov    $0x6181c8,%edi
  403e46:	be 08 00 00 00       	mov    $0x8,%esi
  403e4b:	48 83 c4 28          	add    $0x28,%rsp
  403e4f:	e9 8c 89 00 00       	jmpq   40c7e0 <__cocheck__globalRegister>
  403e54:	66 2e 0f 1f 84 00 00 	nopw   %cs:0x0(%rax,%rax,1)
  403e5b:	00 00 00 
  403e5e:	66 90                	xchg   %ax,%ax

0000000000403e60 <stdThreadCreate>:
  403e60:	55                   	push   %rbp
  403e61:	48 89 e5             	mov    %rsp,%rbp
  403e64:	48 81 ec b0 01 00 00 	sub    $0x1b0,%rsp
  403e6b:	48 89 7d b0          	mov    %rdi,-0x50(%rbp)
  403e6f:	48 89 75 b8          	mov    %rsi,-0x48(%rbp)
  403e73:	48 89 55 c0          	mov    %rdx,-0x40(%rbp)
  403e77:	48 8d 4d f8          	lea    -0x8(%rbp),%rcx
  403e7b:	48 89 4d c8          	mov    %rcx,-0x38(%rbp)
  403e7f:	48 89 ca             	mov    %rcx,%rdx
  403e82:	48 83 c2 08          	add    $0x8,%rdx
  403e86:	48 89 55 d0          	mov    %rdx,-0x30(%rbp)
  403e8a:	48 89 c8             	mov    %rcx,%rax
  403e8d:	48 c1 e8 08          	shr    $0x8,%rax
  403e91:	48 89 45 d8          	mov    %rax,-0x28(%rbp)
  403e95:	48 81 e1 00 ff ff ff 	and    $0xffffffffffffff00,%rcx
  403e9c:	48 89 4d e0          	mov    %rcx,-0x20(%rbp)
  403ea0:	48 89 d1             	mov    %rdx,%rcx
  403ea3:	48 c1 e9 08          	shr    $0x8,%rcx
  403ea7:	48 89 4d e8          	mov    %rcx,-0x18(%rbp)
  403eab:	48 81 e2 00 ff ff ff 	and    $0xffffffffffffff00,%rdx
  403eb2:	48 89 55 f0          	mov    %rdx,-0x10(%rbp)
  403eb6:	48 39 c8             	cmp    %rcx,%rax
  403eb9:	0f 84 a9 00 00 00    	je     403f68 <stdThreadCreate+0x108>
  403ebf:	48 8b 45 d8          	mov    -0x28(%rbp),%rax
  403ec3:	48 8b 4d e0          	mov    -0x20(%rbp),%rcx
  403ec7:	48 8b 55 c8          	mov    -0x38(%rbp),%rdx
  403ecb:	48 39 d1             	cmp    %rdx,%rcx
  403ece:	0f 94 c1             	sete   %cl
  403ed1:	88 4d 9f             	mov    %cl,-0x61(%rbp)
  403ed4:	f6 c1 01             	test   $0x1,%cl
  403ed7:	48 89 c1             	mov    %rax,%rcx
  403eda:	48 89 4d a0          	mov    %rcx,-0x60(%rbp)
  403ede:	48 89 45 a8          	mov    %rax,-0x58(%rbp)
  403ee2:	0f 85 05 00 00 00    	jne    403eed <stdThreadCreate+0x8d>
  403ee8:	e9 d4 00 00 00       	jmpq   403fc1 <stdThreadCreate+0x161>
  403eed:	48 8b 4d a0          	mov    -0x60(%rbp),%rcx
  403ef1:	48 89 4d 90          	mov    %rcx,-0x70(%rbp)
  403ef5:	48 8b 04 25 e0 81 61 	mov    0x6181e0,%rax
  403efc:	00 
  403efd:	80 3c 08 00          	cmpb   $0x0,(%rax,%rcx,1)
  403f01:	0f 84 28 00 00 00    	je     403f2f <stdThreadCreate+0xcf>
  403f07:	48 8b 7d 90          	mov    -0x70(%rbp),%rdi
  403f0b:	48 c1 e7 05          	shl    $0x5,%rdi
  403f0f:	48 b8 e0 ff ff ff ff 	movabs $0x1fffffffffffffe0,%rax
  403f16:	ff ff 1f 
  403f19:	48 21 c7             	and    %rax,%rdi
  403f1c:	48 81 c7 00 80 ff 7f 	add    $0x7fff8000,%rdi
  403f23:	31 f6                	xor    %esi,%esi
  403f25:	ba 20 00 00 00       	mov    $0x20,%edx
  403f2a:	e8 a1 d1 ff ff       	callq  4010d0 <memset@plt>
  403f2f:	48 8b 4d e8          	mov    -0x18(%rbp),%rcx
  403f33:	48 8b 45 90          	mov    -0x70(%rbp),%rax
  403f37:	48 8b 75 d0          	mov    -0x30(%rbp),%rsi
  403f3b:	48 69 d0 00 ff ff ff 	imul   $0xffffffffffffff00,%rax,%rdx
  403f42:	48 01 f2             	add    %rsi,%rdx
  403f45:	89 d6                	mov    %edx,%esi
  403f47:	48 8b 14 25 d8 81 61 	mov    0x6181d8,%rdx
  403f4e:	00 
  403f4f:	89 34 82             	mov    %esi,(%rdx,%rax,4)
  403f52:	48 83 c0 01          	add    $0x1,%rax
  403f56:	48 39 c8             	cmp    %rcx,%rax
  403f59:	48 89 45 a0          	mov    %rax,-0x60(%rbp)
  403f5d:	0f 84 ea 00 00 00    	je     40404d <stdThreadCreate+0x1ed>
  403f63:	e9 85 ff ff ff       	jmpq   403eed <stdThreadCreate+0x8d>
  403f68:	48 8b 4d d8          	mov    -0x28(%rbp),%rcx
  403f6c:	48 8b 04 25 e8 81 61 	mov    0x6181e8,%rax
  403f73:	00 
  403f74:	48 89 c2             	mov    %rax,%rdx
  403f77:	48 01 ca             	add    %rcx,%rdx
  403f7a:	48 89 55 88          	mov    %rdx,-0x78(%rbp)
  403f7e:	80 3c 08 00          	cmpb   $0x0,(%rax,%rcx,1)
  403f82:	0f 85 25 00 00 00    	jne    403fad <stdThreadCreate+0x14d>
  403f88:	48 8b 7d e0          	mov    -0x20(%rbp),%rdi
  403f8c:	48 8b 45 88          	mov    -0x78(%rbp),%rax
  403f90:	c6 00 01             	movb   $0x1,(%rax)
  403f93:	48 c1 ef 03          	shr    $0x3,%rdi
  403f97:	48 81 c7 00 80 ff 7f 	add    $0x7fff8000,%rdi
  403f9e:	be ff 00 00 00       	mov    $0xff,%esi
  403fa3:	ba 20 00 00 00       	mov    $0x20,%edx
  403fa8:	e8 23 d1 ff ff       	callq  4010d0 <memset@plt>
  403fad:	48 8b 45 c8          	mov    -0x38(%rbp),%rax
  403fb1:	48 c1 e8 03          	shr    $0x3,%rax
  403fb5:	c6 80 00 80 ff 7f 01 	movb   $0x1,0x7fff8000(%rax)
  403fbc:	e9 94 05 00 00       	jmpq   404555 <stdThreadCreate+0x6f5>
  403fc1:	48 8b 55 d8          	mov    -0x28(%rbp),%rdx
  403fc5:	48 8b 4d a8          	mov    -0x58(%rbp),%rcx
  403fc9:	48 89 4d 80          	mov    %rcx,-0x80(%rbp)
  403fcd:	48 8b 04 25 e0 81 61 	mov    0x6181e0,%rax
  403fd4:	00 
  403fd5:	80 3c 08 00          	cmpb   $0x0,(%rax,%rcx,1)
  403fd9:	0f 95 c0             	setne  %al
  403fdc:	48 39 d1             	cmp    %rdx,%rcx
  403fdf:	0f 95 c1             	setne  %cl
  403fe2:	20 c8                	and    %cl,%al
  403fe4:	a8 01                	test   $0x1,%al
  403fe6:	0f 85 05 00 00 00    	jne    403ff1 <stdThreadCreate+0x191>
  403fec:	e9 28 00 00 00       	jmpq   404019 <stdThreadCreate+0x1b9>
  403ff1:	48 8b 7d 80          	mov    -0x80(%rbp),%rdi
  403ff5:	48 c1 e7 05          	shl    $0x5,%rdi
  403ff9:	48 b8 e0 ff ff ff ff 	movabs $0x1fffffffffffffe0,%rax
  404000:	ff ff 1f 
  404003:	48 21 c7             	and    %rax,%rdi
  404006:	48 81 c7 00 80 ff 7f 	add    $0x7fff8000,%rdi
  40400d:	31 f6                	xor    %esi,%esi
  40400f:	ba 20 00 00 00       	mov    $0x20,%edx
  404014:	e8 b7 d0 ff ff       	callq  4010d0 <memset@plt>
  404019:	48 8b 4d e8          	mov    -0x18(%rbp),%rcx
  40401d:	48 8b 45 80          	mov    -0x80(%rbp),%rax
  404021:	48 8b 75 d0          	mov    -0x30(%rbp),%rsi
  404025:	48 69 d0 00 ff ff ff 	imul   $0xffffffffffffff00,%rax,%rdx
  40402c:	48 01 f2             	add    %rsi,%rdx
  40402f:	89 d6                	mov    %edx,%esi
  404031:	48 8b 14 25 d8 81 61 	mov    0x6181d8,%rdx
  404038:	00 
  404039:	89 34 82             	mov    %esi,(%rdx,%rax,4)
  40403c:	48 83 c0 01          	add    $0x1,%rax
  404040:	48 39 c8             	cmp    %rcx,%rax
  404043:	48 89 45 a8          	mov    %rax,-0x58(%rbp)
  404047:	0f 85 74 ff ff ff    	jne    403fc1 <stdThreadCreate+0x161>
  40404d:	8a 45 9f             	mov    -0x61(%rbp),%al
  404050:	a8 01                	test   $0x1,%al
  404052:	0f 85 05 00 00 00    	jne    40405d <stdThreadCreate+0x1fd>
  404058:	e9 16 00 00 00       	jmpq   404073 <stdThreadCreate+0x213>
  40405d:	48 8b 4d d8          	mov    -0x28(%rbp),%rcx
  404061:	48 8b 04 25 e0 81 61 	mov    0x6181e0,%rax
  404068:	00 
  404069:	80 3c 08 00          	cmpb   $0x0,(%rax,%rcx,1)
  40406d:	0f 84 86 00 00 00    	je     4040f9 <stdThreadCreate+0x299>
  404073:	48 8b 4d d8          	mov    -0x28(%rbp),%rcx
  404077:	48 8b 55 e0          	mov    -0x20(%rbp),%rdx
  40407b:	48 8b 75 c8          	mov    -0x38(%rbp),%rsi
  40407f:	b8 00 01 00 00       	mov    $0x100,%eax
  404084:	48 29 f0             	sub    %rsi,%rax
  404087:	48 01 d0             	add    %rdx,%rax
  40408a:	48 89 85 70 ff ff ff 	mov    %rax,-0x90(%rbp)
  404091:	48 8b 04 25 e8 81 61 	mov    0x6181e8,%rax
  404098:	00 
  404099:	48 89 c2             	mov    %rax,%rdx
  40409c:	48 01 ca             	add    %rcx,%rdx
  40409f:	48 89 95 78 ff ff ff 	mov    %rdx,-0x88(%rbp)
  4040a6:	80 3c 08 00          	cmpb   $0x0,(%rax,%rcx,1)
  4040aa:	0f 85 28 00 00 00    	jne    4040d8 <stdThreadCreate+0x278>
  4040b0:	48 8b 7d e0          	mov    -0x20(%rbp),%rdi
  4040b4:	48 8b 85 78 ff ff ff 	mov    -0x88(%rbp),%rax
  4040bb:	c6 00 01             	movb   $0x1,(%rax)
  4040be:	48 c1 ef 03          	shr    $0x3,%rdi
  4040c2:	48 81 c7 00 80 ff 7f 	add    $0x7fff8000,%rdi
  4040c9:	be ff 00 00 00       	mov    $0xff,%esi
  4040ce:	ba 20 00 00 00       	mov    $0x20,%edx
  4040d3:	e8 f8 cf ff ff       	callq  4010d0 <memset@plt>
  4040d8:	48 8b 95 70 ff ff ff 	mov    -0x90(%rbp),%rdx
  4040df:	48 8b 7d c8          	mov    -0x38(%rbp),%rdi
  4040e3:	48 c1 ef 03          	shr    $0x3,%rdi
  4040e7:	48 81 c7 00 80 ff 7f 	add    $0x7fff8000,%rdi
  4040ee:	48 c1 ea 03          	shr    $0x3,%rdx
  4040f2:	31 f6                	xor    %esi,%esi
  4040f4:	e8 d7 cf ff ff       	callq  4010d0 <memset@plt>
  4040f9:	48 8b 45 d0          	mov    -0x30(%rbp),%rax
  4040fd:	48 8b 4d f0          	mov    -0x10(%rbp),%rcx
  404101:	48 39 c8             	cmp    %rcx,%rax
  404104:	0f 84 4b 04 00 00    	je     404555 <stdThreadCreate+0x6f5>
  40410a:	48 8b 4d e8          	mov    -0x18(%rbp),%rcx
  40410e:	48 8b 45 d0          	mov    -0x30(%rbp),%rax
  404112:	48 25 f8 00 00 00    	and    $0xf8,%rax
  404118:	48 89 85 60 ff ff ff 	mov    %rax,-0xa0(%rbp)
  40411f:	48 8b 04 25 e8 81 61 	mov    0x6181e8,%rax
  404126:	00 
  404127:	48 89 c2             	mov    %rax,%rdx
  40412a:	48 01 ca             	add    %rcx,%rdx
  40412d:	48 89 95 68 ff ff ff 	mov    %rdx,-0x98(%rbp)
  404134:	80 3c 08 00          	cmpb   $0x0,(%rax,%rcx,1)
  404138:	0f 84 1a 00 00 00    	je     404158 <stdThreadCreate+0x2f8>
  40413e:	48 8b 45 f0          	mov    -0x10(%rbp),%rax
  404142:	48 c1 e8 03          	shr    $0x3,%rax
  404146:	48 05 00 80 ff 7f    	add    $0x7fff8000,%rax
  40414c:	48 89 85 58 ff ff ff 	mov    %rax,-0xa8(%rbp)
  404153:	e9 3d 00 00 00       	jmpq   404195 <stdThreadCreate+0x335>
  404158:	48 8b 7d f0          	mov    -0x10(%rbp),%rdi
  40415c:	48 8b 85 68 ff ff ff 	mov    -0x98(%rbp),%rax
  404163:	c6 00 01             	movb   $0x1,(%rax)
  404166:	48 c1 ef 03          	shr    $0x3,%rdi
  40416a:	48 81 c7 00 80 ff 7f 	add    $0x7fff8000,%rdi
  404171:	48 89 bd 50 ff ff ff 	mov    %rdi,-0xb0(%rbp)
  404178:	be ff 00 00 00       	mov    $0xff,%esi
  40417d:	ba 20 00 00 00       	mov    $0x20,%edx
  404182:	e8 49 cf ff ff       	callq  4010d0 <memset@plt>
  404187:	48 8b 85 50 ff ff ff 	mov    -0xb0(%rbp),%rax
  40418e:	48 89 85 58 ff ff ff 	mov    %rax,-0xa8(%rbp)
  404195:	48 8b 85 60 ff ff ff 	mov    -0xa0(%rbp),%rax
  40419c:	48 8b 4d c8          	mov    -0x38(%rbp),%rcx
  4041a0:	48 8b 95 58 ff ff ff 	mov    -0xa8(%rbp),%rdx
  4041a7:	48 89 95 30 ff ff ff 	mov    %rdx,-0xd0(%rbp)
  4041ae:	48 c1 e9 03          	shr    $0x3,%rcx
  4041b2:	48 89 8d 38 ff ff ff 	mov    %rcx,-0xc8(%rbp)
  4041b9:	48 89 ca             	mov    %rcx,%rdx
  4041bc:	48 81 c2 00 80 ff 7f 	add    $0x7fff8000,%rdx
  4041c3:	48 89 95 40 ff ff ff 	mov    %rdx,-0xc0(%rbp)
  4041ca:	48 81 c1 01 80 ff 7f 	add    $0x7fff8001,%rcx
  4041d1:	48 89 8d 48 ff ff ff 	mov    %rcx,-0xb8(%rbp)
  4041d8:	48 3d 81 00 00 00    	cmp    $0x81,%rax
  4041de:	0f 83 7c 02 00 00    	jae    404460 <stdThreadCreate+0x600>
  4041e4:	48 8b 85 60 ff ff ff 	mov    -0xa0(%rbp),%rax
  4041eb:	48 c1 e8 03          	shr    $0x3,%rax
  4041ef:	48 83 c0 ff          	add    $0xffffffffffffffff,%rax
  4041f3:	48 89 85 28 ff ff ff 	mov    %rax,-0xd8(%rbp)
  4041fa:	48 83 e8 0f          	sub    $0xf,%rax
  4041fe:	0f 87 51 03 00 00    	ja     404555 <stdThreadCreate+0x6f5>
  404204:	48 8b 85 28 ff ff ff 	mov    -0xd8(%rbp),%rax
  40420b:	48 8b 04 c5 e8 4a 41 	mov    0x414ae8(,%rax,8),%rax
  404212:	00 
  404213:	ff e0                	jmpq   *%rax
  404215:	48 8b 85 40 ff ff ff 	mov    -0xc0(%rbp),%rax
  40421c:	c6 00 01             	movb   $0x1,(%rax)
  40421f:	e9 31 03 00 00       	jmpq   404555 <stdThreadCreate+0x6f5>
  404224:	48 8b 85 38 ff ff ff 	mov    -0xc8(%rbp),%rax
  40422b:	66 c7 80 ff 7f ff 7f 	movw   $0x102,0x7fff7fff(%rax)
  404232:	02 01 
  404234:	e9 1c 03 00 00       	jmpq   404555 <stdThreadCreate+0x6f5>
  404239:	48 8b 85 38 ff ff ff 	mov    -0xc8(%rbp),%rax
  404240:	48 8b 8d 40 ff ff ff 	mov    -0xc0(%rbp),%rcx
  404247:	c6 01 01             	movb   $0x1,(%rcx)
  40424a:	66 c7 80 fe 7f ff 7f 	movw   $0x202,0x7fff7ffe(%rax)
  404251:	02 02 
  404253:	e9 fd 02 00 00       	jmpq   404555 <stdThreadCreate+0x6f5>
  404258:	48 8b 85 38 ff ff ff 	mov    -0xc8(%rbp),%rax
  40425f:	c7 80 fd 7f ff 7f 03 	movl   $0x1020203,0x7fff7ffd(%rax)
  404266:	02 02 01 
  404269:	e9 e7 02 00 00       	jmpq   404555 <stdThreadCreate+0x6f5>
  40426e:	48 8b 85 38 ff ff ff 	mov    -0xc8(%rbp),%rax
  404275:	48 8b 8d 40 ff ff ff 	mov    -0xc0(%rbp),%rcx
  40427c:	c6 01 01             	movb   $0x1,(%rcx)
  40427f:	c7 80 fc 7f ff 7f 03 	movl   $0x2020303,0x7fff7ffc(%rax)
  404286:	03 02 02 
  404289:	e9 c7 02 00 00       	jmpq   404555 <stdThreadCreate+0x6f5>
  40428e:	48 8b 85 38 ff ff ff 	mov    -0xc8(%rbp),%rax
  404295:	66 c7 80 ff 7f ff 7f 	movw   $0x102,0x7fff7fff(%rax)
  40429c:	02 01 
  40429e:	c7 80 fb 7f ff 7f 03 	movl   $0x2030303,0x7fff7ffb(%rax)
  4042a5:	03 03 02 
  4042a8:	e9 a8 02 00 00       	jmpq   404555 <stdThreadCreate+0x6f5>
  4042ad:	48 8b 85 38 ff ff ff 	mov    -0xc8(%rbp),%rax
  4042b4:	48 8b 8d 40 ff ff ff 	mov    -0xc0(%rbp),%rcx
  4042bb:	c6 01 01             	movb   $0x1,(%rcx)
  4042be:	66 c7 80 fe 7f ff 7f 	movw   $0x202,0x7fff7ffe(%rax)
  4042c5:	02 02 
  4042c7:	c7 80 fa 7f ff 7f 03 	movl   $0x3030303,0x7fff7ffa(%rax)
  4042ce:	03 03 03 
  4042d1:	e9 7f 02 00 00       	jmpq   404555 <stdThreadCreate+0x6f5>
  4042d6:	48 8b 85 38 ff ff ff 	mov    -0xc8(%rbp),%rax
  4042dd:	48 b9 04 03 03 03 03 	movabs $0x102020303030304,%rcx
  4042e4:	02 02 01 
  4042e7:	48 89 88 f9 7f ff 7f 	mov    %rcx,0x7fff7ff9(%rax)
  4042ee:	e9 62 02 00 00       	jmpq   404555 <stdThreadCreate+0x6f5>
  4042f3:	48 8b 85 38 ff ff ff 	mov    -0xc8(%rbp),%rax
  4042fa:	48 8b 8d 40 ff ff ff 	mov    -0xc0(%rbp),%rcx
  404301:	c6 01 01             	movb   $0x1,(%rcx)
  404304:	48 b9 04 04 03 03 03 	movabs $0x202030303030404,%rcx
  40430b:	03 02 02 
  40430e:	48 89 88 f8 7f ff 7f 	mov    %rcx,0x7fff7ff8(%rax)
  404315:	e9 3b 02 00 00       	jmpq   404555 <stdThreadCreate+0x6f5>
  40431a:	48 8b 85 38 ff ff ff 	mov    -0xc8(%rbp),%rax
  404321:	66 c7 80 ff 7f ff 7f 	movw   $0x102,0x7fff7fff(%rax)
  404328:	02 01 
  40432a:	48 b9 04 04 04 03 03 	movabs $0x203030303040404,%rcx
  404331:	03 03 02 
  404334:	48 89 88 f7 7f ff 7f 	mov    %rcx,0x7fff7ff7(%rax)
  40433b:	e9 15 02 00 00       	jmpq   404555 <stdThreadCreate+0x6f5>
  404340:	48 8b 85 38 ff ff ff 	mov    -0xc8(%rbp),%rax
  404347:	48 8b 8d 40 ff ff ff 	mov    -0xc0(%rbp),%rcx
  40434e:	c6 01 01             	movb   $0x1,(%rcx)
  404351:	66 c7 80 fe 7f ff 7f 	movw   $0x202,0x7fff7ffe(%rax)
  404358:	02 02 
  40435a:	48 b9 04 04 04 04 03 	movabs $0x303030304040404,%rcx
  404361:	03 03 03 
  404364:	48 89 88 f6 7f ff 7f 	mov    %rcx,0x7fff7ff6(%rax)
  40436b:	e9 e5 01 00 00       	jmpq   404555 <stdThreadCreate+0x6f5>
  404370:	48 8b 85 38 ff ff ff 	mov    -0xc8(%rbp),%rax
  404377:	c7 80 fd 7f ff 7f 03 	movl   $0x1020203,0x7fff7ffd(%rax)
  40437e:	02 02 01 
  404381:	48 b9 04 04 04 04 04 	movabs $0x303030404040404,%rcx
  404388:	03 03 03 
  40438b:	48 89 88 f5 7f ff 7f 	mov    %rcx,0x7fff7ff5(%rax)
  404392:	e9 be 01 00 00       	jmpq   404555 <stdThreadCreate+0x6f5>
  404397:	48 8b 85 38 ff ff ff 	mov    -0xc8(%rbp),%rax
  40439e:	48 8b 8d 40 ff ff ff 	mov    -0xc0(%rbp),%rcx
  4043a5:	c6 01 01             	movb   $0x1,(%rcx)
  4043a8:	c7 80 fc 7f ff 7f 03 	movl   $0x2020303,0x7fff7ffc(%rax)
  4043af:	03 02 02 
  4043b2:	48 b9 04 04 04 04 04 	movabs $0x303040404040404,%rcx
  4043b9:	04 03 03 
  4043bc:	48 89 88 f4 7f ff 7f 	mov    %rcx,0x7fff7ff4(%rax)
  4043c3:	e9 8d 01 00 00       	jmpq   404555 <stdThreadCreate+0x6f5>
  4043c8:	48 8b 85 38 ff ff ff 	mov    -0xc8(%rbp),%rax
  4043cf:	66 c7 80 ff 7f ff 7f 	movw   $0x102,0x7fff7fff(%rax)
  4043d6:	02 01 
  4043d8:	c7 80 fb 7f ff 7f 03 	movl   $0x2030303,0x7fff7ffb(%rax)
  4043df:	03 03 02 
  4043e2:	48 b9 04 04 04 04 04 	movabs $0x304040404040404,%rcx
  4043e9:	04 04 03 
  4043ec:	48 89 88 f3 7f ff 7f 	mov    %rcx,0x7fff7ff3(%rax)
  4043f3:	e9 5d 01 00 00       	jmpq   404555 <stdThreadCreate+0x6f5>
  4043f8:	48 8b 85 38 ff ff ff 	mov    -0xc8(%rbp),%rax
  4043ff:	48 8b 8d 40 ff ff ff 	mov    -0xc0(%rbp),%rcx
  404406:	c6 01 01             	movb   $0x1,(%rcx)
  404409:	66 c7 80 fe 7f ff 7f 	movw   $0x202,0x7fff7ffe(%rax)
  404410:	02 02 
  404412:	c7 80 fa 7f ff 7f 03 	movl   $0x3030303,0x7fff7ffa(%rax)
  404419:	03 03 03 
  40441c:	48 b9 04 04 04 04 04 	movabs $0x404040404040404,%rcx
  404423:	04 04 04 
  404426:	48 89 88 f2 7f ff 7f 	mov    %rcx,0x7fff7ff2(%rax)
  40442d:	e9 23 01 00 00       	jmpq   404555 <stdThreadCreate+0x6f5>
  404432:	48 8b 85 38 ff ff ff 	mov    -0xc8(%rbp),%rax
  404439:	48 b9 04 03 03 03 03 	movabs $0x102020303030304,%rcx
  404440:	02 02 01 
  404443:	48 89 88 f9 7f ff 7f 	mov    %rcx,0x7fff7ff9(%rax)
  40444a:	48 b9 05 04 04 04 04 	movabs $0x404040404040405,%rcx
  404451:	04 04 04 
  404454:	48 89 88 f1 7f ff 7f 	mov    %rcx,0x7fff7ff1(%rax)
  40445b:	e9 f5 00 00 00       	jmpq   404555 <stdThreadCreate+0x6f5>
  404460:	48 8b 95 30 ff ff ff 	mov    -0xd0(%rbp),%rdx
  404467:	48 8b 85 38 ff ff ff 	mov    -0xc8(%rbp),%rax
  40446e:	48 b9 04 03 03 03 03 	movabs $0x102020303030304,%rcx
  404475:	02 02 01 
  404478:	48 89 88 f9 7f ff 7f 	mov    %rcx,0x7fff7ff9(%rax)
  40447f:	48 89 c1             	mov    %rax,%rcx
  404482:	48 81 c1 f1 7f ff 7f 	add    $0x7fff7ff1,%rcx
  404489:	48 be 05 04 04 04 04 	movabs $0x404040404040405,%rsi
  404490:	04 04 04 
  404493:	48 89 b0 f1 7f ff 7f 	mov    %rsi,0x7fff7ff1(%rax)
  40449a:	b8 04 00 00 00       	mov    $0x4,%eax
  40449f:	48 39 d1             	cmp    %rdx,%rcx
  4044a2:	48 89 8d 18 ff ff ff 	mov    %rcx,-0xe8(%rbp)
  4044a9:	48 89 85 20 ff ff ff 	mov    %rax,-0xe0(%rbp)
  4044b0:	0f 82 9f 00 00 00    	jb     404555 <stdThreadCreate+0x6f5>
  4044b6:	48 8b 85 20 ff ff ff 	mov    -0xe0(%rbp),%rax
  4044bd:	48 8b 95 18 ff ff ff 	mov    -0xe8(%rbp),%rdx
  4044c4:	48 8b bd 48 ff ff ff 	mov    -0xb8(%rbp),%rdi
  4044cb:	48 83 c0 01          	add    $0x1,%rax
  4044cf:	48 89 85 10 ff ff ff 	mov    %rax,-0xf0(%rbp)
  4044d6:	89 c1                	mov    %eax,%ecx
  4044d8:	be 01 00 00 00       	mov    $0x1,%esi
  4044dd:	d3 e6                	shl    %cl,%esi
  4044df:	48 8b 8d 30 ff ff ff 	mov    -0xd0(%rbp),%rcx
  4044e6:	48 63 f6             	movslq %esi,%rsi
  4044e9:	48 29 f7             	sub    %rsi,%rdi
  4044ec:	48 89 bd 08 ff ff ff 	mov    %rdi,-0xf8(%rbp)
  4044f3:	48 83 c7 01          	add    $0x1,%rdi
  4044f7:	48 89 bd e8 fe ff ff 	mov    %rdi,-0x118(%rbp)
  4044fe:	48 39 cf             	cmp    %rcx,%rdi
  404501:	48 0f 42 f9          	cmovb  %rcx,%rdi
  404505:	48 89 bd f0 fe ff ff 	mov    %rdi,-0x110(%rbp)
  40450c:	48 83 c2 01          	add    $0x1,%rdx
  404510:	48 89 95 f8 fe ff ff 	mov    %rdx,-0x108(%rbp)
  404517:	48 29 fa             	sub    %rdi,%rdx
  40451a:	48 89 95 00 ff ff ff 	mov    %rdx,-0x100(%rbp)
  404521:	0f b6 f0             	movzbl %al,%esi
  404524:	e8 a7 cb ff ff       	callq  4010d0 <memset@plt>
  404529:	48 8b 95 30 ff ff ff 	mov    -0xd0(%rbp),%rdx
  404530:	48 8b 8d 08 ff ff ff 	mov    -0xf8(%rbp),%rcx
  404537:	48 8b 85 10 ff ff ff 	mov    -0xf0(%rbp),%rax
  40453e:	48 39 d1             	cmp    %rdx,%rcx
  404541:	48 89 8d 18 ff ff ff 	mov    %rcx,-0xe8(%rbp)
  404548:	48 89 85 20 ff ff ff 	mov    %rax,-0xe0(%rbp)
  40454f:	0f 83 61 ff ff ff    	jae    4044b6 <stdThreadCreate+0x656>
  404555:	48 8b 45 c0          	mov    -0x40(%rbp),%rax
  404559:	48 c7 00 00 00 00 00 	movq   $0x0,(%rax)
  404560:	bf 18 00 00 00       	mov    $0x18,%edi
  404565:	e8 f6 2a 00 00       	callq  407060 <malloc>
  40456a:	48 89 c1             	mov    %rax,%rcx
  40456d:	48 89 8d d8 fe ff ff 	mov    %rcx,-0x128(%rbp)
  404574:	31 c0                	xor    %eax,%eax
  404576:	48 83 f9 00          	cmp    $0x0,%rcx
  40457a:	89 85 e4 fe ff ff    	mov    %eax,-0x11c(%rbp)
  404580:	0f 84 2b 04 00 00    	je     4049b1 <stdThreadCreate+0xb51>
  404586:	48 8b 85 d8 fe ff ff 	mov    -0x128(%rbp),%rax
  40458d:	48 c1 e8 03          	shr    $0x3,%rax
  404591:	48 89 85 c0 fe ff ff 	mov    %rax,-0x140(%rbp)
  404598:	48 89 c1             	mov    %rax,%rcx
  40459b:	48 81 c1 00 80 ff 7f 	add    $0x7fff8000,%rcx
  4045a2:	48 89 8d c8 fe ff ff 	mov    %rcx,-0x138(%rbp)
  4045a9:	8a 80 00 80 ff 7f    	mov    0x7fff8000(%rax),%al
  4045af:	88 85 d7 fe ff ff    	mov    %al,-0x129(%rbp)
  4045b5:	3c 00                	cmp    $0x0,%al
  4045b7:	0f 85 47 00 00 00    	jne    404604 <stdThreadCreate+0x7a4>
  4045bd:	48 8b 85 d8 fe ff ff 	mov    -0x128(%rbp),%rax
  4045c4:	48 89 c2             	mov    %rax,%rdx
  4045c7:	48 c1 ea 08          	shr    $0x8,%rdx
  4045cb:	48 8b 0c 25 d0 81 61 	mov    0x6181d0,%rcx
  4045d2:	00 
  4045d3:	48 63 14 91          	movslq (%rcx,%rdx,4),%rdx
  4045d7:	48 89 c1             	mov    %rax,%rcx
  4045da:	48 81 e1 00 ff ff ff 	and    $0xffffffffffffff00,%rcx
  4045e1:	48 01 d1             	add    %rdx,%rcx
  4045e4:	48 89 8d b0 fe ff ff 	mov    %rcx,-0x150(%rbp)
  4045eb:	48 83 c0 08          	add    $0x8,%rax
  4045ef:	48 39 c1             	cmp    %rax,%rcx
  4045f2:	48 89 85 b8 fe ff ff 	mov    %rax,-0x148(%rbp)
  4045f9:	0f 87 03 01 00 00    	ja     404702 <stdThreadCreate+0x8a2>
  4045ff:	e9 cb 00 00 00       	jmpq   4046cf <stdThreadCreate+0x86f>
  404604:	48 8b 95 d8 fe ff ff 	mov    -0x128(%rbp),%rdx
  40460b:	48 8b 85 c8 fe ff ff 	mov    -0x138(%rbp),%rax
  404612:	8a 8d d7 fe ff ff    	mov    -0x129(%rbp),%cl
  404618:	80 c1 1f             	add    $0x1f,%cl
  40461b:	80 e1 1f             	and    $0x1f,%cl
  40461e:	0f b6 c9             	movzbl %cl,%ecx
  404621:	be 01 00 00 00       	mov    $0x1,%esi
  404626:	d3 e6                	shl    %cl,%esi
  404628:	48 8b 8d c0 fe ff ff 	mov    -0x140(%rbp),%rcx
  40462f:	48 63 f6             	movslq %esi,%rsi
  404632:	48 81 c1 ff 7f ff 7f 	add    $0x7fff7fff,%rcx
  404639:	48 01 f1             	add    %rsi,%rcx
  40463c:	48 89 8d 98 fe ff ff 	mov    %rcx,-0x168(%rbp)
  404643:	8a 09                	mov    (%rcx),%cl
  404645:	80 c1 1f             	add    $0x1f,%cl
  404648:	80 e1 1f             	and    $0x1f,%cl
  40464b:	0f b6 c9             	movzbl %cl,%ecx
  40464e:	be ff ff ff ff       	mov    $0xffffffff,%esi
  404653:	d3 e6                	shl    %cl,%esi
  404655:	48 8b 8d 98 fe ff ff 	mov    -0x168(%rbp),%rcx
  40465c:	83 f6 ff             	xor    $0xffffffff,%esi
  40465f:	89 f6                	mov    %esi,%esi
  404661:	48 01 f1             	add    %rsi,%rcx
  404664:	48 89 8d a0 fe ff ff 	mov    %rcx,-0x160(%rbp)
  40466b:	8a 09                	mov    (%rcx),%cl
  40466d:	80 c1 1f             	add    $0x1f,%cl
  404670:	80 e1 1f             	and    $0x1f,%cl
  404673:	0f b6 c9             	movzbl %cl,%ecx
  404676:	be ff ff ff ff       	mov    $0xffffffff,%esi
  40467b:	d3 e6                	shl    %cl,%esi
  40467d:	48 8b 8d a0 fe ff ff 	mov    -0x160(%rbp),%rcx
  404684:	83 f6 ff             	xor    $0xffffffff,%esi
  404687:	89 f6                	mov    %esi,%esi
  404689:	48 01 f1             	add    %rsi,%rcx
  40468c:	40 8a 31             	mov    (%rcx),%sil
  40468f:	40 80 c6 ff          	add    $0xff,%sil
  404693:	48 29 c1             	sub    %rax,%rcx
  404696:	48 c1 e1 03          	shl    $0x3,%rcx
  40469a:	40 c0 ee 05          	shr    $0x5,%sil
  40469e:	b0 08                	mov    $0x8,%al
  4046a0:	40 28 f0             	sub    %sil,%al
  4046a3:	0f b6 c0             	movzbl %al,%eax
  4046a6:	48 01 c1             	add    %rax,%rcx
  4046a9:	48 89 8d a8 fe ff ff 	mov    %rcx,-0x158(%rbp)
  4046b0:	48 89 d0             	mov    %rdx,%rax
  4046b3:	48 83 c0 08          	add    $0x8,%rax
  4046b7:	48 01 d1             	add    %rdx,%rcx
  4046ba:	48 39 c1             	cmp    %rax,%rcx
  4046bd:	48 89 85 b8 fe ff ff 	mov    %rax,-0x148(%rbp)
  4046c4:	0f 87 38 00 00 00    	ja     404702 <stdThreadCreate+0x8a2>
  4046ca:	e9 1b 00 00 00       	jmpq   4046ea <stdThreadCreate+0x88a>
  4046cf:	48 8b bd d8 fe ff ff 	mov    -0x128(%rbp),%rdi
  4046d6:	48 8b 95 b0 fe ff ff 	mov    -0x150(%rbp),%rdx
  4046dd:	48 29 fa             	sub    %rdi,%rdx
  4046e0:	be 08 00 00 00       	mov    $0x8,%esi
  4046e5:	e8 a6 26 00 00       	callq  406d90 <__cocheck__reportError>
  4046ea:	48 8b 95 a8 fe ff ff 	mov    -0x158(%rbp),%rdx
  4046f1:	48 8b bd d8 fe ff ff 	mov    -0x128(%rbp),%rdi
  4046f8:	be 08 00 00 00       	mov    $0x8,%esi
  4046fd:	e8 8e 26 00 00       	callq  406d90 <__cocheck__reportError>
  404702:	48 8b 85 d8 fe ff ff 	mov    -0x128(%rbp),%rax
  404709:	48 8b 55 b0          	mov    -0x50(%rbp),%rdx
  40470d:	48 8b 8d b8 fe ff ff 	mov    -0x148(%rbp),%rcx
  404714:	48 89 11             	mov    %rdx,(%rcx)
  404717:	48 c1 e8 03          	shr    $0x3,%rax
  40471b:	48 89 85 80 fe ff ff 	mov    %rax,-0x180(%rbp)
  404722:	48 89 c1             	mov    %rax,%rcx
  404725:	48 81 c1 00 80 ff 7f 	add    $0x7fff8000,%rcx
  40472c:	48 89 8d 88 fe ff ff 	mov    %rcx,-0x178(%rbp)
  404733:	8a 80 00 80 ff 7f    	mov    0x7fff8000(%rax),%al
  404739:	88 85 96 fe ff ff    	mov    %al,-0x16a(%rbp)
  40473f:	3c 00                	cmp    $0x0,%al
  404741:	0f 94 c0             	sete   %al
  404744:	88 85 97 fe ff ff    	mov    %al,-0x169(%rbp)
  40474a:	a8 01                	test   $0x1,%al
  40474c:	0f 85 05 00 00 00    	jne    404757 <stdThreadCreate+0x8f7>
  404752:	e9 30 00 00 00       	jmpq   404787 <stdThreadCreate+0x927>
  404757:	48 8b 8d d8 fe ff ff 	mov    -0x128(%rbp),%rcx
  40475e:	48 89 ca             	mov    %rcx,%rdx
  404761:	48 c1 ea 08          	shr    $0x8,%rdx
  404765:	48 8b 04 25 d0 81 61 	mov    0x6181d0,%rax
  40476c:	00 
  40476d:	48 63 04 90          	movslq (%rax,%rdx,4),%rax
  404771:	48 81 e1 ff 00 00 00 	and    $0xff,%rcx
  404778:	48 29 c8             	sub    %rcx,%rax
  40477b:	48 89 85 78 fe ff ff 	mov    %rax,-0x188(%rbp)
  404782:	e9 88 00 00 00       	jmpq   40480f <stdThreadCreate+0x9af>
  404787:	48 8b 85 80 fe ff ff 	mov    -0x180(%rbp),%rax
  40478e:	8a 8d 96 fe ff ff    	mov    -0x16a(%rbp),%cl
  404794:	80 c1 1f             	add    $0x1f,%cl
  404797:	80 e1 1f             	and    $0x1f,%cl
  40479a:	0f b6 c9             	movzbl %cl,%ecx
  40479d:	ba 01 00 00 00       	mov    $0x1,%edx
  4047a2:	d3 e2                	shl    %cl,%edx
  4047a4:	89 d1                	mov    %edx,%ecx
  4047a6:	48 63 c9             	movslq %ecx,%rcx
  4047a9:	48 05 ff 7f ff 7f    	add    $0x7fff7fff,%rax
  4047af:	48 01 c8             	add    %rcx,%rax
  4047b2:	8a 08                	mov    (%rax),%cl
  4047b4:	80 c1 1f             	add    $0x1f,%cl
  4047b7:	80 e1 1f             	and    $0x1f,%cl
  4047ba:	0f b6 c9             	movzbl %cl,%ecx
  4047bd:	ba ff ff ff ff       	mov    $0xffffffff,%edx
  4047c2:	d3 e2                	shl    %cl,%edx
  4047c4:	89 d1                	mov    %edx,%ecx
  4047c6:	83 f1 ff             	xor    $0xffffffff,%ecx
  4047c9:	89 c9                	mov    %ecx,%ecx
  4047cb:	48 01 c8             	add    %rcx,%rax
  4047ce:	8a 08                	mov    (%rax),%cl
  4047d0:	80 c1 1f             	add    $0x1f,%cl
  4047d3:	80 e1 1f             	and    $0x1f,%cl
  4047d6:	0f b6 c9             	movzbl %cl,%ecx
  4047d9:	ba ff ff ff ff       	mov    $0xffffffff,%edx
  4047de:	d3 e2                	shl    %cl,%edx
  4047e0:	48 8b 8d 88 fe ff ff 	mov    -0x178(%rbp),%rcx
  4047e7:	83 f2 ff             	xor    $0xffffffff,%edx
  4047ea:	89 d2                	mov    %edx,%edx
  4047ec:	48 01 d0             	add    %rdx,%rax
  4047ef:	8a 10                	mov    (%rax),%dl
  4047f1:	80 c2 ff             	add    $0xff,%dl
  4047f4:	48 29 c8             	sub    %rcx,%rax
  4047f7:	48 c1 e0 03          	shl    $0x3,%rax
  4047fb:	c0 ea 05             	shr    $0x5,%dl
  4047fe:	b1 08                	mov    $0x8,%cl
  404800:	28 d1                	sub    %dl,%cl
  404802:	0f b6 c9             	movzbl %cl,%ecx
  404805:	48 01 c8             	add    %rcx,%rax
  404808:	48 89 85 78 fe ff ff 	mov    %rax,-0x188(%rbp)
  40480f:	48 8b 95 d8 fe ff ff 	mov    -0x128(%rbp),%rdx
  404816:	48 8b 85 78 fe ff ff 	mov    -0x188(%rbp),%rax
  40481d:	48 89 85 68 fe ff ff 	mov    %rax,-0x198(%rbp)
  404824:	48 89 d1             	mov    %rdx,%rcx
  404827:	48 83 c1 10          	add    $0x10,%rcx
  40482b:	48 89 ce             	mov    %rcx,%rsi
  40482e:	48 89 b5 70 fe ff ff 	mov    %rsi,-0x190(%rbp)
  404835:	48 01 d0             	add    %rdx,%rax
  404838:	48 39 c8             	cmp    %rcx,%rax
  40483b:	0f 87 02 01 00 00    	ja     404943 <stdThreadCreate+0xae3>
  404841:	8a 85 97 fe ff ff    	mov    -0x169(%rbp),%al
  404847:	48 8b 8d d8 fe ff ff 	mov    -0x128(%rbp),%rcx
  40484e:	48 83 c1 0f          	add    $0xf,%rcx
  404852:	48 c1 e9 03          	shr    $0x3,%rcx
  404856:	48 89 ca             	mov    %rcx,%rdx
  404859:	48 81 c2 00 80 ff 7f 	add    $0x7fff8000,%rdx
  404860:	48 89 95 58 fe ff ff 	mov    %rdx,-0x1a8(%rbp)
  404867:	48 81 c1 01 80 ff 7f 	add    $0x7fff8001,%rcx
  40486e:	48 89 8d 60 fe ff ff 	mov    %rcx,-0x1a0(%rbp)
  404875:	a8 01                	test   $0x1,%al
  404877:	0f 85 05 00 00 00    	jne    404882 <stdThreadCreate+0xa22>
  40487d:	e9 18 00 00 00       	jmpq   40489a <stdThreadCreate+0xa3a>
  404882:	48 8b 95 68 fe ff ff 	mov    -0x198(%rbp),%rdx
  404889:	48 8b bd d8 fe ff ff 	mov    -0x128(%rbp),%rdi
  404890:	be 10 00 00 00       	mov    $0x10,%esi
  404895:	e8 f6 24 00 00       	callq  406d90 <__cocheck__reportError>
  40489a:	48 8b 85 88 fe ff ff 	mov    -0x178(%rbp),%rax
  4048a1:	8a 8d 96 fe ff ff    	mov    -0x16a(%rbp),%cl
  4048a7:	80 c1 ff             	add    $0xff,%cl
  4048aa:	0f b6 c9             	movzbl %cl,%ecx
  4048ad:	89 8d 50 fe ff ff    	mov    %ecx,-0x1b0(%rbp)
  4048b3:	ba 01 00 00 00       	mov    $0x1,%edx
  4048b8:	d3 e2                	shl    %cl,%edx
  4048ba:	48 8b 8d 60 fe ff ff 	mov    -0x1a0(%rbp),%rcx
  4048c1:	89 95 54 fe ff ff    	mov    %edx,-0x1ac(%rbp)
  4048c7:	c1 e2 01             	shl    $0x1,%edx
  4048ca:	48 63 d2             	movslq %edx,%rdx
  4048cd:	48 01 d0             	add    %rdx,%rax
  4048d0:	48 39 c8             	cmp    %rcx,%rax
  4048d3:	0f 86 27 00 00 00    	jbe    404900 <stdThreadCreate+0xaa0>
  4048d9:	8b 8d 50 fe ff ff    	mov    -0x1b0(%rbp),%ecx
  4048df:	48 8b 85 60 fe ff ff 	mov    -0x1a0(%rbp),%rax
  4048e6:	8b 95 54 fe ff ff    	mov    -0x1ac(%rbp),%edx
  4048ec:	48 63 d2             	movslq %edx,%rdx
  4048ef:	48 29 d0             	sub    %rdx,%rax
  4048f2:	0f b6 00             	movzbl (%rax),%eax
  4048f5:	83 c0 ff             	add    $0xffffffff,%eax
  4048f8:	39 c8                	cmp    %ecx,%eax
  4048fa:	0f 84 18 00 00 00    	je     404918 <stdThreadCreate+0xab8>
  404900:	48 8b 95 68 fe ff ff 	mov    -0x198(%rbp),%rdx
  404907:	48 8b bd d8 fe ff ff 	mov    -0x128(%rbp),%rdi
  40490e:	be 10 00 00 00       	mov    $0x10,%esi
  404913:	e8 78 24 00 00       	callq  406d90 <__cocheck__reportError>
  404918:	48 8b 85 58 fe ff ff 	mov    -0x1a8(%rbp),%rax
  40491f:	8a 00                	mov    (%rax),%al
  404921:	24 1f                	and    $0x1f,%al
  404923:	3c 01                	cmp    $0x1,%al
  404925:	0f 85 18 00 00 00    	jne    404943 <stdThreadCreate+0xae3>
  40492b:	48 8b 95 68 fe ff ff 	mov    -0x198(%rbp),%rdx
  404932:	48 8b bd d8 fe ff ff 	mov    -0x128(%rbp),%rdi
  404939:	be 10 00 00 00       	mov    $0x10,%esi
  40493e:	e8 4d 24 00 00       	callq  406d90 <__cocheck__reportError>
  404943:	48 8b 8d d8 fe ff ff 	mov    -0x128(%rbp),%rcx
  40494a:	48 8b 85 70 fe ff ff 	mov    -0x190(%rbp),%rax
  404951:	48 8b 55 b8          	mov    -0x48(%rbp),%rdx
  404955:	48 89 10             	mov    %rdx,(%rax)
  404958:	48 8d 7d f8          	lea    -0x8(%rbp),%rdi
  40495c:	31 c0                	xor    %eax,%eax
  40495e:	89 c6                	mov    %eax,%esi
  404960:	48 ba c0 49 40 00 00 	movabs $0x4049c0,%rdx
  404967:	00 00 00 
  40496a:	e8 81 c7 ff ff       	callq  4010f0 <pthread_create@plt>
  40496f:	83 f8 00             	cmp    $0x0,%eax
  404972:	0f 84 19 00 00 00    	je     404991 <stdThreadCreate+0xb31>
  404978:	48 8b bd d8 fe ff ff 	mov    -0x128(%rbp),%rdi
  40497f:	e8 cc 66 00 00       	callq  40b050 <free>
  404984:	31 c0                	xor    %eax,%eax
  404986:	89 85 e4 fe ff ff    	mov    %eax,-0x11c(%rbp)
  40498c:	e9 20 00 00 00       	jmpq   4049b1 <stdThreadCreate+0xb51>
  404991:	48 8b 45 c0          	mov    -0x40(%rbp),%rax
  404995:	48 8b 8d d8 fe ff ff 	mov    -0x128(%rbp),%rcx
  40499c:	48 8b 55 f8          	mov    -0x8(%rbp),%rdx
  4049a0:	48 89 11             	mov    %rdx,(%rcx)
  4049a3:	48 89 08             	mov    %rcx,(%rax)
  4049a6:	b8 01 00 00 00       	mov    $0x1,%eax
  4049ab:	89 85 e4 fe ff ff    	mov    %eax,-0x11c(%rbp)
  4049b1:	8b 85 e4 fe ff ff    	mov    -0x11c(%rbp),%eax
  4049b7:	48 81 c4 b0 01 00 00 	add    $0x1b0,%rsp
  4049be:	5d                   	pop    %rbp
  4049bf:	c3                   	retq   

00000000004049c0 <internal_start>:
  4049c0:	55                   	push   %rbp
  4049c1:	48 89 e5             	mov    %rsp,%rbp
  4049c4:	48 83 ec 60          	sub    $0x60,%rsp
  4049c8:	48 89 7d d8          	mov    %rdi,-0x28(%rbp)
  4049cc:	48 8b 47 08          	mov    0x8(%rdi),%rax
  4049d0:	48 89 45 e0          	mov    %rax,-0x20(%rbp)
  4049d4:	48 c1 ef 03          	shr    $0x3,%rdi
  4049d8:	48 89 7d e8          	mov    %rdi,-0x18(%rbp)
  4049dc:	48 89 f8             	mov    %rdi,%rax
  4049df:	48 05 00 80 ff 7f    	add    $0x7fff8000,%rax
  4049e5:	48 89 45 f0          	mov    %rax,-0x10(%rbp)
  4049e9:	8a 87 00 80 ff 7f    	mov    0x7fff8000(%rdi),%al
  4049ef:	88 45 fe             	mov    %al,-0x2(%rbp)
  4049f2:	3c 00                	cmp    $0x0,%al
  4049f4:	0f 94 c0             	sete   %al
  4049f7:	88 45 ff             	mov    %al,-0x1(%rbp)
  4049fa:	a8 01                	test   $0x1,%al
  4049fc:	0f 85 05 00 00 00    	jne    404a07 <internal_start+0x47>
  404a02:	e9 2a 00 00 00       	jmpq   404a31 <internal_start+0x71>
  404a07:	48 8b 4d d8          	mov    -0x28(%rbp),%rcx
  404a0b:	48 89 ca             	mov    %rcx,%rdx
  404a0e:	48 c1 ea 08          	shr    $0x8,%rdx
  404a12:	48 8b 04 25 d0 81 61 	mov    0x6181d0,%rax
  404a19:	00 
  404a1a:	48 63 04 90          	movslq (%rax,%rdx,4),%rax
  404a1e:	48 81 e1 ff 00 00 00 	and    $0xff,%rcx
  404a25:	48 29 c8             	sub    %rcx,%rax
  404a28:	48 89 45 d0          	mov    %rax,-0x30(%rbp)
  404a2c:	e9 7c 00 00 00       	jmpq   404aad <internal_start+0xed>
  404a31:	48 8b 45 e8          	mov    -0x18(%rbp),%rax
  404a35:	8a 4d fe             	mov    -0x2(%rbp),%cl
  404a38:	80 c1 1f             	add    $0x1f,%cl
  404a3b:	80 e1 1f             	and    $0x1f,%cl
  404a3e:	0f b6 c9             	movzbl %cl,%ecx
  404a41:	ba 01 00 00 00       	mov    $0x1,%edx
  404a46:	d3 e2                	shl    %cl,%edx
  404a48:	89 d1                	mov    %edx,%ecx
  404a4a:	48 63 c9             	movslq %ecx,%rcx
  404a4d:	48 05 ff 7f ff 7f    	add    $0x7fff7fff,%rax
  404a53:	48 01 c8             	add    %rcx,%rax
  404a56:	8a 08                	mov    (%rax),%cl
  404a58:	80 c1 1f             	add    $0x1f,%cl
  404a5b:	80 e1 1f             	and    $0x1f,%cl
  404a5e:	0f b6 c9             	movzbl %cl,%ecx
  404a61:	ba ff ff ff ff       	mov    $0xffffffff,%edx
  404a66:	d3 e2                	shl    %cl,%edx
  404a68:	89 d1                	mov    %edx,%ecx
  404a6a:	83 f1 ff             	xor    $0xffffffff,%ecx
  404a6d:	89 c9                	mov    %ecx,%ecx
  404a6f:	48 01 c8             	add    %rcx,%rax
  404a72:	8a 08                	mov    (%rax),%cl
  404a74:	80 c1 1f             	add    $0x1f,%cl
  404a77:	80 e1 1f             	and    $0x1f,%cl
  404a7a:	0f b6 c9             	movzbl %cl,%ecx
  404a7d:	ba ff ff ff ff       	mov    $0xffffffff,%edx
  404a82:	d3 e2                	shl    %cl,%edx
  404a84:	48 8b 4d f0          	mov    -0x10(%rbp),%rcx
  404a88:	83 f2 ff             	xor    $0xffffffff,%edx
  404a8b:	89 d2                	mov    %edx,%edx
  404a8d:	48 01 d0             	add    %rdx,%rax
  404a90:	8a 10                	mov    (%rax),%dl
  404a92:	80 c2 ff             	add    $0xff,%dl
  404a95:	48 29 c8             	sub    %rcx,%rax
  404a98:	48 c1 e0 03          	shl    $0x3,%rax
  404a9c:	c0 ea 05             	shr    $0x5,%dl
  404a9f:	b1 08                	mov    $0x8,%cl
  404aa1:	28 d1                	sub    %dl,%cl
  404aa3:	0f b6 c9             	movzbl %cl,%ecx
  404aa6:	48 01 c8             	add    %rcx,%rax
  404aa9:	48 89 45 d0          	mov    %rax,-0x30(%rbp)
  404aad:	48 8b 55 d8          	mov    -0x28(%rbp),%rdx
  404ab1:	48 8b 45 d0          	mov    -0x30(%rbp),%rax
  404ab5:	48 89 45 c0          	mov    %rax,-0x40(%rbp)
  404ab9:	48 89 d1             	mov    %rdx,%rcx
  404abc:	48 83 c1 10          	add    $0x10,%rcx
  404ac0:	48 89 4d c8          	mov    %rcx,-0x38(%rbp)
  404ac4:	48 01 d0             	add    %rdx,%rax
  404ac7:	48 39 c8             	cmp    %rcx,%rax
  404aca:	0f 87 c9 00 00 00    	ja     404b99 <internal_start+0x1d9>
  404ad0:	8a 45 ff             	mov    -0x1(%rbp),%al
  404ad3:	48 8b 4d d8          	mov    -0x28(%rbp),%rcx
  404ad7:	48 83 c1 0f          	add    $0xf,%rcx
  404adb:	48 c1 e9 03          	shr    $0x3,%rcx
  404adf:	48 89 ca             	mov    %rcx,%rdx
  404ae2:	48 81 c2 00 80 ff 7f 	add    $0x7fff8000,%rdx
  404ae9:	48 89 55 b0          	mov    %rdx,-0x50(%rbp)
  404aed:	48 81 c1 01 80 ff 7f 	add    $0x7fff8001,%rcx
  404af4:	48 89 4d b8          	mov    %rcx,-0x48(%rbp)
  404af8:	a8 01                	test   $0x1,%al
  404afa:	0f 85 05 00 00 00    	jne    404b05 <internal_start+0x145>
  404b00:	e9 12 00 00 00       	jmpq   404b17 <internal_start+0x157>
  404b05:	48 8b 55 c0          	mov    -0x40(%rbp),%rdx
  404b09:	48 8b 7d d8          	mov    -0x28(%rbp),%rdi
  404b0d:	be 10 00 00 00       	mov    $0x10,%esi
  404b12:	e8 79 22 00 00       	callq  406d90 <__cocheck__reportError>
  404b17:	48 8b 45 f0          	mov    -0x10(%rbp),%rax
  404b1b:	8a 4d fe             	mov    -0x2(%rbp),%cl
  404b1e:	80 c1 ff             	add    $0xff,%cl
  404b21:	0f b6 c9             	movzbl %cl,%ecx
  404b24:	89 4d a8             	mov    %ecx,-0x58(%rbp)
  404b27:	ba 01 00 00 00       	mov    $0x1,%edx
  404b2c:	d3 e2                	shl    %cl,%edx
  404b2e:	48 8b 4d b8          	mov    -0x48(%rbp),%rcx
  404b32:	89 55 ac             	mov    %edx,-0x54(%rbp)
  404b35:	c1 e2 01             	shl    $0x1,%edx
  404b38:	48 63 d2             	movslq %edx,%rdx
  404b3b:	48 01 d0             	add    %rdx,%rax
  404b3e:	48 39 c8             	cmp    %rcx,%rax
  404b41:	0f 86 1e 00 00 00    	jbe    404b65 <internal_start+0x1a5>
  404b47:	8b 4d a8             	mov    -0x58(%rbp),%ecx
  404b4a:	48 8b 45 b8          	mov    -0x48(%rbp),%rax
  404b4e:	8b 55 ac             	mov    -0x54(%rbp),%edx
  404b51:	48 63 d2             	movslq %edx,%rdx
  404b54:	48 29 d0             	sub    %rdx,%rax
  404b57:	0f b6 00             	movzbl (%rax),%eax
  404b5a:	83 c0 ff             	add    $0xffffffff,%eax
  404b5d:	39 c8                	cmp    %ecx,%eax
  404b5f:	0f 84 12 00 00 00    	je     404b77 <internal_start+0x1b7>
  404b65:	48 8b 55 c0          	mov    -0x40(%rbp),%rdx
  404b69:	48 8b 7d d8          	mov    -0x28(%rbp),%rdi
  404b6d:	be 10 00 00 00       	mov    $0x10,%esi
  404b72:	e8 19 22 00 00       	callq  406d90 <__cocheck__reportError>
  404b77:	48 8b 45 b0          	mov    -0x50(%rbp),%rax
  404b7b:	8a 00                	mov    (%rax),%al
  404b7d:	24 1f                	and    $0x1f,%al
  404b7f:	3c 01                	cmp    $0x1,%al
  404b81:	0f 85 12 00 00 00    	jne    404b99 <internal_start+0x1d9>
  404b87:	48 8b 55 c0          	mov    -0x40(%rbp),%rdx
  404b8b:	48 8b 7d d8          	mov    -0x28(%rbp),%rdi
  404b8f:	be 10 00 00 00       	mov    $0x10,%esi
  404b94:	e8 f7 21 00 00       	callq  406d90 <__cocheck__reportError>
  404b99:	48 8b 45 e0          	mov    -0x20(%rbp),%rax
  404b9d:	48 8b 4d c8          	mov    -0x38(%rbp),%rcx
  404ba1:	48 8b 39             	mov    (%rcx),%rdi
  404ba4:	ff d0                	callq  *%rax
  404ba6:	31 c0                	xor    %eax,%eax
  404ba8:	89 c7                	mov    %eax,%edi
  404baa:	e8 11 c7 ff ff       	callq  4012c0 <pthread_exit@plt>
  404baf:	90                   	nop

0000000000404bb0 <stdThreadJoin>:
  404bb0:	55                   	push   %rbp
  404bb1:	48 89 e5             	mov    %rsp,%rbp
  404bb4:	48 81 ec 10 01 00 00 	sub    $0x110,%rsp
  404bbb:	48 89 7d c0          	mov    %rdi,-0x40(%rbp)
  404bbf:	48 8d 4d f8          	lea    -0x8(%rbp),%rcx
  404bc3:	48 89 4d c8          	mov    %rcx,-0x38(%rbp)
  404bc7:	48 89 ca             	mov    %rcx,%rdx
  404bca:	48 83 c2 08          	add    $0x8,%rdx
  404bce:	48 89 55 d0          	mov    %rdx,-0x30(%rbp)
  404bd2:	48 89 c8             	mov    %rcx,%rax
  404bd5:	48 c1 e8 08          	shr    $0x8,%rax
  404bd9:	48 89 45 d8          	mov    %rax,-0x28(%rbp)
  404bdd:	48 81 e1 00 ff ff ff 	and    $0xffffffffffffff00,%rcx
  404be4:	48 89 4d e0          	mov    %rcx,-0x20(%rbp)
  404be8:	48 89 d1             	mov    %rdx,%rcx
  404beb:	48 c1 e9 08          	shr    $0x8,%rcx
  404bef:	48 89 4d e8          	mov    %rcx,-0x18(%rbp)
  404bf3:	48 81 e2 00 ff ff ff 	and    $0xffffffffffffff00,%rdx
  404bfa:	48 89 55 f0          	mov    %rdx,-0x10(%rbp)
  404bfe:	48 39 c8             	cmp    %rcx,%rax
  404c01:	0f 84 a9 00 00 00    	je     404cb0 <stdThreadJoin+0x100>
  404c07:	48 8b 45 d8          	mov    -0x28(%rbp),%rax
  404c0b:	48 8b 4d e0          	mov    -0x20(%rbp),%rcx
  404c0f:	48 8b 55 c8          	mov    -0x38(%rbp),%rdx
  404c13:	48 39 d1             	cmp    %rdx,%rcx
  404c16:	0f 94 c1             	sete   %cl
  404c19:	88 4d af             	mov    %cl,-0x51(%rbp)
  404c1c:	f6 c1 01             	test   $0x1,%cl
  404c1f:	48 89 c1             	mov    %rax,%rcx
  404c22:	48 89 4d b0          	mov    %rcx,-0x50(%rbp)
  404c26:	48 89 45 b8          	mov    %rax,-0x48(%rbp)
  404c2a:	0f 85 05 00 00 00    	jne    404c35 <stdThreadJoin+0x85>
  404c30:	e9 d4 00 00 00       	jmpq   404d09 <stdThreadJoin+0x159>
  404c35:	48 8b 4d b0          	mov    -0x50(%rbp),%rcx
  404c39:	48 89 4d a0          	mov    %rcx,-0x60(%rbp)
  404c3d:	48 8b 04 25 e0 81 61 	mov    0x6181e0,%rax
  404c44:	00 
  404c45:	80 3c 08 00          	cmpb   $0x0,(%rax,%rcx,1)
  404c49:	0f 84 28 00 00 00    	je     404c77 <stdThreadJoin+0xc7>
  404c4f:	48 8b 7d a0          	mov    -0x60(%rbp),%rdi
  404c53:	48 c1 e7 05          	shl    $0x5,%rdi
  404c57:	48 b8 e0 ff ff ff ff 	movabs $0x1fffffffffffffe0,%rax
  404c5e:	ff ff 1f 
  404c61:	48 21 c7             	and    %rax,%rdi
  404c64:	48 81 c7 00 80 ff 7f 	add    $0x7fff8000,%rdi
  404c6b:	31 f6                	xor    %esi,%esi
  404c6d:	ba 20 00 00 00       	mov    $0x20,%edx
  404c72:	e8 59 c4 ff ff       	callq  4010d0 <memset@plt>
  404c77:	48 8b 4d e8          	mov    -0x18(%rbp),%rcx
  404c7b:	48 8b 45 a0          	mov    -0x60(%rbp),%rax
  404c7f:	48 8b 75 d0          	mov    -0x30(%rbp),%rsi
  404c83:	48 69 d0 00 ff ff ff 	imul   $0xffffffffffffff00,%rax,%rdx
  404c8a:	48 01 f2             	add    %rsi,%rdx
  404c8d:	89 d6                	mov    %edx,%esi
  404c8f:	48 8b 14 25 d8 81 61 	mov    0x6181d8,%rdx
  404c96:	00 
  404c97:	89 34 82             	mov    %esi,(%rdx,%rax,4)
  404c9a:	48 83 c0 01          	add    $0x1,%rax
  404c9e:	48 39 c8             	cmp    %rcx,%rax
  404ca1:	48 89 45 b0          	mov    %rax,-0x50(%rbp)
  404ca5:	0f 84 ea 00 00 00    	je     404d95 <stdThreadJoin+0x1e5>
  404cab:	e9 85 ff ff ff       	jmpq   404c35 <stdThreadJoin+0x85>
  404cb0:	48 8b 4d d8          	mov    -0x28(%rbp),%rcx
  404cb4:	48 8b 04 25 e8 81 61 	mov    0x6181e8,%rax
  404cbb:	00 
  404cbc:	48 89 c2             	mov    %rax,%rdx
  404cbf:	48 01 ca             	add    %rcx,%rdx
  404cc2:	48 89 55 98          	mov    %rdx,-0x68(%rbp)
  404cc6:	80 3c 08 00          	cmpb   $0x0,(%rax,%rcx,1)
  404cca:	0f 85 25 00 00 00    	jne    404cf5 <stdThreadJoin+0x145>
  404cd0:	48 8b 7d e0          	mov    -0x20(%rbp),%rdi
  404cd4:	48 8b 45 98          	mov    -0x68(%rbp),%rax
  404cd8:	c6 00 01             	movb   $0x1,(%rax)
  404cdb:	48 c1 ef 03          	shr    $0x3,%rdi
  404cdf:	48 81 c7 00 80 ff 7f 	add    $0x7fff8000,%rdi
  404ce6:	be ff 00 00 00       	mov    $0xff,%esi
  404ceb:	ba 20 00 00 00       	mov    $0x20,%edx
  404cf0:	e8 db c3 ff ff       	callq  4010d0 <memset@plt>
  404cf5:	48 8b 45 c8          	mov    -0x38(%rbp),%rax
  404cf9:	48 c1 e8 03          	shr    $0x3,%rax
  404cfd:	c6 80 00 80 ff 7f 01 	movb   $0x1,0x7fff8000(%rax)
  404d04:	e9 88 05 00 00       	jmpq   405291 <stdThreadJoin+0x6e1>
  404d09:	48 8b 55 d8          	mov    -0x28(%rbp),%rdx
  404d0d:	48 8b 4d b8          	mov    -0x48(%rbp),%rcx
  404d11:	48 89 4d 90          	mov    %rcx,-0x70(%rbp)
  404d15:	48 8b 04 25 e0 81 61 	mov    0x6181e0,%rax
  404d1c:	00 
  404d1d:	80 3c 08 00          	cmpb   $0x0,(%rax,%rcx,1)
  404d21:	0f 95 c0             	setne  %al
  404d24:	48 39 d1             	cmp    %rdx,%rcx
  404d27:	0f 95 c1             	setne  %cl
  404d2a:	20 c8                	and    %cl,%al
  404d2c:	a8 01                	test   $0x1,%al
  404d2e:	0f 85 05 00 00 00    	jne    404d39 <stdThreadJoin+0x189>
  404d34:	e9 28 00 00 00       	jmpq   404d61 <stdThreadJoin+0x1b1>
  404d39:	48 8b 7d 90          	mov    -0x70(%rbp),%rdi
  404d3d:	48 c1 e7 05          	shl    $0x5,%rdi
  404d41:	48 b8 e0 ff ff ff ff 	movabs $0x1fffffffffffffe0,%rax
  404d48:	ff ff 1f 
  404d4b:	48 21 c7             	and    %rax,%rdi
  404d4e:	48 81 c7 00 80 ff 7f 	add    $0x7fff8000,%rdi
  404d55:	31 f6                	xor    %esi,%esi
  404d57:	ba 20 00 00 00       	mov    $0x20,%edx
  404d5c:	e8 6f c3 ff ff       	callq  4010d0 <memset@plt>
  404d61:	48 8b 4d e8          	mov    -0x18(%rbp),%rcx
  404d65:	48 8b 45 90          	mov    -0x70(%rbp),%rax
  404d69:	48 8b 75 d0          	mov    -0x30(%rbp),%rsi
  404d6d:	48 69 d0 00 ff ff ff 	imul   $0xffffffffffffff00,%rax,%rdx
  404d74:	48 01 f2             	add    %rsi,%rdx
  404d77:	89 d6                	mov    %edx,%esi
  404d79:	48 8b 14 25 d8 81 61 	mov    0x6181d8,%rdx
  404d80:	00 
  404d81:	89 34 82             	mov    %esi,(%rdx,%rax,4)
  404d84:	48 83 c0 01          	add    $0x1,%rax
  404d88:	48 39 c8             	cmp    %rcx,%rax
  404d8b:	48 89 45 b8          	mov    %rax,-0x48(%rbp)
  404d8f:	0f 85 74 ff ff ff    	jne    404d09 <stdThreadJoin+0x159>
  404d95:	8a 45 af             	mov    -0x51(%rbp),%al
  404d98:	a8 01                	test   $0x1,%al
  404d9a:	0f 85 05 00 00 00    	jne    404da5 <stdThreadJoin+0x1f5>
  404da0:	e9 16 00 00 00       	jmpq   404dbb <stdThreadJoin+0x20b>
  404da5:	48 8b 4d d8          	mov    -0x28(%rbp),%rcx
  404da9:	48 8b 04 25 e0 81 61 	mov    0x6181e0,%rax
  404db0:	00 
  404db1:	80 3c 08 00          	cmpb   $0x0,(%rax,%rcx,1)
  404db5:	0f 84 7a 00 00 00    	je     404e35 <stdThreadJoin+0x285>
  404dbb:	48 8b 4d d8          	mov    -0x28(%rbp),%rcx
  404dbf:	48 8b 55 e0          	mov    -0x20(%rbp),%rdx
  404dc3:	48 8b 75 c8          	mov    -0x38(%rbp),%rsi
  404dc7:	b8 00 01 00 00       	mov    $0x100,%eax
  404dcc:	48 29 f0             	sub    %rsi,%rax
  404dcf:	48 01 d0             	add    %rdx,%rax
  404dd2:	48 89 45 80          	mov    %rax,-0x80(%rbp)
  404dd6:	48 8b 04 25 e8 81 61 	mov    0x6181e8,%rax
  404ddd:	00 
  404dde:	48 89 c2             	mov    %rax,%rdx
  404de1:	48 01 ca             	add    %rcx,%rdx
  404de4:	48 89 55 88          	mov    %rdx,-0x78(%rbp)
  404de8:	80 3c 08 00          	cmpb   $0x0,(%rax,%rcx,1)
  404dec:	0f 85 25 00 00 00    	jne    404e17 <stdThreadJoin+0x267>
  404df2:	48 8b 7d e0          	mov    -0x20(%rbp),%rdi
  404df6:	48 8b 45 88          	mov    -0x78(%rbp),%rax
  404dfa:	c6 00 01             	movb   $0x1,(%rax)
  404dfd:	48 c1 ef 03          	shr    $0x3,%rdi
  404e01:	48 81 c7 00 80 ff 7f 	add    $0x7fff8000,%rdi
  404e08:	be ff 00 00 00       	mov    $0xff,%esi
  404e0d:	ba 20 00 00 00       	mov    $0x20,%edx
  404e12:	e8 b9 c2 ff ff       	callq  4010d0 <memset@plt>
  404e17:	48 8b 55 80          	mov    -0x80(%rbp),%rdx
  404e1b:	48 8b 7d c8          	mov    -0x38(%rbp),%rdi
  404e1f:	48 c1 ef 03          	shr    $0x3,%rdi
  404e23:	48 81 c7 00 80 ff 7f 	add    $0x7fff8000,%rdi
  404e2a:	48 c1 ea 03          	shr    $0x3,%rdx
  404e2e:	31 f6                	xor    %esi,%esi
  404e30:	e8 9b c2 ff ff       	callq  4010d0 <memset@plt>
  404e35:	48 8b 45 d0          	mov    -0x30(%rbp),%rax
  404e39:	48 8b 4d f0          	mov    -0x10(%rbp),%rcx
  404e3d:	48 39 c8             	cmp    %rcx,%rax
  404e40:	0f 84 4b 04 00 00    	je     405291 <stdThreadJoin+0x6e1>
  404e46:	48 8b 4d e8          	mov    -0x18(%rbp),%rcx
  404e4a:	48 8b 45 d0          	mov    -0x30(%rbp),%rax
  404e4e:	48 25 f8 00 00 00    	and    $0xf8,%rax
  404e54:	48 89 85 70 ff ff ff 	mov    %rax,-0x90(%rbp)
  404e5b:	48 8b 04 25 e8 81 61 	mov    0x6181e8,%rax
  404e62:	00 
  404e63:	48 89 c2             	mov    %rax,%rdx
  404e66:	48 01 ca             	add    %rcx,%rdx
  404e69:	48 89 95 78 ff ff ff 	mov    %rdx,-0x88(%rbp)
  404e70:	80 3c 08 00          	cmpb   $0x0,(%rax,%rcx,1)
  404e74:	0f 84 1a 00 00 00    	je     404e94 <stdThreadJoin+0x2e4>
  404e7a:	48 8b 45 f0          	mov    -0x10(%rbp),%rax
  404e7e:	48 c1 e8 03          	shr    $0x3,%rax
  404e82:	48 05 00 80 ff 7f    	add    $0x7fff8000,%rax
  404e88:	48 89 85 68 ff ff ff 	mov    %rax,-0x98(%rbp)
  404e8f:	e9 3d 00 00 00       	jmpq   404ed1 <stdThreadJoin+0x321>
  404e94:	48 8b 7d f0          	mov    -0x10(%rbp),%rdi
  404e98:	48 8b 85 78 ff ff ff 	mov    -0x88(%rbp),%rax
  404e9f:	c6 00 01             	movb   $0x1,(%rax)
  404ea2:	48 c1 ef 03          	shr    $0x3,%rdi
  404ea6:	48 81 c7 00 80 ff 7f 	add    $0x7fff8000,%rdi
  404ead:	48 89 bd 60 ff ff ff 	mov    %rdi,-0xa0(%rbp)
  404eb4:	be ff 00 00 00       	mov    $0xff,%esi
  404eb9:	ba 20 00 00 00       	mov    $0x20,%edx
  404ebe:	e8 0d c2 ff ff       	callq  4010d0 <memset@plt>
  404ec3:	48 8b 85 60 ff ff ff 	mov    -0xa0(%rbp),%rax
  404eca:	48 89 85 68 ff ff ff 	mov    %rax,-0x98(%rbp)
  404ed1:	48 8b 85 70 ff ff ff 	mov    -0x90(%rbp),%rax
  404ed8:	48 8b 4d c8          	mov    -0x38(%rbp),%rcx
  404edc:	48 8b 95 68 ff ff ff 	mov    -0x98(%rbp),%rdx
  404ee3:	48 89 95 40 ff ff ff 	mov    %rdx,-0xc0(%rbp)
  404eea:	48 c1 e9 03          	shr    $0x3,%rcx
  404eee:	48 89 8d 48 ff ff ff 	mov    %rcx,-0xb8(%rbp)
  404ef5:	48 89 ca             	mov    %rcx,%rdx
  404ef8:	48 81 c2 00 80 ff 7f 	add    $0x7fff8000,%rdx
  404eff:	48 89 95 50 ff ff ff 	mov    %rdx,-0xb0(%rbp)
  404f06:	48 81 c1 01 80 ff 7f 	add    $0x7fff8001,%rcx
  404f0d:	48 89 8d 58 ff ff ff 	mov    %rcx,-0xa8(%rbp)
  404f14:	48 3d 81 00 00 00    	cmp    $0x81,%rax
  404f1a:	0f 83 7c 02 00 00    	jae    40519c <stdThreadJoin+0x5ec>
  404f20:	48 8b 85 70 ff ff ff 	mov    -0x90(%rbp),%rax
  404f27:	48 c1 e8 03          	shr    $0x3,%rax
  404f2b:	48 83 c0 ff          	add    $0xffffffffffffffff,%rax
  404f2f:	48 89 85 38 ff ff ff 	mov    %rax,-0xc8(%rbp)
  404f36:	48 83 e8 0f          	sub    $0xf,%rax
  404f3a:	0f 87 51 03 00 00    	ja     405291 <stdThreadJoin+0x6e1>
  404f40:	48 8b 85 38 ff ff ff 	mov    -0xc8(%rbp),%rax
  404f47:	48 8b 04 c5 68 4b 41 	mov    0x414b68(,%rax,8),%rax
  404f4e:	00 
  404f4f:	ff e0                	jmpq   *%rax
  404f51:	48 8b 85 50 ff ff ff 	mov    -0xb0(%rbp),%rax
  404f58:	c6 00 01             	movb   $0x1,(%rax)
  404f5b:	e9 31 03 00 00       	jmpq   405291 <stdThreadJoin+0x6e1>
  404f60:	48 8b 85 48 ff ff ff 	mov    -0xb8(%rbp),%rax
  404f67:	66 c7 80 ff 7f ff 7f 	movw   $0x102,0x7fff7fff(%rax)
  404f6e:	02 01 
  404f70:	e9 1c 03 00 00       	jmpq   405291 <stdThreadJoin+0x6e1>
  404f75:	48 8b 85 48 ff ff ff 	mov    -0xb8(%rbp),%rax
  404f7c:	48 8b 8d 50 ff ff ff 	mov    -0xb0(%rbp),%rcx
  404f83:	c6 01 01             	movb   $0x1,(%rcx)
  404f86:	66 c7 80 fe 7f ff 7f 	movw   $0x202,0x7fff7ffe(%rax)
  404f8d:	02 02 
  404f8f:	e9 fd 02 00 00       	jmpq   405291 <stdThreadJoin+0x6e1>
  404f94:	48 8b 85 48 ff ff ff 	mov    -0xb8(%rbp),%rax
  404f9b:	c7 80 fd 7f ff 7f 03 	movl   $0x1020203,0x7fff7ffd(%rax)
  404fa2:	02 02 01 
  404fa5:	e9 e7 02 00 00       	jmpq   405291 <stdThreadJoin+0x6e1>
  404faa:	48 8b 85 48 ff ff ff 	mov    -0xb8(%rbp),%rax
  404fb1:	48 8b 8d 50 ff ff ff 	mov    -0xb0(%rbp),%rcx
  404fb8:	c6 01 01             	movb   $0x1,(%rcx)
  404fbb:	c7 80 fc 7f ff 7f 03 	movl   $0x2020303,0x7fff7ffc(%rax)
  404fc2:	03 02 02 
  404fc5:	e9 c7 02 00 00       	jmpq   405291 <stdThreadJoin+0x6e1>
  404fca:	48 8b 85 48 ff ff ff 	mov    -0xb8(%rbp),%rax
  404fd1:	66 c7 80 ff 7f ff 7f 	movw   $0x102,0x7fff7fff(%rax)
  404fd8:	02 01 
  404fda:	c7 80 fb 7f ff 7f 03 	movl   $0x2030303,0x7fff7ffb(%rax)
  404fe1:	03 03 02 
  404fe4:	e9 a8 02 00 00       	jmpq   405291 <stdThreadJoin+0x6e1>
  404fe9:	48 8b 85 48 ff ff ff 	mov    -0xb8(%rbp),%rax
  404ff0:	48 8b 8d 50 ff ff ff 	mov    -0xb0(%rbp),%rcx
  404ff7:	c6 01 01             	movb   $0x1,(%rcx)
  404ffa:	66 c7 80 fe 7f ff 7f 	movw   $0x202,0x7fff7ffe(%rax)
  405001:	02 02 
  405003:	c7 80 fa 7f ff 7f 03 	movl   $0x3030303,0x7fff7ffa(%rax)
  40500a:	03 03 03 
  40500d:	e9 7f 02 00 00       	jmpq   405291 <stdThreadJoin+0x6e1>
  405012:	48 8b 85 48 ff ff ff 	mov    -0xb8(%rbp),%rax
  405019:	48 b9 04 03 03 03 03 	movabs $0x102020303030304,%rcx
  405020:	02 02 01 
  405023:	48 89 88 f9 7f ff 7f 	mov    %rcx,0x7fff7ff9(%rax)
  40502a:	e9 62 02 00 00       	jmpq   405291 <stdThreadJoin+0x6e1>
  40502f:	48 8b 85 48 ff ff ff 	mov    -0xb8(%rbp),%rax
  405036:	48 8b 8d 50 ff ff ff 	mov    -0xb0(%rbp),%rcx
  40503d:	c6 01 01             	movb   $0x1,(%rcx)
  405040:	48 b9 04 04 03 03 03 	movabs $0x202030303030404,%rcx
  405047:	03 02 02 
  40504a:	48 89 88 f8 7f ff 7f 	mov    %rcx,0x7fff7ff8(%rax)
  405051:	e9 3b 02 00 00       	jmpq   405291 <stdThreadJoin+0x6e1>
  405056:	48 8b 85 48 ff ff ff 	mov    -0xb8(%rbp),%rax
  40505d:	66 c7 80 ff 7f ff 7f 	movw   $0x102,0x7fff7fff(%rax)
  405064:	02 01 
  405066:	48 b9 04 04 04 03 03 	movabs $0x203030303040404,%rcx
  40506d:	03 03 02 
  405070:	48 89 88 f7 7f ff 7f 	mov    %rcx,0x7fff7ff7(%rax)
  405077:	e9 15 02 00 00       	jmpq   405291 <stdThreadJoin+0x6e1>
  40507c:	48 8b 85 48 ff ff ff 	mov    -0xb8(%rbp),%rax
  405083:	48 8b 8d 50 ff ff ff 	mov    -0xb0(%rbp),%rcx
  40508a:	c6 01 01             	movb   $0x1,(%rcx)
  40508d:	66 c7 80 fe 7f ff 7f 	movw   $0x202,0x7fff7ffe(%rax)
  405094:	02 02 
  405096:	48 b9 04 04 04 04 03 	movabs $0x303030304040404,%rcx
  40509d:	03 03 03 
  4050a0:	48 89 88 f6 7f ff 7f 	mov    %rcx,0x7fff7ff6(%rax)
  4050a7:	e9 e5 01 00 00       	jmpq   405291 <stdThreadJoin+0x6e1>
  4050ac:	48 8b 85 48 ff ff ff 	mov    -0xb8(%rbp),%rax
  4050b3:	c7 80 fd 7f ff 7f 03 	movl   $0x1020203,0x7fff7ffd(%rax)
  4050ba:	02 02 01 
  4050bd:	48 b9 04 04 04 04 04 	movabs $0x303030404040404,%rcx
  4050c4:	03 03 03 
  4050c7:	48 89 88 f5 7f ff 7f 	mov    %rcx,0x7fff7ff5(%rax)
  4050ce:	e9 be 01 00 00       	jmpq   405291 <stdThreadJoin+0x6e1>
  4050d3:	48 8b 85 48 ff ff ff 	mov    -0xb8(%rbp),%rax
  4050da:	48 8b 8d 50 ff ff ff 	mov    -0xb0(%rbp),%rcx
  4050e1:	c6 01 01             	movb   $0x1,(%rcx)
  4050e4:	c7 80 fc 7f ff 7f 03 	movl   $0x2020303,0x7fff7ffc(%rax)
  4050eb:	03 02 02 
  4050ee:	48 b9 04 04 04 04 04 	movabs $0x303040404040404,%rcx
  4050f5:	04 03 03 
  4050f8:	48 89 88 f4 7f ff 7f 	mov    %rcx,0x7fff7ff4(%rax)
  4050ff:	e9 8d 01 00 00       	jmpq   405291 <stdThreadJoin+0x6e1>
  405104:	48 8b 85 48 ff ff ff 	mov    -0xb8(%rbp),%rax
  40510b:	66 c7 80 ff 7f ff 7f 	movw   $0x102,0x7fff7fff(%rax)
  405112:	02 01 
  405114:	c7 80 fb 7f ff 7f 03 	movl   $0x2030303,0x7fff7ffb(%rax)
  40511b:	03 03 02 
  40511e:	48 b9 04 04 04 04 04 	movabs $0x304040404040404,%rcx
  405125:	04 04 03 
  405128:	48 89 88 f3 7f ff 7f 	mov    %rcx,0x7fff7ff3(%rax)
  40512f:	e9 5d 01 00 00       	jmpq   405291 <stdThreadJoin+0x6e1>
  405134:	48 8b 85 48 ff ff ff 	mov    -0xb8(%rbp),%rax
  40513b:	48 8b 8d 50 ff ff ff 	mov    -0xb0(%rbp),%rcx
  405142:	c6 01 01             	movb   $0x1,(%rcx)
  405145:	66 c7 80 fe 7f ff 7f 	movw   $0x202,0x7fff7ffe(%rax)
  40514c:	02 02 
  40514e:	c7 80 fa 7f ff 7f 03 	movl   $0x3030303,0x7fff7ffa(%rax)
  405155:	03 03 03 
  405158:	48 b9 04 04 04 04 04 	movabs $0x404040404040404,%rcx
  40515f:	04 04 04 
  405162:	48 89 88 f2 7f ff 7f 	mov    %rcx,0x7fff7ff2(%rax)
  405169:	e9 23 01 00 00       	jmpq   405291 <stdThreadJoin+0x6e1>
  40516e:	48 8b 85 48 ff ff ff 	mov    -0xb8(%rbp),%rax
  405175:	48 b9 04 03 03 03 03 	movabs $0x102020303030304,%rcx
  40517c:	02 02 01 
  40517f:	48 89 88 f9 7f ff 7f 	mov    %rcx,0x7fff7ff9(%rax)
  405186:	48 b9 05 04 04 04 04 	movabs $0x404040404040405,%rcx
  40518d:	04 04 04 
  405190:	48 89 88 f1 7f ff 7f 	mov    %rcx,0x7fff7ff1(%rax)
  405197:	e9 f5 00 00 00       	jmpq   405291 <stdThreadJoin+0x6e1>
  40519c:	48 8b 95 40 ff ff ff 	mov    -0xc0(%rbp),%rdx
  4051a3:	48 8b 85 48 ff ff ff 	mov    -0xb8(%rbp),%rax
  4051aa:	48 b9 04 03 03 03 03 	movabs $0x102020303030304,%rcx
  4051b1:	02 02 01 
  4051b4:	48 89 88 f9 7f ff 7f 	mov    %rcx,0x7fff7ff9(%rax)
  4051bb:	48 89 c1             	mov    %rax,%rcx
  4051be:	48 81 c1 f1 7f ff 7f 	add    $0x7fff7ff1,%rcx
  4051c5:	48 be 05 04 04 04 04 	movabs $0x404040404040405,%rsi
  4051cc:	04 04 04 
  4051cf:	48 89 b0 f1 7f ff 7f 	mov    %rsi,0x7fff7ff1(%rax)
  4051d6:	b8 04 00 00 00       	mov    $0x4,%eax
  4051db:	48 39 d1             	cmp    %rdx,%rcx
  4051de:	48 89 8d 28 ff ff ff 	mov    %rcx,-0xd8(%rbp)
  4051e5:	48 89 85 30 ff ff ff 	mov    %rax,-0xd0(%rbp)
  4051ec:	0f 82 9f 00 00 00    	jb     405291 <stdThreadJoin+0x6e1>
  4051f2:	48 8b 85 30 ff ff ff 	mov    -0xd0(%rbp),%rax
  4051f9:	48 8b 95 28 ff ff ff 	mov    -0xd8(%rbp),%rdx
  405200:	48 8b bd 58 ff ff ff 	mov    -0xa8(%rbp),%rdi
  405207:	48 83 c0 01          	add    $0x1,%rax
  40520b:	48 89 85 20 ff ff ff 	mov    %rax,-0xe0(%rbp)
  405212:	89 c1                	mov    %eax,%ecx
  405214:	be 01 00 00 00       	mov    $0x1,%esi
  405219:	d3 e6                	shl    %cl,%esi
  40521b:	48 8b 8d 40 ff ff ff 	mov    -0xc0(%rbp),%rcx
  405222:	48 63 f6             	movslq %esi,%rsi
  405225:	48 29 f7             	sub    %rsi,%rdi
  405228:	48 89 bd 18 ff ff ff 	mov    %rdi,-0xe8(%rbp)
  40522f:	48 83 c7 01          	add    $0x1,%rdi
  405233:	48 89 bd f8 fe ff ff 	mov    %rdi,-0x108(%rbp)
  40523a:	48 39 cf             	cmp    %rcx,%rdi
  40523d:	48 0f 42 f9          	cmovb  %rcx,%rdi
  405241:	48 89 bd 00 ff ff ff 	mov    %rdi,-0x100(%rbp)
  405248:	48 83 c2 01          	add    $0x1,%rdx
  40524c:	48 89 95 08 ff ff ff 	mov    %rdx,-0xf8(%rbp)
  405253:	48 29 fa             	sub    %rdi,%rdx
  405256:	48 89 95 10 ff ff ff 	mov    %rdx,-0xf0(%rbp)
  40525d:	0f b6 f0             	movzbl %al,%esi
  405260:	e8 6b be ff ff       	callq  4010d0 <memset@plt>
  405265:	48 8b 95 40 ff ff ff 	mov    -0xc0(%rbp),%rdx
  40526c:	48 8b 8d 18 ff ff ff 	mov    -0xe8(%rbp),%rcx
  405273:	48 8b 85 20 ff ff ff 	mov    -0xe0(%rbp),%rax
  40527a:	48 39 d1             	cmp    %rdx,%rcx
  40527d:	48 89 8d 28 ff ff ff 	mov    %rcx,-0xd8(%rbp)
  405284:	48 89 85 30 ff ff ff 	mov    %rax,-0xd0(%rbp)
  40528b:	0f 83 61 ff ff ff    	jae    4051f2 <stdThreadJoin+0x642>
  405291:	48 8b 45 c0          	mov    -0x40(%rbp),%rax
  405295:	48 8b 38             	mov    (%rax),%rdi
  405298:	48 8d 75 f8          	lea    -0x8(%rbp),%rsi
  40529c:	e8 0f be ff ff       	callq  4010b0 <pthread_join@plt>
  4052a1:	83 f8 00             	cmp    $0x0,%eax
  4052a4:	0f 94 c0             	sete   %al
  4052a7:	24 01                	and    $0x1,%al
  4052a9:	0f b6 c0             	movzbl %al,%eax
  4052ac:	48 81 c4 10 01 00 00 	add    $0x110,%rsp
  4052b3:	5d                   	pop    %rbp
  4052b4:	c3                   	retq   
  4052b5:	66 2e 0f 1f 84 00 00 	nopw   %cs:0x0(%rax,%rax,1)
  4052bc:	00 00 00 
  4052bf:	90                   	nop

00000000004052c0 <stdThreadDestroy>:
  4052c0:	55                   	push   %rbp
  4052c1:	48 89 e5             	mov    %rsp,%rbp
  4052c4:	e8 87 5d 00 00       	callq  40b050 <free>
  4052c9:	b8 01 00 00 00       	mov    $0x1,%eax
  4052ce:	5d                   	pop    %rbp
  4052cf:	c3                   	retq   

00000000004052d0 <stdThreadLockCreate>:
  4052d0:	55                   	push   %rbp
  4052d1:	48 89 e5             	mov    %rsp,%rbp
  4052d4:	48 83 ec 20          	sub    $0x20,%rsp
  4052d8:	48 89 7d e8          	mov    %rdi,-0x18(%rbp)
  4052dc:	48 c7 07 00 00 00 00 	movq   $0x0,(%rdi)
  4052e3:	bf 28 00 00 00       	mov    $0x28,%edi
  4052e8:	e8 73 1d 00 00       	callq  407060 <malloc>
  4052ed:	48 89 c1             	mov    %rax,%rcx
  4052f0:	48 89 4d f0          	mov    %rcx,-0x10(%rbp)
  4052f4:	31 c0                	xor    %eax,%eax
  4052f6:	48 83 f9 00          	cmp    $0x0,%rcx
  4052fa:	89 45 fc             	mov    %eax,-0x4(%rbp)
  4052fd:	0f 84 3c 00 00 00    	je     40533f <stdThreadLockCreate+0x6f>
  405303:	48 8b 7d f0          	mov    -0x10(%rbp),%rdi
  405307:	31 c0                	xor    %eax,%eax
  405309:	89 c6                	mov    %eax,%esi
  40530b:	e8 70 bf ff ff       	callq  401280 <pthread_mutex_init@plt>
  405310:	83 f8 00             	cmp    $0x0,%eax
  405313:	0f 84 13 00 00 00    	je     40532c <stdThreadLockCreate+0x5c>
  405319:	48 8b 7d e8          	mov    -0x18(%rbp),%rdi
  40531d:	e8 2e 5d 00 00       	callq  40b050 <free>
  405322:	31 c0                	xor    %eax,%eax
  405324:	89 45 fc             	mov    %eax,-0x4(%rbp)
  405327:	e9 13 00 00 00       	jmpq   40533f <stdThreadLockCreate+0x6f>
  40532c:	48 8b 45 e8          	mov    -0x18(%rbp),%rax
  405330:	48 8b 4d f0          	mov    -0x10(%rbp),%rcx
  405334:	48 89 08             	mov    %rcx,(%rax)
  405337:	b8 01 00 00 00       	mov    $0x1,%eax
  40533c:	89 45 fc             	mov    %eax,-0x4(%rbp)
  40533f:	8b 45 fc             	mov    -0x4(%rbp),%eax
  405342:	48 83 c4 20          	add    $0x20,%rsp
  405346:	5d                   	pop    %rbp
  405347:	c3                   	retq   
  405348:	0f 1f 84 00 00 00 00 	nopl   0x0(%rax,%rax,1)
  40534f:	00 

0000000000405350 <stdThreadLockAcquire>:
  405350:	55                   	push   %rbp
  405351:	48 89 e5             	mov    %rsp,%rbp
  405354:	5d                   	pop    %rbp
  405355:	e9 16 bf ff ff       	jmpq   401270 <pthread_mutex_lock@plt>
  40535a:	66 0f 1f 44 00 00    	nopw   0x0(%rax,%rax,1)

0000000000405360 <stdThreadLockRelease>:
  405360:	55                   	push   %rbp
  405361:	48 89 e5             	mov    %rsp,%rbp
  405364:	5d                   	pop    %rbp
  405365:	e9 c6 bd ff ff       	jmpq   401130 <pthread_mutex_unlock@plt>
  40536a:	66 0f 1f 44 00 00    	nopw   0x0(%rax,%rax,1)

0000000000405370 <stdThreadLockDestroy>:
  405370:	55                   	push   %rbp
  405371:	48 89 e5             	mov    %rsp,%rbp
  405374:	48 83 ec 10          	sub    $0x10,%rsp
  405378:	48 89 7d f8          	mov    %rdi,-0x8(%rbp)
  40537c:	e8 6f be ff ff       	callq  4011f0 <pthread_mutex_destroy@plt>
  405381:	48 8b 7d f8          	mov    -0x8(%rbp),%rdi
  405385:	48 83 c4 10          	add    $0x10,%rsp
  405389:	5d                   	pop    %rbp
  40538a:	e9 c1 5c 00 00       	jmpq   40b050 <free>
  40538f:	90                   	nop

0000000000405390 <asan.module_ctor>:
  405390:	50                   	push   %rax
  405391:	e8 3a 74 00 00       	callq  40c7d0 <__cocheck__globalInit>
  405396:	bf d0 81 61 00       	mov    $0x6181d0,%edi
  40539b:	be 08 00 00 00       	mov    $0x8,%esi
  4053a0:	48 89 34 24          	mov    %rsi,(%rsp)
  4053a4:	e8 37 74 00 00       	callq  40c7e0 <__cocheck__globalRegister>
  4053a9:	48 8b 34 24          	mov    (%rsp),%rsi
  4053ad:	bf d8 81 61 00       	mov    $0x6181d8,%edi
  4053b2:	e8 29 74 00 00       	callq  40c7e0 <__cocheck__globalRegister>
  4053b7:	48 8b 34 24          	mov    (%rsp),%rsi
  4053bb:	bf e0 81 61 00       	mov    $0x6181e0,%edi
  4053c0:	e8 1b 74 00 00       	callq  40c7e0 <__cocheck__globalRegister>
  4053c5:	bf e8 81 61 00       	mov    $0x6181e8,%edi
  4053ca:	be 08 00 00 00       	mov    $0x8,%esi
  4053cf:	58                   	pop    %rax
  4053d0:	e9 0b 74 00 00       	jmpq   40c7e0 <__cocheck__globalRegister>
  4053d5:	66 2e 0f 1f 84 00 00 	nopw   %cs:0x0(%rax,%rax,1)
  4053dc:	00 00 00 
  4053df:	90                   	nop

00000000004053e0 <__cocheck__recheck>:
  4053e0:	48 81 ec a8 00 00 00 	sub    $0xa8,%rsp
  4053e7:	48 89 7c 24 20       	mov    %rdi,0x20(%rsp)
  4053ec:	48 89 74 24 18       	mov    %rsi,0x18(%rsp)
  4053f1:	48 89 54 24 10       	mov    %rdx,0x10(%rsp)
  4053f6:	48 8b 54 24 20       	mov    0x20(%rsp),%rdx
  4053fb:	48 8b 4c 24 18       	mov    0x18(%rsp),%rcx
  405400:	48 8b 44 24 10       	mov    0x10(%rsp),%rax
  405405:	48 89 54 24 48       	mov    %rdx,0x48(%rsp)
  40540a:	48 89 4c 24 40       	mov    %rcx,0x40(%rsp)
  40540f:	48 89 44 24 38       	mov    %rax,0x38(%rsp)
  405414:	48 8b 44 24 48       	mov    0x48(%rsp),%rax
  405419:	48 89 44 24 30       	mov    %rax,0x30(%rsp)
  40541e:	48 8b 44 24 40       	mov    0x40(%rsp),%rax
  405423:	48 89 44 24 28       	mov    %rax,0x28(%rsp)
  405428:	48 8b 54 24 40       	mov    0x40(%rsp),%rdx
  40542d:	48 8b 4c 24 30       	mov    0x30(%rsp),%rcx
  405432:	48 2b 4c 24 28       	sub    0x28(%rsp),%rcx
  405437:	48 83 c1 01          	add    $0x1,%rcx
  40543b:	48 8b 44 24 38       	mov    0x38(%rsp),%rax
  405440:	48 89 54 24 60       	mov    %rdx,0x60(%rsp)
  405445:	48 89 4c 24 58       	mov    %rcx,0x58(%rsp)
  40544a:	48 89 44 24 50       	mov    %rax,0x50(%rsp)
  40544f:	48 8b 54 24 60       	mov    0x60(%rsp),%rdx
  405454:	48 8b 4c 24 58       	mov    0x58(%rsp),%rcx
  405459:	48 83 e9 01          	sub    $0x1,%rcx
  40545d:	48 8b 44 24 50       	mov    0x50(%rsp),%rax
  405462:	48 89 94 24 a0 00 00 	mov    %rdx,0xa0(%rsp)
  405469:	00 
  40546a:	48 89 8c 24 98 00 00 	mov    %rcx,0x98(%rsp)
  405471:	00 
  405472:	48 89 84 24 90 00 00 	mov    %rax,0x90(%rsp)
  405479:	00 
  40547a:	48 8b 84 24 a0 00 00 	mov    0xa0(%rsp),%rax
  405481:	00 
  405482:	48 89 84 24 88 00 00 	mov    %rax,0x88(%rsp)
  405489:	00 
  40548a:	48 8b 84 24 88 00 00 	mov    0x88(%rsp),%rax
  405491:	00 
  405492:	48 c1 e8 03          	shr    $0x3,%rax
  405496:	48 05 00 80 ff 7f    	add    $0x7fff8000,%rax
  40549c:	48 89 84 24 80 00 00 	mov    %rax,0x80(%rsp)
  4054a3:	00 
  4054a4:	48 8b 84 24 88 00 00 	mov    0x88(%rsp),%rax
  4054ab:	00 
  4054ac:	48 03 84 24 98 00 00 	add    0x98(%rsp),%rax
  4054b3:	00 
  4054b4:	48 83 e8 01          	sub    $0x1,%rax
  4054b8:	48 c1 e8 03          	shr    $0x3,%rax
  4054bc:	48 05 00 80 ff 7f    	add    $0x7fff8000,%rax
  4054c2:	48 83 c0 01          	add    $0x1,%rax
  4054c6:	48 89 44 24 78       	mov    %rax,0x78(%rsp)
  4054cb:	48 8b 84 24 80 00 00 	mov    0x80(%rsp),%rax
  4054d2:	00 
  4054d3:	8a 00                	mov    (%rax),%al
  4054d5:	88 44 24 77          	mov    %al,0x77(%rsp)
  4054d9:	0f b6 44 24 77       	movzbl 0x77(%rsp),%eax
  4054de:	83 e8 01             	sub    $0x1,%eax
  4054e1:	88 44 24 76          	mov    %al,0x76(%rsp)
  4054e5:	0f b6 44 24 77       	movzbl 0x77(%rsp),%eax
  4054ea:	83 f8 00             	cmp    $0x0,%eax
  4054ed:	0f 85 1d 00 00 00    	jne    405510 <__cocheck__recheck+0x130>
  4054f3:	48 8b bc 24 a0 00 00 	mov    0xa0(%rsp),%rdi
  4054fa:	00 
  4054fb:	48 8b b4 24 98 00 00 	mov    0x98(%rsp),%rsi
  405502:	00 
  405503:	48 8b 94 24 90 00 00 	mov    0x90(%rsp),%rdx
  40550a:	00 
  40550b:	e8 80 18 00 00       	callq  406d90 <__cocheck__reportError>
  405510:	48 83 bc 24 98 00 00 	cmpq   $0x8,0x98(%rsp)
  405517:	00 08 
  405519:	0f 87 46 00 00 00    	ja     405565 <__cocheck__recheck+0x185>
  40551f:	0f b6 44 24 76       	movzbl 0x76(%rsp),%eax
  405524:	c1 f8 05             	sar    $0x5,%eax
  405527:	48 98                	cltq   
  405529:	48 03 84 24 98 00 00 	add    0x98(%rsp),%rax
  405530:	00 
  405531:	48 83 f8 08          	cmp    $0x8,%rax
  405535:	0f 82 1d 00 00 00    	jb     405558 <__cocheck__recheck+0x178>
  40553b:	48 8b bc 24 a0 00 00 	mov    0xa0(%rsp),%rdi
  405542:	00 
  405543:	48 8b b4 24 98 00 00 	mov    0x98(%rsp),%rsi
  40554a:	00 
  40554b:	48 8b 94 24 90 00 00 	mov    0x90(%rsp),%rdx
  405552:	00 
  405553:	e8 38 18 00 00       	callq  406d90 <__cocheck__reportError>
  405558:	c7 44 24 70 01 00 00 	movl   $0x1,0x70(%rsp)
  40555f:	00 
  405560:	e9 11 01 00 00       	jmpq   405676 <__cocheck__recheck+0x296>
  405565:	48 8b 84 24 80 00 00 	mov    0x80(%rsp),%rax
  40556c:	00 
  40556d:	48 89 04 24          	mov    %rax,(%rsp)
  405571:	0f b6 4c 24 76       	movzbl 0x76(%rsp),%ecx
  405576:	b8 01 00 00 00       	mov    $0x1,%eax
  40557b:	d3 e0                	shl    %cl,%eax
  40557d:	48 8b 0c 24          	mov    (%rsp),%rcx
  405581:	c1 e0 01             	shl    $0x1,%eax
  405584:	48 98                	cltq   
  405586:	48 01 c1             	add    %rax,%rcx
  405589:	b0 01                	mov    $0x1,%al
  40558b:	48 3b 4c 24 78       	cmp    0x78(%rsp),%rcx
  405590:	88 44 24 0f          	mov    %al,0xf(%rsp)
  405594:	0f 86 2d 00 00 00    	jbe    4055c7 <__cocheck__recheck+0x1e7>
  40559a:	48 8b 44 24 78       	mov    0x78(%rsp),%rax
  40559f:	0f b6 4c 24 76       	movzbl 0x76(%rsp),%ecx
  4055a4:	ba 01 00 00 00       	mov    $0x1,%edx
  4055a9:	d3 e2                	shl    %cl,%edx
  4055ab:	89 d1                	mov    %edx,%ecx
  4055ad:	48 63 c9             	movslq %ecx,%rcx
  4055b0:	48 29 c8             	sub    %rcx,%rax
  4055b3:	0f b6 00             	movzbl (%rax),%eax
  4055b6:	83 e8 01             	sub    $0x1,%eax
  4055b9:	0f b6 4c 24 76       	movzbl 0x76(%rsp),%ecx
  4055be:	39 c8                	cmp    %ecx,%eax
  4055c0:	0f 95 c0             	setne  %al
  4055c3:	88 44 24 0f          	mov    %al,0xf(%rsp)
  4055c7:	8a 44 24 0f          	mov    0xf(%rsp),%al
  4055cb:	24 01                	and    $0x1,%al
  4055cd:	0f b6 c0             	movzbl %al,%eax
  4055d0:	89 44 24 6c          	mov    %eax,0x6c(%rsp)
  4055d4:	48 63 44 24 6c       	movslq 0x6c(%rsp),%rax
  4055d9:	48 83 f8 00          	cmp    $0x0,%rax
  4055dd:	0f 84 1d 00 00 00    	je     405600 <__cocheck__recheck+0x220>
  4055e3:	48 8b bc 24 a0 00 00 	mov    0xa0(%rsp),%rdi
  4055ea:	00 
  4055eb:	48 8b b4 24 98 00 00 	mov    0x98(%rsp),%rsi
  4055f2:	00 
  4055f3:	48 8b 94 24 90 00 00 	mov    0x90(%rsp),%rdx
  4055fa:	00 
  4055fb:	e8 90 17 00 00       	callq  406d90 <__cocheck__reportError>
  405600:	48 8b 44 24 78       	mov    0x78(%rsp),%rax
  405605:	48 83 e8 01          	sub    $0x1,%rax
  405609:	8a 00                	mov    (%rax),%al
  40560b:	88 44 24 6b          	mov    %al,0x6b(%rsp)
  40560f:	0f b6 44 24 6b       	movzbl 0x6b(%rsp),%eax
  405614:	83 e0 1f             	and    $0x1f,%eax
  405617:	83 f8 01             	cmp    $0x1,%eax
  40561a:	0f 85 4e 00 00 00    	jne    40566e <__cocheck__recheck+0x28e>
  405620:	48 8b 84 24 98 00 00 	mov    0x98(%rsp),%rax
  405627:	00 
  405628:	48 83 e8 01          	sub    $0x1,%rax
  40562c:	48 83 e0 07          	and    $0x7,%rax
  405630:	48 83 c0 01          	add    $0x1,%rax
  405634:	0f b6 4c 24 6b       	movzbl 0x6b(%rsp),%ecx
  405639:	c1 f9 05             	sar    $0x5,%ecx
  40563c:	48 63 c9             	movslq %ecx,%rcx
  40563f:	48 01 c8             	add    %rcx,%rax
  405642:	48 83 f8 08          	cmp    $0x8,%rax
  405646:	0f 82 1d 00 00 00    	jb     405669 <__cocheck__recheck+0x289>
  40564c:	48 8b bc 24 a0 00 00 	mov    0xa0(%rsp),%rdi
  405653:	00 
  405654:	48 8b b4 24 98 00 00 	mov    0x98(%rsp),%rsi
  40565b:	00 
  40565c:	48 8b 94 24 90 00 00 	mov    0x90(%rsp),%rdx
  405663:	00 
  405664:	e8 27 17 00 00       	callq  406d90 <__cocheck__reportError>
  405669:	e9 00 00 00 00       	jmpq   40566e <__cocheck__recheck+0x28e>
  40566e:	c7 44 24 70 00 00 00 	movl   $0x0,0x70(%rsp)
  405675:	00 
  405676:	48 81 c4 a8 00 00 00 	add    $0xa8,%rsp
  40567d:	c3                   	retq   
  40567e:	66 90                	xchg   %ax,%ax

0000000000405680 <__cocheck__loadGuardian>:
  405680:	48 89 7c 24 f0       	mov    %rdi,-0x10(%rsp)
  405685:	48 89 74 24 e8       	mov    %rsi,-0x18(%rsp)
  40568a:	48 8b 44 24 f0       	mov    -0x10(%rsp),%rax
  40568f:	48 c1 e8 03          	shr    $0x3,%rax
  405693:	48 05 00 80 ff 7f    	add    $0x7fff8000,%rax
  405699:	48 89 44 24 e0       	mov    %rax,-0x20(%rsp)
  40569e:	48 8b 44 24 e0       	mov    -0x20(%rsp),%rax
  4056a3:	0f b6 00             	movzbl (%rax),%eax
  4056a6:	83 e8 01             	sub    $0x1,%eax
  4056a9:	88 44 24 df          	mov    %al,-0x21(%rsp)
  4056ad:	0f b6 44 24 df       	movzbl -0x21(%rsp),%eax
  4056b2:	3d ff 00 00 00       	cmp    $0xff,%eax
  4056b7:	0f 85 42 00 00 00    	jne    4056ff <__cocheck__loadGuardian+0x7f>
  4056bd:	48 8b 44 24 f0       	mov    -0x10(%rsp),%rax
  4056c2:	48 c1 e8 08          	shr    $0x8,%rax
  4056c6:	48 89 44 24 d0       	mov    %rax,-0x30(%rsp)
  4056cb:	48 8b 04 25 f0 81 61 	mov    0x6181f0,%rax
  4056d2:	00 
  4056d3:	48 8b 4c 24 d0       	mov    -0x30(%rsp),%rcx
  4056d8:	48 63 04 88          	movslq (%rax,%rcx,4),%rax
  4056dc:	48 8b 4c 24 d0       	mov    -0x30(%rsp),%rcx
  4056e1:	48 c1 e1 08          	shl    $0x8,%rcx
  4056e5:	48 01 c8             	add    %rcx,%rax
  4056e8:	48 2b 44 24 f0       	sub    -0x10(%rsp),%rax
  4056ed:	48 89 44 24 f8       	mov    %rax,-0x8(%rsp)
  4056f2:	c7 44 24 cc 01 00 00 	movl   $0x1,-0x34(%rsp)
  4056f9:	00 
  4056fa:	e9 c5 00 00 00       	jmpq   4057c4 <__cocheck__loadGuardian+0x144>
  4056ff:	48 8b 44 24 e0       	mov    -0x20(%rsp),%rax
  405704:	0f b6 4c 24 df       	movzbl -0x21(%rsp),%ecx
  405709:	83 e1 1f             	and    $0x1f,%ecx
  40570c:	ba 01 00 00 00       	mov    $0x1,%edx
  405711:	d3 e2                	shl    %cl,%edx
  405713:	89 d1                	mov    %edx,%ecx
  405715:	48 63 c9             	movslq %ecx,%rcx
  405718:	48 01 c8             	add    %rcx,%rax
  40571b:	48 83 e8 01          	sub    $0x1,%rax
  40571f:	48 89 44 24 c0       	mov    %rax,-0x40(%rsp)
  405724:	48 8b 44 24 c0       	mov    -0x40(%rsp),%rax
  405729:	0f b6 00             	movzbl (%rax),%eax
  40572c:	83 e8 01             	sub    $0x1,%eax
  40572f:	88 44 24 df          	mov    %al,-0x21(%rsp)
  405733:	0f b6 4c 24 df       	movzbl -0x21(%rsp),%ecx
  405738:	83 e1 1f             	and    $0x1f,%ecx
  40573b:	b8 01 00 00 00       	mov    $0x1,%eax
  405740:	d3 e0                	shl    %cl,%eax
  405742:	83 e8 01             	sub    $0x1,%eax
  405745:	48 98                	cltq   
  405747:	48 03 44 24 c0       	add    -0x40(%rsp),%rax
  40574c:	48 89 44 24 c0       	mov    %rax,-0x40(%rsp)
  405751:	48 8b 44 24 c0       	mov    -0x40(%rsp),%rax
  405756:	0f b6 00             	movzbl (%rax),%eax
  405759:	83 e8 01             	sub    $0x1,%eax
  40575c:	88 44 24 df          	mov    %al,-0x21(%rsp)
  405760:	0f b6 4c 24 df       	movzbl -0x21(%rsp),%ecx
  405765:	83 e1 1f             	and    $0x1f,%ecx
  405768:	b8 01 00 00 00       	mov    $0x1,%eax
  40576d:	d3 e0                	shl    %cl,%eax
  40576f:	83 e8 01             	sub    $0x1,%eax
  405772:	48 98                	cltq   
  405774:	48 03 44 24 c0       	add    -0x40(%rsp),%rax
  405779:	48 89 44 24 c0       	mov    %rax,-0x40(%rsp)
  40577e:	48 8b 44 24 c0       	mov    -0x40(%rsp),%rax
  405783:	0f b6 00             	movzbl (%rax),%eax
  405786:	83 e8 01             	sub    $0x1,%eax
  405789:	88 44 24 df          	mov    %al,-0x21(%rsp)
  40578d:	48 8b 44 24 c0       	mov    -0x40(%rsp),%rax
  405792:	48 2b 44 24 e0       	sub    -0x20(%rsp),%rax
  405797:	48 83 c0 01          	add    $0x1,%rax
  40579b:	48 c1 e0 03          	shl    $0x3,%rax
  40579f:	0f b6 4c 24 df       	movzbl -0x21(%rsp),%ecx
  4057a4:	c1 f9 05             	sar    $0x5,%ecx
  4057a7:	48 63 c9             	movslq %ecx,%rcx
  4057aa:	48 29 c8             	sub    %rcx,%rax
  4057ad:	48 89 44 24 b8       	mov    %rax,-0x48(%rsp)
  4057b2:	48 8b 44 24 b8       	mov    -0x48(%rsp),%rax
  4057b7:	48 89 44 24 f8       	mov    %rax,-0x8(%rsp)
  4057bc:	c7 44 24 cc 01 00 00 	movl   $0x1,-0x34(%rsp)
  4057c3:	00 
  4057c4:	48 8b 44 24 f8       	mov    -0x8(%rsp),%rax
  4057c9:	c3                   	retq   
  4057ca:	66 0f 1f 44 00 00    	nopw   0x0(%rax,%rax,1)

00000000004057d0 <__cocheck__SequentCheck>:
  4057d0:	48 81 ec 88 00 00 00 	sub    $0x88,%rsp
  4057d7:	48 89 7c 24 28       	mov    %rdi,0x28(%rsp)
  4057dc:	48 89 74 24 20       	mov    %rsi,0x20(%rsp)
  4057e1:	48 89 54 24 18       	mov    %rdx,0x18(%rsp)
  4057e6:	48 83 7c 24 20 00    	cmpq   $0x0,0x20(%rsp)
  4057ec:	0f 85 05 00 00 00    	jne    4057f7 <__cocheck__SequentCheck+0x27>
  4057f2:	e9 0b 02 00 00       	jmpq   405a02 <__cocheck__SequentCheck+0x232>
  4057f7:	48 8b 54 24 28       	mov    0x28(%rsp),%rdx
  4057fc:	48 8b 4c 24 20       	mov    0x20(%rsp),%rcx
  405801:	48 8b 44 24 18       	mov    0x18(%rsp),%rax
  405806:	48 89 54 24 40       	mov    %rdx,0x40(%rsp)
  40580b:	48 89 4c 24 38       	mov    %rcx,0x38(%rsp)
  405810:	48 89 44 24 30       	mov    %rax,0x30(%rsp)
  405815:	48 8b 54 24 40       	mov    0x40(%rsp),%rdx
  40581a:	48 8b 4c 24 38       	mov    0x38(%rsp),%rcx
  40581f:	48 83 e9 01          	sub    $0x1,%rcx
  405823:	48 8b 44 24 30       	mov    0x30(%rsp),%rax
  405828:	48 89 94 24 80 00 00 	mov    %rdx,0x80(%rsp)
  40582f:	00 
  405830:	48 89 4c 24 78       	mov    %rcx,0x78(%rsp)
  405835:	48 89 44 24 70       	mov    %rax,0x70(%rsp)
  40583a:	48 8b 84 24 80 00 00 	mov    0x80(%rsp),%rax
  405841:	00 
  405842:	48 89 44 24 68       	mov    %rax,0x68(%rsp)
  405847:	48 8b 44 24 68       	mov    0x68(%rsp),%rax
  40584c:	48 c1 e8 03          	shr    $0x3,%rax
  405850:	48 05 00 80 ff 7f    	add    $0x7fff8000,%rax
  405856:	48 89 44 24 60       	mov    %rax,0x60(%rsp)
  40585b:	48 8b 44 24 68       	mov    0x68(%rsp),%rax
  405860:	48 03 44 24 78       	add    0x78(%rsp),%rax
  405865:	48 83 e8 01          	sub    $0x1,%rax
  405869:	48 c1 e8 03          	shr    $0x3,%rax
  40586d:	48 05 00 80 ff 7f    	add    $0x7fff8000,%rax
  405873:	48 83 c0 01          	add    $0x1,%rax
  405877:	48 89 44 24 58       	mov    %rax,0x58(%rsp)
  40587c:	48 8b 44 24 60       	mov    0x60(%rsp),%rax
  405881:	8a 00                	mov    (%rax),%al
  405883:	88 44 24 57          	mov    %al,0x57(%rsp)
  405887:	0f b6 44 24 57       	movzbl 0x57(%rsp),%eax
  40588c:	83 e8 01             	sub    $0x1,%eax
  40588f:	88 44 24 56          	mov    %al,0x56(%rsp)
  405893:	0f b6 44 24 57       	movzbl 0x57(%rsp),%eax
  405898:	83 f8 00             	cmp    $0x0,%eax
  40589b:	0f 85 17 00 00 00    	jne    4058b8 <__cocheck__SequentCheck+0xe8>
  4058a1:	48 8b bc 24 80 00 00 	mov    0x80(%rsp),%rdi
  4058a8:	00 
  4058a9:	48 8b 74 24 78       	mov    0x78(%rsp),%rsi
  4058ae:	48 8b 54 24 70       	mov    0x70(%rsp),%rdx
  4058b3:	e8 d8 14 00 00       	callq  406d90 <__cocheck__reportError>
  4058b8:	48 83 7c 24 78 08    	cmpq   $0x8,0x78(%rsp)
  4058be:	0f 87 3d 00 00 00    	ja     405901 <__cocheck__SequentCheck+0x131>
  4058c4:	0f b6 44 24 56       	movzbl 0x56(%rsp),%eax
  4058c9:	c1 f8 05             	sar    $0x5,%eax
  4058cc:	48 98                	cltq   
  4058ce:	48 03 44 24 78       	add    0x78(%rsp),%rax
  4058d3:	48 83 f8 08          	cmp    $0x8,%rax
  4058d7:	0f 82 17 00 00 00    	jb     4058f4 <__cocheck__SequentCheck+0x124>
  4058dd:	48 8b bc 24 80 00 00 	mov    0x80(%rsp),%rdi
  4058e4:	00 
  4058e5:	48 8b 74 24 78       	mov    0x78(%rsp),%rsi
  4058ea:	48 8b 54 24 70       	mov    0x70(%rsp),%rdx
  4058ef:	e8 9c 14 00 00       	callq  406d90 <__cocheck__reportError>
  4058f4:	c7 44 24 50 01 00 00 	movl   $0x1,0x50(%rsp)
  4058fb:	00 
  4058fc:	e9 01 01 00 00       	jmpq   405a02 <__cocheck__SequentCheck+0x232>
  405901:	48 8b 44 24 60       	mov    0x60(%rsp),%rax
  405906:	48 89 44 24 08       	mov    %rax,0x8(%rsp)
  40590b:	0f b6 4c 24 56       	movzbl 0x56(%rsp),%ecx
  405910:	b8 01 00 00 00       	mov    $0x1,%eax
  405915:	d3 e0                	shl    %cl,%eax
  405917:	48 8b 4c 24 08       	mov    0x8(%rsp),%rcx
  40591c:	c1 e0 01             	shl    $0x1,%eax
  40591f:	48 98                	cltq   
  405921:	48 01 c1             	add    %rax,%rcx
  405924:	b0 01                	mov    $0x1,%al
  405926:	48 3b 4c 24 58       	cmp    0x58(%rsp),%rcx
  40592b:	88 44 24 17          	mov    %al,0x17(%rsp)
  40592f:	0f 86 2d 00 00 00    	jbe    405962 <__cocheck__SequentCheck+0x192>
  405935:	48 8b 44 24 58       	mov    0x58(%rsp),%rax
  40593a:	0f b6 4c 24 56       	movzbl 0x56(%rsp),%ecx
  40593f:	ba 01 00 00 00       	mov    $0x1,%edx
  405944:	d3 e2                	shl    %cl,%edx
  405946:	89 d1                	mov    %edx,%ecx
  405948:	48 63 c9             	movslq %ecx,%rcx
  40594b:	48 29 c8             	sub    %rcx,%rax
  40594e:	0f b6 00             	movzbl (%rax),%eax
  405951:	83 e8 01             	sub    $0x1,%eax
  405954:	0f b6 4c 24 56       	movzbl 0x56(%rsp),%ecx
  405959:	39 c8                	cmp    %ecx,%eax
  40595b:	0f 95 c0             	setne  %al
  40595e:	88 44 24 17          	mov    %al,0x17(%rsp)
  405962:	8a 44 24 17          	mov    0x17(%rsp),%al
  405966:	24 01                	and    $0x1,%al
  405968:	0f b6 c0             	movzbl %al,%eax
  40596b:	89 44 24 4c          	mov    %eax,0x4c(%rsp)
  40596f:	48 63 44 24 4c       	movslq 0x4c(%rsp),%rax
  405974:	48 83 f8 00          	cmp    $0x0,%rax
  405978:	0f 84 17 00 00 00    	je     405995 <__cocheck__SequentCheck+0x1c5>
  40597e:	48 8b bc 24 80 00 00 	mov    0x80(%rsp),%rdi
  405985:	00 
  405986:	48 8b 74 24 78       	mov    0x78(%rsp),%rsi
  40598b:	48 8b 54 24 70       	mov    0x70(%rsp),%rdx
  405990:	e8 fb 13 00 00       	callq  406d90 <__cocheck__reportError>
  405995:	48 8b 44 24 58       	mov    0x58(%rsp),%rax
  40599a:	48 83 e8 01          	sub    $0x1,%rax
  40599e:	8a 00                	mov    (%rax),%al
  4059a0:	88 44 24 4b          	mov    %al,0x4b(%rsp)
  4059a4:	0f b6 44 24 4b       	movzbl 0x4b(%rsp),%eax
  4059a9:	83 e0 1f             	and    $0x1f,%eax
  4059ac:	83 f8 01             	cmp    $0x1,%eax
  4059af:	0f 85 45 00 00 00    	jne    4059fa <__cocheck__SequentCheck+0x22a>
  4059b5:	48 8b 44 24 78       	mov    0x78(%rsp),%rax
  4059ba:	48 83 e8 01          	sub    $0x1,%rax
  4059be:	48 83 e0 07          	and    $0x7,%rax
  4059c2:	48 83 c0 01          	add    $0x1,%rax
  4059c6:	0f b6 4c 24 4b       	movzbl 0x4b(%rsp),%ecx
  4059cb:	c1 f9 05             	sar    $0x5,%ecx
  4059ce:	48 63 c9             	movslq %ecx,%rcx
  4059d1:	48 01 c8             	add    %rcx,%rax
  4059d4:	48 83 f8 08          	cmp    $0x8,%rax
  4059d8:	0f 82 17 00 00 00    	jb     4059f5 <__cocheck__SequentCheck+0x225>
  4059de:	48 8b bc 24 80 00 00 	mov    0x80(%rsp),%rdi
  4059e5:	00 
  4059e6:	48 8b 74 24 78       	mov    0x78(%rsp),%rsi
  4059eb:	48 8b 54 24 70       	mov    0x70(%rsp),%rdx
  4059f0:	e8 9b 13 00 00       	callq  406d90 <__cocheck__reportError>
  4059f5:	e9 00 00 00 00       	jmpq   4059fa <__cocheck__SequentCheck+0x22a>
  4059fa:	c7 44 24 50 00 00 00 	movl   $0x0,0x50(%rsp)
  405a01:	00 
  405a02:	48 81 c4 88 00 00 00 	add    $0x88,%rsp
  405a09:	c3                   	retq   
  405a0a:	66 0f 1f 44 00 00    	nopw   0x0(%rax,%rax,1)

0000000000405a10 <__cocheck__PoisonStack>:
  405a10:	48 81 ec d8 01 00 00 	sub    $0x1d8,%rsp
  405a17:	48 89 7c 24 20       	mov    %rdi,0x20(%rsp)
  405a1c:	48 89 74 24 18       	mov    %rsi,0x18(%rsp)
  405a21:	48 8b 4c 24 20       	mov    0x20(%rsp),%rcx
  405a26:	48 8b 44 24 18       	mov    0x18(%rsp),%rax
  405a2b:	48 89 4c 24 68       	mov    %rcx,0x68(%rsp)
  405a30:	48 89 44 24 60       	mov    %rax,0x60(%rsp)
  405a35:	48 8b 44 24 68       	mov    0x68(%rsp),%rax
  405a3a:	48 89 44 24 58       	mov    %rax,0x58(%rsp)
  405a3f:	48 8b 44 24 58       	mov    0x58(%rsp),%rax
  405a44:	48 03 44 24 60       	add    0x60(%rsp),%rax
  405a49:	48 89 44 24 50       	mov    %rax,0x50(%rsp)
  405a4e:	48 8b 44 24 58       	mov    0x58(%rsp),%rax
  405a53:	48 c1 e8 08          	shr    $0x8,%rax
  405a57:	48 89 44 24 48       	mov    %rax,0x48(%rsp)
  405a5c:	48 8b 44 24 48       	mov    0x48(%rsp),%rax
  405a61:	48 c1 e0 08          	shl    $0x8,%rax
  405a65:	48 89 44 24 40       	mov    %rax,0x40(%rsp)
  405a6a:	48 8b 44 24 50       	mov    0x50(%rsp),%rax
  405a6f:	48 c1 e8 08          	shr    $0x8,%rax
  405a73:	48 89 44 24 38       	mov    %rax,0x38(%rsp)
  405a78:	48 8b 44 24 38       	mov    0x38(%rsp),%rax
  405a7d:	48 c1 e0 08          	shl    $0x8,%rax
  405a81:	48 89 44 24 30       	mov    %rax,0x30(%rsp)
  405a86:	48 8b 44 24 48       	mov    0x48(%rsp),%rax
  405a8b:	48 3b 44 24 38       	cmp    0x38(%rsp),%rax
  405a90:	0f 85 0d 06 00 00    	jne    4060a3 <__cocheck__PoisonStack+0x693>
  405a96:	48 8b 4c 24 68       	mov    0x68(%rsp),%rcx
  405a9b:	48 8b 44 24 60       	mov    0x60(%rsp),%rax
  405aa0:	48 89 8c 24 98 00 00 	mov    %rcx,0x98(%rsp)
  405aa7:	00 
  405aa8:	48 89 84 24 90 00 00 	mov    %rax,0x90(%rsp)
  405aaf:	00 
  405ab0:	c6 84 24 8f 00 00 00 	movb   $0x0,0x8f(%rsp)
  405ab7:	00 
  405ab8:	48 8b 84 24 98 00 00 	mov    0x98(%rsp),%rax
  405abf:	00 
  405ac0:	48 c1 e8 08          	shr    $0x8,%rax
  405ac4:	48 89 84 24 80 00 00 	mov    %rax,0x80(%rsp)
  405acb:	00 
  405acc:	48 8b 04 25 08 82 61 	mov    0x618208,%rax
  405ad3:	00 
  405ad4:	48 8b 8c 24 80 00 00 	mov    0x80(%rsp),%rcx
  405adb:	00 
  405adc:	80 3c 08 00          	cmpb   $0x0,(%rax,%rcx,1)
  405ae0:	0f 85 43 00 00 00    	jne    405b29 <__cocheck__PoisonStack+0x119>
  405ae6:	48 8b 04 25 08 82 61 	mov    0x618208,%rax
  405aed:	00 
  405aee:	48 8b 8c 24 80 00 00 	mov    0x80(%rsp),%rcx
  405af5:	00 
  405af6:	c6 04 08 01          	movb   $0x1,(%rax,%rcx,1)
  405afa:	48 8b 84 24 80 00 00 	mov    0x80(%rsp),%rax
  405b01:	00 
  405b02:	48 c1 e0 08          	shl    $0x8,%rax
  405b06:	48 c1 e8 03          	shr    $0x3,%rax
  405b0a:	48 05 00 80 ff 7f    	add    $0x7fff8000,%rax
  405b10:	48 89 44 24 78       	mov    %rax,0x78(%rsp)
  405b15:	48 8b 7c 24 78       	mov    0x78(%rsp),%rdi
  405b1a:	be ff 00 00 00       	mov    $0xff,%esi
  405b1f:	ba 20 00 00 00       	mov    $0x20,%edx
  405b24:	e8 a7 b5 ff ff       	callq  4010d0 <memset@plt>
  405b29:	80 bc 24 8f 00 00 00 	cmpb   $0x0,0x8f(%rsp)
  405b30:	00 
  405b31:	0f 85 f7 04 00 00    	jne    40602e <__cocheck__PoisonStack+0x61e>
  405b37:	48 8b 8c 24 98 00 00 	mov    0x98(%rsp),%rcx
  405b3e:	00 
  405b3f:	48 8b 84 24 90 00 00 	mov    0x90(%rsp),%rax
  405b46:	00 
  405b47:	48 89 8c 24 e0 00 00 	mov    %rcx,0xe0(%rsp)
  405b4e:	00 
  405b4f:	48 89 84 24 d8 00 00 	mov    %rax,0xd8(%rsp)
  405b56:	00 
  405b57:	48 8b 84 24 e0 00 00 	mov    0xe0(%rsp),%rax
  405b5e:	00 
  405b5f:	48 c1 e8 03          	shr    $0x3,%rax
  405b63:	48 05 00 80 ff 7f    	add    $0x7fff8000,%rax
  405b69:	48 89 84 24 d0 00 00 	mov    %rax,0xd0(%rsp)
  405b70:	00 
  405b71:	48 8b 84 24 e0 00 00 	mov    0xe0(%rsp),%rax
  405b78:	00 
  405b79:	48 03 84 24 d8 00 00 	add    0xd8(%rsp),%rax
  405b80:	00 
  405b81:	48 83 e8 01          	sub    $0x1,%rax
  405b85:	48 c1 e8 03          	shr    $0x3,%rax
  405b89:	48 05 00 80 ff 7f    	add    $0x7fff8000,%rax
  405b8f:	48 83 c0 01          	add    $0x1,%rax
  405b93:	48 89 84 24 c8 00 00 	mov    %rax,0xc8(%rsp)
  405b9a:	00 
  405b9b:	48 81 bc 24 d8 00 00 	cmpq   $0x80,0xd8(%rsp)
  405ba2:	00 80 00 00 00 
  405ba7:	0f 87 31 03 00 00    	ja     405ede <__cocheck__PoisonStack+0x4ce>
  405bad:	48 8b 84 24 d8 00 00 	mov    0xd8(%rsp),%rax
  405bb4:	00 
  405bb5:	48 83 c0 07          	add    $0x7,%rax
  405bb9:	48 c1 e8 03          	shr    $0x3,%rax
  405bbd:	48 89 84 24 c0 00 00 	mov    %rax,0xc0(%rsp)
  405bc4:	00 
  405bc5:	48 8b 84 24 c0 00 00 	mov    0xc0(%rsp),%rax
  405bcc:	00 
  405bcd:	48 83 c0 ff          	add    $0xffffffffffffffff,%rax
  405bd1:	48 89 44 24 10       	mov    %rax,0x10(%rsp)
  405bd6:	48 83 e8 0f          	sub    $0xf,%rax
  405bda:	0f 87 e9 02 00 00    	ja     405ec9 <__cocheck__PoisonStack+0x4b9>
  405be0:	48 8b 44 24 10       	mov    0x10(%rsp),%rax
  405be5:	48 8b 04 c5 e8 4c 41 	mov    0x414ce8(,%rax,8),%rax
  405bec:	00 
  405bed:	ff e0                	jmpq   *%rax
  405bef:	48 8b 84 24 c8 00 00 	mov    0xc8(%rsp),%rax
  405bf6:	00 
  405bf7:	48 83 e8 01          	sub    $0x1,%rax
  405bfb:	c6 00 01             	movb   $0x1,(%rax)
  405bfe:	e9 cb 02 00 00       	jmpq   405ece <__cocheck__PoisonStack+0x4be>
  405c03:	48 8b 84 24 c8 00 00 	mov    0xc8(%rsp),%rax
  405c0a:	00 
  405c0b:	48 83 e8 02          	sub    $0x2,%rax
  405c0f:	66 c7 00 02 01       	movw   $0x102,(%rax)
  405c14:	e9 b5 02 00 00       	jmpq   405ece <__cocheck__PoisonStack+0x4be>
  405c19:	48 8b 84 24 c8 00 00 	mov    0xc8(%rsp),%rax
  405c20:	00 
  405c21:	48 83 e8 01          	sub    $0x1,%rax
  405c25:	c6 00 01             	movb   $0x1,(%rax)
  405c28:	48 8b 84 24 c8 00 00 	mov    0xc8(%rsp),%rax
  405c2f:	00 
  405c30:	48 83 e8 03          	sub    $0x3,%rax
  405c34:	66 c7 00 02 02       	movw   $0x202,(%rax)
  405c39:	e9 90 02 00 00       	jmpq   405ece <__cocheck__PoisonStack+0x4be>
  405c3e:	48 8b 84 24 c8 00 00 	mov    0xc8(%rsp),%rax
  405c45:	00 
  405c46:	48 83 e8 04          	sub    $0x4,%rax
  405c4a:	c7 00 03 02 02 01    	movl   $0x1020203,(%rax)
  405c50:	e9 79 02 00 00       	jmpq   405ece <__cocheck__PoisonStack+0x4be>
  405c55:	48 8b 84 24 c8 00 00 	mov    0xc8(%rsp),%rax
  405c5c:	00 
  405c5d:	48 83 e8 01          	sub    $0x1,%rax
  405c61:	c6 00 01             	movb   $0x1,(%rax)
  405c64:	48 8b 84 24 c8 00 00 	mov    0xc8(%rsp),%rax
  405c6b:	00 
  405c6c:	48 83 e8 05          	sub    $0x5,%rax
  405c70:	c7 00 03 03 02 02    	movl   $0x2020303,(%rax)
  405c76:	e9 53 02 00 00       	jmpq   405ece <__cocheck__PoisonStack+0x4be>
  405c7b:	48 8b 84 24 c8 00 00 	mov    0xc8(%rsp),%rax
  405c82:	00 
  405c83:	48 83 e8 02          	sub    $0x2,%rax
  405c87:	66 c7 00 02 01       	movw   $0x102,(%rax)
  405c8c:	48 8b 84 24 c8 00 00 	mov    0xc8(%rsp),%rax
  405c93:	00 
  405c94:	48 83 e8 06          	sub    $0x6,%rax
  405c98:	c7 00 03 03 03 02    	movl   $0x2030303,(%rax)
  405c9e:	e9 2b 02 00 00       	jmpq   405ece <__cocheck__PoisonStack+0x4be>
  405ca3:	48 8b 84 24 c8 00 00 	mov    0xc8(%rsp),%rax
  405caa:	00 
  405cab:	48 83 e8 01          	sub    $0x1,%rax
  405caf:	c6 00 01             	movb   $0x1,(%rax)
  405cb2:	48 8b 84 24 c8 00 00 	mov    0xc8(%rsp),%rax
  405cb9:	00 
  405cba:	48 83 e8 03          	sub    $0x3,%rax
  405cbe:	66 c7 00 02 02       	movw   $0x202,(%rax)
  405cc3:	48 8b 84 24 c8 00 00 	mov    0xc8(%rsp),%rax
  405cca:	00 
  405ccb:	48 83 e8 07          	sub    $0x7,%rax
  405ccf:	c7 00 03 03 03 03    	movl   $0x3030303,(%rax)
  405cd5:	e9 f4 01 00 00       	jmpq   405ece <__cocheck__PoisonStack+0x4be>
  405cda:	48 8b 84 24 c8 00 00 	mov    0xc8(%rsp),%rax
  405ce1:	00 
  405ce2:	48 83 e8 08          	sub    $0x8,%rax
  405ce6:	48 b9 04 03 03 03 03 	movabs $0x102020303030304,%rcx
  405ced:	02 02 01 
  405cf0:	48 89 08             	mov    %rcx,(%rax)
  405cf3:	e9 d6 01 00 00       	jmpq   405ece <__cocheck__PoisonStack+0x4be>
  405cf8:	48 8b 84 24 c8 00 00 	mov    0xc8(%rsp),%rax
  405cff:	00 
  405d00:	48 83 e8 01          	sub    $0x1,%rax
  405d04:	c6 00 01             	movb   $0x1,(%rax)
  405d07:	48 8b 84 24 c8 00 00 	mov    0xc8(%rsp),%rax
  405d0e:	00 
  405d0f:	48 83 e8 09          	sub    $0x9,%rax
  405d13:	48 b9 04 04 03 03 03 	movabs $0x202030303030404,%rcx
  405d1a:	03 02 02 
  405d1d:	48 89 08             	mov    %rcx,(%rax)
  405d20:	e9 a9 01 00 00       	jmpq   405ece <__cocheck__PoisonStack+0x4be>
  405d25:	48 8b 84 24 c8 00 00 	mov    0xc8(%rsp),%rax
  405d2c:	00 
  405d2d:	48 83 e8 02          	sub    $0x2,%rax
  405d31:	66 c7 00 02 01       	movw   $0x102,(%rax)
  405d36:	48 8b 84 24 c8 00 00 	mov    0xc8(%rsp),%rax
  405d3d:	00 
  405d3e:	48 83 e8 0a          	sub    $0xa,%rax
  405d42:	48 b9 04 04 04 03 03 	movabs $0x203030303040404,%rcx
  405d49:	03 03 02 
  405d4c:	48 89 08             	mov    %rcx,(%rax)
  405d4f:	e9 7a 01 00 00       	jmpq   405ece <__cocheck__PoisonStack+0x4be>
  405d54:	48 8b 84 24 c8 00 00 	mov    0xc8(%rsp),%rax
  405d5b:	00 
  405d5c:	48 83 e8 01          	sub    $0x1,%rax
  405d60:	c6 00 01             	movb   $0x1,(%rax)
  405d63:	48 8b 84 24 c8 00 00 	mov    0xc8(%rsp),%rax
  405d6a:	00 
  405d6b:	48 83 e8 03          	sub    $0x3,%rax
  405d6f:	66 c7 00 02 02       	movw   $0x202,(%rax)
  405d74:	48 8b 84 24 c8 00 00 	mov    0xc8(%rsp),%rax
  405d7b:	00 
  405d7c:	48 83 e8 0b          	sub    $0xb,%rax
  405d80:	48 b9 04 04 04 04 03 	movabs $0x303030304040404,%rcx
  405d87:	03 03 03 
  405d8a:	48 89 08             	mov    %rcx,(%rax)
  405d8d:	e9 3c 01 00 00       	jmpq   405ece <__cocheck__PoisonStack+0x4be>
  405d92:	48 8b 84 24 c8 00 00 	mov    0xc8(%rsp),%rax
  405d99:	00 
  405d9a:	48 83 e8 04          	sub    $0x4,%rax
  405d9e:	c7 00 03 02 02 01    	movl   $0x1020203,(%rax)
  405da4:	48 8b 84 24 c8 00 00 	mov    0xc8(%rsp),%rax
  405dab:	00 
  405dac:	48 83 e8 0c          	sub    $0xc,%rax
  405db0:	48 b9 04 04 04 04 04 	movabs $0x303030404040404,%rcx
  405db7:	03 03 03 
  405dba:	48 89 08             	mov    %rcx,(%rax)
  405dbd:	e9 0c 01 00 00       	jmpq   405ece <__cocheck__PoisonStack+0x4be>
  405dc2:	48 8b 84 24 c8 00 00 	mov    0xc8(%rsp),%rax
  405dc9:	00 
  405dca:	48 83 e8 01          	sub    $0x1,%rax
  405dce:	c6 00 01             	movb   $0x1,(%rax)
  405dd1:	48 8b 84 24 c8 00 00 	mov    0xc8(%rsp),%rax
  405dd8:	00 
  405dd9:	48 83 e8 05          	sub    $0x5,%rax
  405ddd:	c7 00 03 03 02 02    	movl   $0x2020303,(%rax)
  405de3:	48 8b 84 24 c8 00 00 	mov    0xc8(%rsp),%rax
  405dea:	00 
  405deb:	48 83 e8 0d          	sub    $0xd,%rax
  405def:	48 b9 04 04 04 04 04 	movabs $0x303040404040404,%rcx
  405df6:	04 03 03 
  405df9:	48 89 08             	mov    %rcx,(%rax)
  405dfc:	e9 cd 00 00 00       	jmpq   405ece <__cocheck__PoisonStack+0x4be>
  405e01:	48 8b 84 24 c8 00 00 	mov    0xc8(%rsp),%rax
  405e08:	00 
  405e09:	48 83 e8 02          	sub    $0x2,%rax
  405e0d:	66 c7 00 02 01       	movw   $0x102,(%rax)
  405e12:	48 8b 84 24 c8 00 00 	mov    0xc8(%rsp),%rax
  405e19:	00 
  405e1a:	48 83 e8 06          	sub    $0x6,%rax
  405e1e:	c7 00 03 03 03 02    	movl   $0x2030303,(%rax)
  405e24:	48 8b 84 24 c8 00 00 	mov    0xc8(%rsp),%rax
  405e2b:	00 
  405e2c:	48 83 e8 0e          	sub    $0xe,%rax
  405e30:	48 b9 04 04 04 04 04 	movabs $0x304040404040404,%rcx
  405e37:	04 04 03 
  405e3a:	48 89 08             	mov    %rcx,(%rax)
  405e3d:	e9 8c 00 00 00       	jmpq   405ece <__cocheck__PoisonStack+0x4be>
  405e42:	48 8b 84 24 c8 00 00 	mov    0xc8(%rsp),%rax
  405e49:	00 
  405e4a:	48 83 e8 01          	sub    $0x1,%rax
  405e4e:	c6 00 01             	movb   $0x1,(%rax)
  405e51:	48 8b 84 24 c8 00 00 	mov    0xc8(%rsp),%rax
  405e58:	00 
  405e59:	48 83 e8 03          	sub    $0x3,%rax
  405e5d:	66 c7 00 02 02       	movw   $0x202,(%rax)
  405e62:	48 8b 84 24 c8 00 00 	mov    0xc8(%rsp),%rax
  405e69:	00 
  405e6a:	48 83 e8 07          	sub    $0x7,%rax
  405e6e:	c7 00 03 03 03 03    	movl   $0x3030303,(%rax)
  405e74:	48 8b 84 24 c8 00 00 	mov    0xc8(%rsp),%rax
  405e7b:	00 
  405e7c:	48 83 e8 0f          	sub    $0xf,%rax
  405e80:	48 b9 04 04 04 04 04 	movabs $0x404040404040404,%rcx
  405e87:	04 04 04 
  405e8a:	48 89 08             	mov    %rcx,(%rax)
  405e8d:	e9 3c 00 00 00       	jmpq   405ece <__cocheck__PoisonStack+0x4be>
  405e92:	48 8b 84 24 c8 00 00 	mov    0xc8(%rsp),%rax
  405e99:	00 
  405e9a:	48 83 e8 08          	sub    $0x8,%rax
  405e9e:	48 b9 04 03 03 03 03 	movabs $0x102020303030304,%rcx
  405ea5:	02 02 01 
  405ea8:	48 89 08             	mov    %rcx,(%rax)
  405eab:	48 8b 84 24 c8 00 00 	mov    0xc8(%rsp),%rax
  405eb2:	00 
  405eb3:	48 83 e8 10          	sub    $0x10,%rax
  405eb7:	48 b9 05 04 04 04 04 	movabs $0x404040404040405,%rcx
  405ebe:	04 04 04 
  405ec1:	48 89 08             	mov    %rcx,(%rax)
  405ec4:	e9 05 00 00 00       	jmpq   405ece <__cocheck__PoisonStack+0x4be>
  405ec9:	e9 00 00 00 00       	jmpq   405ece <__cocheck__PoisonStack+0x4be>
  405ece:	c7 84 24 bc 00 00 00 	movl   $0x1,0xbc(%rsp)
  405ed5:	01 00 00 00 
  405ed9:	e9 4b 01 00 00       	jmpq   406029 <__cocheck__PoisonStack+0x619>
  405ede:	48 8b 84 24 c8 00 00 	mov    0xc8(%rsp),%rax
  405ee5:	00 
  405ee6:	48 83 e8 08          	sub    $0x8,%rax
  405eea:	48 b9 04 03 03 03 03 	movabs $0x102020303030304,%rcx
  405ef1:	02 02 01 
  405ef4:	48 89 08             	mov    %rcx,(%rax)
  405ef7:	48 8b 84 24 c8 00 00 	mov    0xc8(%rsp),%rax
  405efe:	00 
  405eff:	48 83 e8 10          	sub    $0x10,%rax
  405f03:	48 b9 05 04 04 04 04 	movabs $0x404040404040405,%rcx
  405f0a:	04 04 04 
  405f0d:	48 89 08             	mov    %rcx,(%rax)
  405f10:	48 c7 84 24 b0 00 00 	movq   $0x4,0xb0(%rsp)
  405f17:	00 04 00 00 00 
  405f1c:	48 8b 84 24 c8 00 00 	mov    0xc8(%rsp),%rax
  405f23:	00 
  405f24:	48 8b 8c 24 b0 00 00 	mov    0xb0(%rsp),%rcx
  405f2b:	00 
  405f2c:	ba 01 00 00 00       	mov    $0x1,%edx
  405f31:	d3 e2                	shl    %cl,%edx
  405f33:	89 d1                	mov    %edx,%ecx
  405f35:	48 63 c9             	movslq %ecx,%rcx
  405f38:	48 29 c8             	sub    %rcx,%rax
  405f3b:	48 3b 84 24 d0 00 00 	cmp    0xd0(%rsp),%rax
  405f42:	00 
  405f43:	0f 83 1b 00 00 00    	jae    405f64 <__cocheck__PoisonStack+0x554>
  405f49:	c7 84 24 bc 00 00 00 	movl   $0x3,0xbc(%rsp)
  405f50:	03 00 00 00 
  405f54:	c7 84 24 bc 00 00 00 	movl   $0x0,0xbc(%rsp)
  405f5b:	00 00 00 00 
  405f5f:	e9 c5 00 00 00       	jmpq   406029 <__cocheck__PoisonStack+0x619>
  405f64:	48 8b 84 24 c8 00 00 	mov    0xc8(%rsp),%rax
  405f6b:	00 
  405f6c:	48 8b 8c 24 b0 00 00 	mov    0xb0(%rsp),%rcx
  405f73:	00 
  405f74:	48 83 c1 01          	add    $0x1,%rcx
  405f78:	ba 01 00 00 00       	mov    $0x1,%edx
  405f7d:	d3 e2                	shl    %cl,%edx
  405f7f:	89 d1                	mov    %edx,%ecx
  405f81:	48 63 c9             	movslq %ecx,%rcx
  405f84:	48 29 c8             	sub    %rcx,%rax
  405f87:	48 83 c0 01          	add    $0x1,%rax
  405f8b:	48 89 84 24 a8 00 00 	mov    %rax,0xa8(%rsp)
  405f92:	00 
  405f93:	48 8b 84 24 c8 00 00 	mov    0xc8(%rsp),%rax
  405f9a:	00 
  405f9b:	48 8b 8c 24 b0 00 00 	mov    0xb0(%rsp),%rcx
  405fa2:	00 
  405fa3:	ba 01 00 00 00       	mov    $0x1,%edx
  405fa8:	d3 e2                	shl    %cl,%edx
  405faa:	89 d1                	mov    %edx,%ecx
  405fac:	48 63 c9             	movslq %ecx,%rcx
  405faf:	48 29 c8             	sub    %rcx,%rax
  405fb2:	48 89 84 24 a0 00 00 	mov    %rax,0xa0(%rsp)
  405fb9:	00 
  405fba:	48 8b 84 24 a8 00 00 	mov    0xa8(%rsp),%rax
  405fc1:	00 
  405fc2:	48 3b 84 24 d0 00 00 	cmp    0xd0(%rsp),%rax
  405fc9:	00 
  405fca:	0f 83 10 00 00 00    	jae    405fe0 <__cocheck__PoisonStack+0x5d0>
  405fd0:	48 8b 84 24 d0 00 00 	mov    0xd0(%rsp),%rax
  405fd7:	00 
  405fd8:	48 89 84 24 a8 00 00 	mov    %rax,0xa8(%rsp)
  405fdf:	00 
  405fe0:	48 8b bc 24 a8 00 00 	mov    0xa8(%rsp),%rdi
  405fe7:	00 
  405fe8:	48 8b 84 24 b0 00 00 	mov    0xb0(%rsp),%rax
  405fef:	00 
  405ff0:	48 83 c0 01          	add    $0x1,%rax
  405ff4:	48 8b 94 24 a0 00 00 	mov    0xa0(%rsp),%rdx
  405ffb:	00 
  405ffc:	48 2b 94 24 a8 00 00 	sub    0xa8(%rsp),%rdx
  406003:	00 
  406004:	48 83 c2 01          	add    $0x1,%rdx
  406008:	0f b6 f0             	movzbl %al,%esi
  40600b:	e8 c0 b0 ff ff       	callq  4010d0 <memset@plt>
  406010:	48 8b 84 24 b0 00 00 	mov    0xb0(%rsp),%rax
  406017:	00 
  406018:	48 83 c0 01          	add    $0x1,%rax
  40601c:	48 89 84 24 b0 00 00 	mov    %rax,0xb0(%rsp)
  406023:	00 
  406024:	e9 f3 fe ff ff       	jmpq   405f1c <__cocheck__PoisonStack+0x50c>
  406029:	e9 2f 00 00 00       	jmpq   40605d <__cocheck__PoisonStack+0x64d>
  40602e:	48 8b 84 24 98 00 00 	mov    0x98(%rsp),%rax
  406035:	00 
  406036:	48 c1 e8 03          	shr    $0x3,%rax
  40603a:	48 05 00 80 ff 7f    	add    $0x7fff8000,%rax
  406040:	48 89 44 24 70       	mov    %rax,0x70(%rsp)
  406045:	48 8b 7c 24 70       	mov    0x70(%rsp),%rdi
  40604a:	48 8b 94 24 90 00 00 	mov    0x90(%rsp),%rdx
  406051:	00 
  406052:	48 c1 ea 03          	shr    $0x3,%rdx
  406056:	31 f6                	xor    %esi,%esi
  406058:	e8 73 b0 ff ff       	callq  4010d0 <memset@plt>
  40605d:	48 8b 44 24 60       	mov    0x60(%rsp),%rax
  406062:	48 83 e0 07          	and    $0x7,%rax
  406066:	48 83 f8 00          	cmp    $0x0,%rax
  40606a:	0f 84 2e 00 00 00    	je     40609e <__cocheck__PoisonStack+0x68e>
  406070:	48 8b 44 24 60       	mov    0x60(%rsp),%rax
  406075:	48 83 e0 07          	and    $0x7,%rax
  406079:	ba 08 00 00 00       	mov    $0x8,%edx
  40607e:	48 29 c2             	sub    %rax,%rdx
  406081:	48 c1 e2 05          	shl    $0x5,%rdx
  406085:	48 8b 44 24 50       	mov    0x50(%rsp),%rax
  40608a:	48 c1 e8 03          	shr    $0x3,%rax
  40608e:	0f b6 88 00 80 ff 7f 	movzbl 0x7fff8000(%rax),%ecx
  406095:	48 01 d1             	add    %rdx,%rcx
  406098:	88 88 00 80 ff 7f    	mov    %cl,0x7fff8000(%rax)
  40609e:	e9 e2 0c 00 00       	jmpq   406d85 <__cocheck__PoisonStack+0x1375>
  4060a3:	48 8b 44 24 48       	mov    0x48(%rsp),%rax
  4060a8:	48 89 44 24 28       	mov    %rax,0x28(%rsp)
  4060ad:	48 8b 44 24 28       	mov    0x28(%rsp),%rax
  4060b2:	48 3b 44 24 38       	cmp    0x38(%rsp),%rax
  4060b7:	0f 85 15 00 00 00    	jne    4060d2 <__cocheck__PoisonStack+0x6c2>
  4060bd:	48 8b 44 24 58       	mov    0x58(%rsp),%rax
  4060c2:	48 3b 44 24 40       	cmp    0x40(%rsp),%rax
  4060c7:	0f 85 a9 00 00 00    	jne    406176 <__cocheck__PoisonStack+0x766>
  4060cd:	e9 8d 00 00 00       	jmpq   40615f <__cocheck__PoisonStack+0x74f>
  4060d2:	48 8b 04 25 00 82 61 	mov    0x618200,%rax
  4060d9:	00 
  4060da:	48 8b 4c 24 28       	mov    0x28(%rsp),%rcx
  4060df:	80 3c 08 00          	cmpb   $0x0,(%rax,%rcx,1)
  4060e3:	0f 84 40 00 00 00    	je     406129 <__cocheck__PoisonStack+0x719>
  4060e9:	48 8b 44 24 28       	mov    0x28(%rsp),%rax
  4060ee:	48 3b 44 24 48       	cmp    0x48(%rsp),%rax
  4060f3:	0f 85 10 00 00 00    	jne    406109 <__cocheck__PoisonStack+0x6f9>
  4060f9:	48 8b 44 24 58       	mov    0x58(%rsp),%rax
  4060fe:	48 3b 44 24 40       	cmp    0x40(%rsp),%rax
  406103:	0f 85 20 00 00 00    	jne    406129 <__cocheck__PoisonStack+0x719>
  406109:	48 8b 7c 24 28       	mov    0x28(%rsp),%rdi
  40610e:	48 c1 e7 08          	shl    $0x8,%rdi
  406112:	48 c1 ef 03          	shr    $0x3,%rdi
  406116:	48 81 c7 00 80 ff 7f 	add    $0x7fff8000,%rdi
  40611d:	31 f6                	xor    %esi,%esi
  40611f:	ba 20 00 00 00       	mov    $0x20,%edx
  406124:	e8 a7 af ff ff       	callq  4010d0 <memset@plt>
  406129:	48 8b 44 24 50       	mov    0x50(%rsp),%rax
  40612e:	48 8b 4c 24 28       	mov    0x28(%rsp),%rcx
  406133:	48 c1 e1 08          	shl    $0x8,%rcx
  406137:	48 29 c8             	sub    %rcx,%rax
  40613a:	89 c2                	mov    %eax,%edx
  40613c:	48 8b 04 25 f8 81 61 	mov    0x6181f8,%rax
  406143:	00 
  406144:	48 8b 4c 24 28       	mov    0x28(%rsp),%rcx
  406149:	89 14 88             	mov    %edx,(%rax,%rcx,4)
  40614c:	48 8b 44 24 28       	mov    0x28(%rsp),%rax
  406151:	48 83 c0 01          	add    $0x1,%rax
  406155:	48 89 44 24 28       	mov    %rax,0x28(%rsp)
  40615a:	e9 4e ff ff ff       	jmpq   4060ad <__cocheck__PoisonStack+0x69d>
  40615f:	48 8b 04 25 00 82 61 	mov    0x618200,%rax
  406166:	00 
  406167:	48 8b 4c 24 48       	mov    0x48(%rsp),%rcx
  40616c:	80 3c 08 00          	cmpb   $0x0,(%rax,%rcx,1)
  406170:	0f 84 de 05 00 00    	je     406754 <__cocheck__PoisonStack+0xd44>
  406176:	48 8b 4c 24 58       	mov    0x58(%rsp),%rcx
  40617b:	48 8b 44 24 40       	mov    0x40(%rsp),%rax
  406180:	48 2b 44 24 58       	sub    0x58(%rsp),%rax
  406185:	48 05 00 01 00 00    	add    $0x100,%rax
  40618b:	48 89 8c 24 88 01 00 	mov    %rcx,0x188(%rsp)
  406192:	00 
  406193:	48 89 84 24 80 01 00 	mov    %rax,0x180(%rsp)
  40619a:	00 
  40619b:	c6 84 24 7f 01 00 00 	movb   $0x1,0x17f(%rsp)
  4061a2:	01 
  4061a3:	48 8b 84 24 88 01 00 	mov    0x188(%rsp),%rax
  4061aa:	00 
  4061ab:	48 c1 e8 08          	shr    $0x8,%rax
  4061af:	48 89 84 24 70 01 00 	mov    %rax,0x170(%rsp)
  4061b6:	00 
  4061b7:	48 8b 04 25 08 82 61 	mov    0x618208,%rax
  4061be:	00 
  4061bf:	48 8b 8c 24 70 01 00 	mov    0x170(%rsp),%rcx
  4061c6:	00 
  4061c7:	80 3c 08 00          	cmpb   $0x0,(%rax,%rcx,1)
  4061cb:	0f 85 49 00 00 00    	jne    40621a <__cocheck__PoisonStack+0x80a>
  4061d1:	48 8b 04 25 08 82 61 	mov    0x618208,%rax
  4061d8:	00 
  4061d9:	48 8b 8c 24 70 01 00 	mov    0x170(%rsp),%rcx
  4061e0:	00 
  4061e1:	c6 04 08 01          	movb   $0x1,(%rax,%rcx,1)
  4061e5:	48 8b 84 24 70 01 00 	mov    0x170(%rsp),%rax
  4061ec:	00 
  4061ed:	48 c1 e0 08          	shl    $0x8,%rax
  4061f1:	48 c1 e8 03          	shr    $0x3,%rax
  4061f5:	48 05 00 80 ff 7f    	add    $0x7fff8000,%rax
  4061fb:	48 89 84 24 68 01 00 	mov    %rax,0x168(%rsp)
  406202:	00 
  406203:	48 8b bc 24 68 01 00 	mov    0x168(%rsp),%rdi
  40620a:	00 
  40620b:	be ff 00 00 00       	mov    $0xff,%esi
  406210:	ba 20 00 00 00       	mov    $0x20,%edx
  406215:	e8 b6 ae ff ff       	callq  4010d0 <memset@plt>
  40621a:	80 bc 24 7f 01 00 00 	cmpb   $0x0,0x17f(%rsp)
  406221:	00 
  406222:	0f 85 f7 04 00 00    	jne    40671f <__cocheck__PoisonStack+0xd0f>
  406228:	48 8b 8c 24 88 01 00 	mov    0x188(%rsp),%rcx
  40622f:	00 
  406230:	48 8b 84 24 80 01 00 	mov    0x180(%rsp),%rax
  406237:	00 
  406238:	48 89 8c 24 d0 01 00 	mov    %rcx,0x1d0(%rsp)
  40623f:	00 
  406240:	48 89 84 24 c8 01 00 	mov    %rax,0x1c8(%rsp)
  406247:	00 
  406248:	48 8b 84 24 d0 01 00 	mov    0x1d0(%rsp),%rax
  40624f:	00 
  406250:	48 c1 e8 03          	shr    $0x3,%rax
  406254:	48 05 00 80 ff 7f    	add    $0x7fff8000,%rax
  40625a:	48 89 84 24 c0 01 00 	mov    %rax,0x1c0(%rsp)
  406261:	00 
  406262:	48 8b 84 24 d0 01 00 	mov    0x1d0(%rsp),%rax
  406269:	00 
  40626a:	48 03 84 24 c8 01 00 	add    0x1c8(%rsp),%rax
  406271:	00 
  406272:	48 83 e8 01          	sub    $0x1,%rax
  406276:	48 c1 e8 03          	shr    $0x3,%rax
  40627a:	48 05 00 80 ff 7f    	add    $0x7fff8000,%rax
  406280:	48 83 c0 01          	add    $0x1,%rax
  406284:	48 89 84 24 b8 01 00 	mov    %rax,0x1b8(%rsp)
  40628b:	00 
  40628c:	48 81 bc 24 c8 01 00 	cmpq   $0x80,0x1c8(%rsp)
  406293:	00 80 00 00 00 
  406298:	0f 87 31 03 00 00    	ja     4065cf <__cocheck__PoisonStack+0xbbf>
  40629e:	48 8b 84 24 c8 01 00 	mov    0x1c8(%rsp),%rax
  4062a5:	00 
  4062a6:	48 83 c0 07          	add    $0x7,%rax
  4062aa:	48 c1 e8 03          	shr    $0x3,%rax
  4062ae:	48 89 84 24 b0 01 00 	mov    %rax,0x1b0(%rsp)
  4062b5:	00 
  4062b6:	48 8b 84 24 b0 01 00 	mov    0x1b0(%rsp),%rax
  4062bd:	00 
  4062be:	48 83 c0 ff          	add    $0xffffffffffffffff,%rax
  4062c2:	48 89 44 24 08       	mov    %rax,0x8(%rsp)
  4062c7:	48 83 e8 0f          	sub    $0xf,%rax
  4062cb:	0f 87 e9 02 00 00    	ja     4065ba <__cocheck__PoisonStack+0xbaa>
  4062d1:	48 8b 44 24 08       	mov    0x8(%rsp),%rax
  4062d6:	48 8b 04 c5 e8 4b 41 	mov    0x414be8(,%rax,8),%rax
  4062dd:	00 
  4062de:	ff e0                	jmpq   *%rax
  4062e0:	48 8b 84 24 b8 01 00 	mov    0x1b8(%rsp),%rax
  4062e7:	00 
  4062e8:	48 83 e8 01          	sub    $0x1,%rax
  4062ec:	c6 00 01             	movb   $0x1,(%rax)
  4062ef:	e9 cb 02 00 00       	jmpq   4065bf <__cocheck__PoisonStack+0xbaf>
  4062f4:	48 8b 84 24 b8 01 00 	mov    0x1b8(%rsp),%rax
  4062fb:	00 
  4062fc:	48 83 e8 02          	sub    $0x2,%rax
  406300:	66 c7 00 02 01       	movw   $0x102,(%rax)
  406305:	e9 b5 02 00 00       	jmpq   4065bf <__cocheck__PoisonStack+0xbaf>
  40630a:	48 8b 84 24 b8 01 00 	mov    0x1b8(%rsp),%rax
  406311:	00 
  406312:	48 83 e8 01          	sub    $0x1,%rax
  406316:	c6 00 01             	movb   $0x1,(%rax)
  406319:	48 8b 84 24 b8 01 00 	mov    0x1b8(%rsp),%rax
  406320:	00 
  406321:	48 83 e8 03          	sub    $0x3,%rax
  406325:	66 c7 00 02 02       	movw   $0x202,(%rax)
  40632a:	e9 90 02 00 00       	jmpq   4065bf <__cocheck__PoisonStack+0xbaf>
  40632f:	48 8b 84 24 b8 01 00 	mov    0x1b8(%rsp),%rax
  406336:	00 
  406337:	48 83 e8 04          	sub    $0x4,%rax
  40633b:	c7 00 03 02 02 01    	movl   $0x1020203,(%rax)
  406341:	e9 79 02 00 00       	jmpq   4065bf <__cocheck__PoisonStack+0xbaf>
  406346:	48 8b 84 24 b8 01 00 	mov    0x1b8(%rsp),%rax
  40634d:	00 
  40634e:	48 83 e8 01          	sub    $0x1,%rax
  406352:	c6 00 01             	movb   $0x1,(%rax)
  406355:	48 8b 84 24 b8 01 00 	mov    0x1b8(%rsp),%rax
  40635c:	00 
  40635d:	48 83 e8 05          	sub    $0x5,%rax
  406361:	c7 00 03 03 02 02    	movl   $0x2020303,(%rax)
  406367:	e9 53 02 00 00       	jmpq   4065bf <__cocheck__PoisonStack+0xbaf>
  40636c:	48 8b 84 24 b8 01 00 	mov    0x1b8(%rsp),%rax
  406373:	00 
  406374:	48 83 e8 02          	sub    $0x2,%rax
  406378:	66 c7 00 02 01       	movw   $0x102,(%rax)
  40637d:	48 8b 84 24 b8 01 00 	mov    0x1b8(%rsp),%rax
  406384:	00 
  406385:	48 83 e8 06          	sub    $0x6,%rax
  406389:	c7 00 03 03 03 02    	movl   $0x2030303,(%rax)
  40638f:	e9 2b 02 00 00       	jmpq   4065bf <__cocheck__PoisonStack+0xbaf>
  406394:	48 8b 84 24 b8 01 00 	mov    0x1b8(%rsp),%rax
  40639b:	00 
  40639c:	48 83 e8 01          	sub    $0x1,%rax
  4063a0:	c6 00 01             	movb   $0x1,(%rax)
  4063a3:	48 8b 84 24 b8 01 00 	mov    0x1b8(%rsp),%rax
  4063aa:	00 
  4063ab:	48 83 e8 03          	sub    $0x3,%rax
  4063af:	66 c7 00 02 02       	movw   $0x202,(%rax)
  4063b4:	48 8b 84 24 b8 01 00 	mov    0x1b8(%rsp),%rax
  4063bb:	00 
  4063bc:	48 83 e8 07          	sub    $0x7,%rax
  4063c0:	c7 00 03 03 03 03    	movl   $0x3030303,(%rax)
  4063c6:	e9 f4 01 00 00       	jmpq   4065bf <__cocheck__PoisonStack+0xbaf>
  4063cb:	48 8b 84 24 b8 01 00 	mov    0x1b8(%rsp),%rax
  4063d2:	00 
  4063d3:	48 83 e8 08          	sub    $0x8,%rax
  4063d7:	48 b9 04 03 03 03 03 	movabs $0x102020303030304,%rcx
  4063de:	02 02 01 
  4063e1:	48 89 08             	mov    %rcx,(%rax)
  4063e4:	e9 d6 01 00 00       	jmpq   4065bf <__cocheck__PoisonStack+0xbaf>
  4063e9:	48 8b 84 24 b8 01 00 	mov    0x1b8(%rsp),%rax
  4063f0:	00 
  4063f1:	48 83 e8 01          	sub    $0x1,%rax
  4063f5:	c6 00 01             	movb   $0x1,(%rax)
  4063f8:	48 8b 84 24 b8 01 00 	mov    0x1b8(%rsp),%rax
  4063ff:	00 
  406400:	48 83 e8 09          	sub    $0x9,%rax
  406404:	48 b9 04 04 03 03 03 	movabs $0x202030303030404,%rcx
  40640b:	03 02 02 
  40640e:	48 89 08             	mov    %rcx,(%rax)
  406411:	e9 a9 01 00 00       	jmpq   4065bf <__cocheck__PoisonStack+0xbaf>
  406416:	48 8b 84 24 b8 01 00 	mov    0x1b8(%rsp),%rax
  40641d:	00 
  40641e:	48 83 e8 02          	sub    $0x2,%rax
  406422:	66 c7 00 02 01       	movw   $0x102,(%rax)
  406427:	48 8b 84 24 b8 01 00 	mov    0x1b8(%rsp),%rax
  40642e:	00 
  40642f:	48 83 e8 0a          	sub    $0xa,%rax
  406433:	48 b9 04 04 04 03 03 	movabs $0x203030303040404,%rcx
  40643a:	03 03 02 
  40643d:	48 89 08             	mov    %rcx,(%rax)
  406440:	e9 7a 01 00 00       	jmpq   4065bf <__cocheck__PoisonStack+0xbaf>
  406445:	48 8b 84 24 b8 01 00 	mov    0x1b8(%rsp),%rax
  40644c:	00 
  40644d:	48 83 e8 01          	sub    $0x1,%rax
  406451:	c6 00 01             	movb   $0x1,(%rax)
  406454:	48 8b 84 24 b8 01 00 	mov    0x1b8(%rsp),%rax
  40645b:	00 
  40645c:	48 83 e8 03          	sub    $0x3,%rax
  406460:	66 c7 00 02 02       	movw   $0x202,(%rax)
  406465:	48 8b 84 24 b8 01 00 	mov    0x1b8(%rsp),%rax
  40646c:	00 
  40646d:	48 83 e8 0b          	sub    $0xb,%rax
  406471:	48 b9 04 04 04 04 03 	movabs $0x303030304040404,%rcx
  406478:	03 03 03 
  40647b:	48 89 08             	mov    %rcx,(%rax)
  40647e:	e9 3c 01 00 00       	jmpq   4065bf <__cocheck__PoisonStack+0xbaf>
  406483:	48 8b 84 24 b8 01 00 	mov    0x1b8(%rsp),%rax
  40648a:	00 
  40648b:	48 83 e8 04          	sub    $0x4,%rax
  40648f:	c7 00 03 02 02 01    	movl   $0x1020203,(%rax)
  406495:	48 8b 84 24 b8 01 00 	mov    0x1b8(%rsp),%rax
  40649c:	00 
  40649d:	48 83 e8 0c          	sub    $0xc,%rax
  4064a1:	48 b9 04 04 04 04 04 	movabs $0x303030404040404,%rcx
  4064a8:	03 03 03 
  4064ab:	48 89 08             	mov    %rcx,(%rax)
  4064ae:	e9 0c 01 00 00       	jmpq   4065bf <__cocheck__PoisonStack+0xbaf>
  4064b3:	48 8b 84 24 b8 01 00 	mov    0x1b8(%rsp),%rax
  4064ba:	00 
  4064bb:	48 83 e8 01          	sub    $0x1,%rax
  4064bf:	c6 00 01             	movb   $0x1,(%rax)
  4064c2:	48 8b 84 24 b8 01 00 	mov    0x1b8(%rsp),%rax
  4064c9:	00 
  4064ca:	48 83 e8 05          	sub    $0x5,%rax
  4064ce:	c7 00 03 03 02 02    	movl   $0x2020303,(%rax)
  4064d4:	48 8b 84 24 b8 01 00 	mov    0x1b8(%rsp),%rax
  4064db:	00 
  4064dc:	48 83 e8 0d          	sub    $0xd,%rax
  4064e0:	48 b9 04 04 04 04 04 	movabs $0x303040404040404,%rcx
  4064e7:	04 03 03 
  4064ea:	48 89 08             	mov    %rcx,(%rax)
  4064ed:	e9 cd 00 00 00       	jmpq   4065bf <__cocheck__PoisonStack+0xbaf>
  4064f2:	48 8b 84 24 b8 01 00 	mov    0x1b8(%rsp),%rax
  4064f9:	00 
  4064fa:	48 83 e8 02          	sub    $0x2,%rax
  4064fe:	66 c7 00 02 01       	movw   $0x102,(%rax)
  406503:	48 8b 84 24 b8 01 00 	mov    0x1b8(%rsp),%rax
  40650a:	00 
  40650b:	48 83 e8 06          	sub    $0x6,%rax
  40650f:	c7 00 03 03 03 02    	movl   $0x2030303,(%rax)
  406515:	48 8b 84 24 b8 01 00 	mov    0x1b8(%rsp),%rax
  40651c:	00 
  40651d:	48 83 e8 0e          	sub    $0xe,%rax
  406521:	48 b9 04 04 04 04 04 	movabs $0x304040404040404,%rcx
  406528:	04 04 03 
  40652b:	48 89 08             	mov    %rcx,(%rax)
  40652e:	e9 8c 00 00 00       	jmpq   4065bf <__cocheck__PoisonStack+0xbaf>
  406533:	48 8b 84 24 b8 01 00 	mov    0x1b8(%rsp),%rax
  40653a:	00 
  40653b:	48 83 e8 01          	sub    $0x1,%rax
  40653f:	c6 00 01             	movb   $0x1,(%rax)
  406542:	48 8b 84 24 b8 01 00 	mov    0x1b8(%rsp),%rax
  406549:	00 
  40654a:	48 83 e8 03          	sub    $0x3,%rax
  40654e:	66 c7 00 02 02       	movw   $0x202,(%rax)
  406553:	48 8b 84 24 b8 01 00 	mov    0x1b8(%rsp),%rax
  40655a:	00 
  40655b:	48 83 e8 07          	sub    $0x7,%rax
  40655f:	c7 00 03 03 03 03    	movl   $0x3030303,(%rax)
  406565:	48 8b 84 24 b8 01 00 	mov    0x1b8(%rsp),%rax
  40656c:	00 
  40656d:	48 83 e8 0f          	sub    $0xf,%rax
  406571:	48 b9 04 04 04 04 04 	movabs $0x404040404040404,%rcx
  406578:	04 04 04 
  40657b:	48 89 08             	mov    %rcx,(%rax)
  40657e:	e9 3c 00 00 00       	jmpq   4065bf <__cocheck__PoisonStack+0xbaf>
  406583:	48 8b 84 24 b8 01 00 	mov    0x1b8(%rsp),%rax
  40658a:	00 
  40658b:	48 83 e8 08          	sub    $0x8,%rax
  40658f:	48 b9 04 03 03 03 03 	movabs $0x102020303030304,%rcx
  406596:	02 02 01 
  406599:	48 89 08             	mov    %rcx,(%rax)
  40659c:	48 8b 84 24 b8 01 00 	mov    0x1b8(%rsp),%rax
  4065a3:	00 
  4065a4:	48 83 e8 10          	sub    $0x10,%rax
  4065a8:	48 b9 05 04 04 04 04 	movabs $0x404040404040405,%rcx
  4065af:	04 04 04 
  4065b2:	48 89 08             	mov    %rcx,(%rax)
  4065b5:	e9 05 00 00 00       	jmpq   4065bf <__cocheck__PoisonStack+0xbaf>
  4065ba:	e9 00 00 00 00       	jmpq   4065bf <__cocheck__PoisonStack+0xbaf>
  4065bf:	c7 84 24 ac 01 00 00 	movl   $0x1,0x1ac(%rsp)
  4065c6:	01 00 00 00 
  4065ca:	e9 4b 01 00 00       	jmpq   40671a <__cocheck__PoisonStack+0xd0a>
  4065cf:	48 8b 84 24 b8 01 00 	mov    0x1b8(%rsp),%rax
  4065d6:	00 
  4065d7:	48 83 e8 08          	sub    $0x8,%rax
  4065db:	48 b9 04 03 03 03 03 	movabs $0x102020303030304,%rcx
  4065e2:	02 02 01 
  4065e5:	48 89 08             	mov    %rcx,(%rax)
  4065e8:	48 8b 84 24 b8 01 00 	mov    0x1b8(%rsp),%rax
  4065ef:	00 
  4065f0:	48 83 e8 10          	sub    $0x10,%rax
  4065f4:	48 b9 05 04 04 04 04 	movabs $0x404040404040405,%rcx
  4065fb:	04 04 04 
  4065fe:	48 89 08             	mov    %rcx,(%rax)
  406601:	48 c7 84 24 a0 01 00 	movq   $0x4,0x1a0(%rsp)
  406608:	00 04 00 00 00 
  40660d:	48 8b 84 24 b8 01 00 	mov    0x1b8(%rsp),%rax
  406614:	00 
  406615:	48 8b 8c 24 a0 01 00 	mov    0x1a0(%rsp),%rcx
  40661c:	00 
  40661d:	ba 01 00 00 00       	mov    $0x1,%edx
  406622:	d3 e2                	shl    %cl,%edx
  406624:	89 d1                	mov    %edx,%ecx
  406626:	48 63 c9             	movslq %ecx,%rcx
  406629:	48 29 c8             	sub    %rcx,%rax
  40662c:	48 3b 84 24 c0 01 00 	cmp    0x1c0(%rsp),%rax
  406633:	00 
  406634:	0f 83 1b 00 00 00    	jae    406655 <__cocheck__PoisonStack+0xc45>
  40663a:	c7 84 24 ac 01 00 00 	movl   $0x3,0x1ac(%rsp)
  406641:	03 00 00 00 
  406645:	c7 84 24 ac 01 00 00 	movl   $0x0,0x1ac(%rsp)
  40664c:	00 00 00 00 
  406650:	e9 c5 00 00 00       	jmpq   40671a <__cocheck__PoisonStack+0xd0a>
  406655:	48 8b 84 24 b8 01 00 	mov    0x1b8(%rsp),%rax
  40665c:	00 
  40665d:	48 8b 8c 24 a0 01 00 	mov    0x1a0(%rsp),%rcx
  406664:	00 
  406665:	48 83 c1 01          	add    $0x1,%rcx
  406669:	ba 01 00 00 00       	mov    $0x1,%edx
  40666e:	d3 e2                	shl    %cl,%edx
  406670:	89 d1                	mov    %edx,%ecx
  406672:	48 63 c9             	movslq %ecx,%rcx
  406675:	48 29 c8             	sub    %rcx,%rax
  406678:	48 83 c0 01          	add    $0x1,%rax
  40667c:	48 89 84 24 98 01 00 	mov    %rax,0x198(%rsp)
  406683:	00 
  406684:	48 8b 84 24 b8 01 00 	mov    0x1b8(%rsp),%rax
  40668b:	00 
  40668c:	48 8b 8c 24 a0 01 00 	mov    0x1a0(%rsp),%rcx
  406693:	00 
  406694:	ba 01 00 00 00       	mov    $0x1,%edx
  406699:	d3 e2                	shl    %cl,%edx
  40669b:	89 d1                	mov    %edx,%ecx
  40669d:	48 63 c9             	movslq %ecx,%rcx
  4066a0:	48 29 c8             	sub    %rcx,%rax
  4066a3:	48 89 84 24 90 01 00 	mov    %rax,0x190(%rsp)
  4066aa:	00 
  4066ab:	48 8b 84 24 98 01 00 	mov    0x198(%rsp),%rax
  4066b2:	00 
  4066b3:	48 3b 84 24 c0 01 00 	cmp    0x1c0(%rsp),%rax
  4066ba:	00 
  4066bb:	0f 83 10 00 00 00    	jae    4066d1 <__cocheck__PoisonStack+0xcc1>
  4066c1:	48 8b 84 24 c0 01 00 	mov    0x1c0(%rsp),%rax
  4066c8:	00 
  4066c9:	48 89 84 24 98 01 00 	mov    %rax,0x198(%rsp)
  4066d0:	00 
  4066d1:	48 8b bc 24 98 01 00 	mov    0x198(%rsp),%rdi
  4066d8:	00 
  4066d9:	48 8b 84 24 a0 01 00 	mov    0x1a0(%rsp),%rax
  4066e0:	00 
  4066e1:	48 83 c0 01          	add    $0x1,%rax
  4066e5:	48 8b 94 24 90 01 00 	mov    0x190(%rsp),%rdx
  4066ec:	00 
  4066ed:	48 2b 94 24 98 01 00 	sub    0x198(%rsp),%rdx
  4066f4:	00 
  4066f5:	48 83 c2 01          	add    $0x1,%rdx
  4066f9:	0f b6 f0             	movzbl %al,%esi
  4066fc:	e8 cf a9 ff ff       	callq  4010d0 <memset@plt>
  406701:	48 8b 84 24 a0 01 00 	mov    0x1a0(%rsp),%rax
  406708:	00 
  406709:	48 83 c0 01          	add    $0x1,%rax
  40670d:	48 89 84 24 a0 01 00 	mov    %rax,0x1a0(%rsp)
  406714:	00 
  406715:	e9 f3 fe ff ff       	jmpq   40660d <__cocheck__PoisonStack+0xbfd>
  40671a:	e9 35 00 00 00       	jmpq   406754 <__cocheck__PoisonStack+0xd44>
  40671f:	48 8b 84 24 88 01 00 	mov    0x188(%rsp),%rax
  406726:	00 
  406727:	48 c1 e8 03          	shr    $0x3,%rax
  40672b:	48 05 00 80 ff 7f    	add    $0x7fff8000,%rax
  406731:	48 89 84 24 60 01 00 	mov    %rax,0x160(%rsp)
  406738:	00 
  406739:	48 8b bc 24 60 01 00 	mov    0x160(%rsp),%rdi
  406740:	00 
  406741:	48 8b 94 24 80 01 00 	mov    0x180(%rsp),%rdx
  406748:	00 
  406749:	48 c1 ea 03          	shr    $0x3,%rdx
  40674d:	31 f6                	xor    %esi,%esi
  40674f:	e8 7c a9 ff ff       	callq  4010d0 <memset@plt>
  406754:	48 8b 44 24 50       	mov    0x50(%rsp),%rax
  406759:	48 3b 44 24 30       	cmp    0x30(%rsp),%rax
  40675e:	0f 84 1c 06 00 00    	je     406d80 <__cocheck__PoisonStack+0x1370>
  406764:	48 8b 4c 24 30       	mov    0x30(%rsp),%rcx
  406769:	48 8b 44 24 50       	mov    0x50(%rsp),%rax
  40676e:	48 2b 44 24 30       	sub    0x30(%rsp),%rax
  406773:	48 89 8c 24 10 01 00 	mov    %rcx,0x110(%rsp)
  40677a:	00 
  40677b:	48 89 84 24 08 01 00 	mov    %rax,0x108(%rsp)
  406782:	00 
  406783:	c6 84 24 07 01 00 00 	movb   $0x0,0x107(%rsp)
  40678a:	00 
  40678b:	48 8b 84 24 10 01 00 	mov    0x110(%rsp),%rax
  406792:	00 
  406793:	48 c1 e8 08          	shr    $0x8,%rax
  406797:	48 89 84 24 f8 00 00 	mov    %rax,0xf8(%rsp)
  40679e:	00 
  40679f:	48 8b 04 25 08 82 61 	mov    0x618208,%rax
  4067a6:	00 
  4067a7:	48 8b 8c 24 f8 00 00 	mov    0xf8(%rsp),%rcx
  4067ae:	00 
  4067af:	80 3c 08 00          	cmpb   $0x0,(%rax,%rcx,1)
  4067b3:	0f 85 49 00 00 00    	jne    406802 <__cocheck__PoisonStack+0xdf2>
  4067b9:	48 8b 04 25 08 82 61 	mov    0x618208,%rax
  4067c0:	00 
  4067c1:	48 8b 8c 24 f8 00 00 	mov    0xf8(%rsp),%rcx
  4067c8:	00 
  4067c9:	c6 04 08 01          	movb   $0x1,(%rax,%rcx,1)
  4067cd:	48 8b 84 24 f8 00 00 	mov    0xf8(%rsp),%rax
  4067d4:	00 
  4067d5:	48 c1 e0 08          	shl    $0x8,%rax
  4067d9:	48 c1 e8 03          	shr    $0x3,%rax
  4067dd:	48 05 00 80 ff 7f    	add    $0x7fff8000,%rax
  4067e3:	48 89 84 24 f0 00 00 	mov    %rax,0xf0(%rsp)
  4067ea:	00 
  4067eb:	48 8b bc 24 f0 00 00 	mov    0xf0(%rsp),%rdi
  4067f2:	00 
  4067f3:	be ff 00 00 00       	mov    $0xff,%esi
  4067f8:	ba 20 00 00 00       	mov    $0x20,%edx
  4067fd:	e8 ce a8 ff ff       	callq  4010d0 <memset@plt>
  406802:	80 bc 24 07 01 00 00 	cmpb   $0x0,0x107(%rsp)
  406809:	00 
  40680a:	0f 85 f5 04 00 00    	jne    406d05 <__cocheck__PoisonStack+0x12f5>
  406810:	48 8b 8c 24 10 01 00 	mov    0x110(%rsp),%rcx
  406817:	00 
  406818:	48 8b 84 24 08 01 00 	mov    0x108(%rsp),%rax
  40681f:	00 
  406820:	48 89 8c 24 58 01 00 	mov    %rcx,0x158(%rsp)
  406827:	00 
  406828:	48 89 84 24 50 01 00 	mov    %rax,0x150(%rsp)
  40682f:	00 
  406830:	48 8b 84 24 58 01 00 	mov    0x158(%rsp),%rax
  406837:	00 
  406838:	48 c1 e8 03          	shr    $0x3,%rax
  40683c:	48 05 00 80 ff 7f    	add    $0x7fff8000,%rax
  406842:	48 89 84 24 48 01 00 	mov    %rax,0x148(%rsp)
  406849:	00 
  40684a:	48 8b 84 24 58 01 00 	mov    0x158(%rsp),%rax
  406851:	00 
  406852:	48 03 84 24 50 01 00 	add    0x150(%rsp),%rax
  406859:	00 
  40685a:	48 83 e8 01          	sub    $0x1,%rax
  40685e:	48 c1 e8 03          	shr    $0x3,%rax
  406862:	48 05 00 80 ff 7f    	add    $0x7fff8000,%rax
  406868:	48 83 c0 01          	add    $0x1,%rax
  40686c:	48 89 84 24 40 01 00 	mov    %rax,0x140(%rsp)
  406873:	00 
  406874:	48 81 bc 24 50 01 00 	cmpq   $0x80,0x150(%rsp)
  40687b:	00 80 00 00 00 
  406880:	0f 87 2f 03 00 00    	ja     406bb5 <__cocheck__PoisonStack+0x11a5>
  406886:	48 8b 84 24 50 01 00 	mov    0x150(%rsp),%rax
  40688d:	00 
  40688e:	48 83 c0 07          	add    $0x7,%rax
  406892:	48 c1 e8 03          	shr    $0x3,%rax
  406896:	48 89 84 24 38 01 00 	mov    %rax,0x138(%rsp)
  40689d:	00 
  40689e:	48 8b 84 24 38 01 00 	mov    0x138(%rsp),%rax
  4068a5:	00 
  4068a6:	48 83 c0 ff          	add    $0xffffffffffffffff,%rax
  4068aa:	48 89 04 24          	mov    %rax,(%rsp)
  4068ae:	48 83 e8 0f          	sub    $0xf,%rax
  4068b2:	0f 87 e8 02 00 00    	ja     406ba0 <__cocheck__PoisonStack+0x1190>
  4068b8:	48 8b 04 24          	mov    (%rsp),%rax
  4068bc:	48 8b 04 c5 68 4c 41 	mov    0x414c68(,%rax,8),%rax
  4068c3:	00 
  4068c4:	ff e0                	jmpq   *%rax
  4068c6:	48 8b 84 24 40 01 00 	mov    0x140(%rsp),%rax
  4068cd:	00 
  4068ce:	48 83 e8 01          	sub    $0x1,%rax
  4068d2:	c6 00 01             	movb   $0x1,(%rax)
  4068d5:	e9 cb 02 00 00       	jmpq   406ba5 <__cocheck__PoisonStack+0x1195>
  4068da:	48 8b 84 24 40 01 00 	mov    0x140(%rsp),%rax
  4068e1:	00 
  4068e2:	48 83 e8 02          	sub    $0x2,%rax
  4068e6:	66 c7 00 02 01       	movw   $0x102,(%rax)
  4068eb:	e9 b5 02 00 00       	jmpq   406ba5 <__cocheck__PoisonStack+0x1195>
  4068f0:	48 8b 84 24 40 01 00 	mov    0x140(%rsp),%rax
  4068f7:	00 
  4068f8:	48 83 e8 01          	sub    $0x1,%rax
  4068fc:	c6 00 01             	movb   $0x1,(%rax)
  4068ff:	48 8b 84 24 40 01 00 	mov    0x140(%rsp),%rax
  406906:	00 
  406907:	48 83 e8 03          	sub    $0x3,%rax
  40690b:	66 c7 00 02 02       	movw   $0x202,(%rax)
  406910:	e9 90 02 00 00       	jmpq   406ba5 <__cocheck__PoisonStack+0x1195>
  406915:	48 8b 84 24 40 01 00 	mov    0x140(%rsp),%rax
  40691c:	00 
  40691d:	48 83 e8 04          	sub    $0x4,%rax
  406921:	c7 00 03 02 02 01    	movl   $0x1020203,(%rax)
  406927:	e9 79 02 00 00       	jmpq   406ba5 <__cocheck__PoisonStack+0x1195>
  40692c:	48 8b 84 24 40 01 00 	mov    0x140(%rsp),%rax
  406933:	00 
  406934:	48 83 e8 01          	sub    $0x1,%rax
  406938:	c6 00 01             	movb   $0x1,(%rax)
  40693b:	48 8b 84 24 40 01 00 	mov    0x140(%rsp),%rax
  406942:	00 
  406943:	48 83 e8 05          	sub    $0x5,%rax
  406947:	c7 00 03 03 02 02    	movl   $0x2020303,(%rax)
  40694d:	e9 53 02 00 00       	jmpq   406ba5 <__cocheck__PoisonStack+0x1195>
  406952:	48 8b 84 24 40 01 00 	mov    0x140(%rsp),%rax
  406959:	00 
  40695a:	48 83 e8 02          	sub    $0x2,%rax
  40695e:	66 c7 00 02 01       	movw   $0x102,(%rax)
  406963:	48 8b 84 24 40 01 00 	mov    0x140(%rsp),%rax
  40696a:	00 
  40696b:	48 83 e8 06          	sub    $0x6,%rax
  40696f:	c7 00 03 03 03 02    	movl   $0x2030303,(%rax)
  406975:	e9 2b 02 00 00       	jmpq   406ba5 <__cocheck__PoisonStack+0x1195>
  40697a:	48 8b 84 24 40 01 00 	mov    0x140(%rsp),%rax
  406981:	00 
  406982:	48 83 e8 01          	sub    $0x1,%rax
  406986:	c6 00 01             	movb   $0x1,(%rax)
  406989:	48 8b 84 24 40 01 00 	mov    0x140(%rsp),%rax
  406990:	00 
  406991:	48 83 e8 03          	sub    $0x3,%rax
  406995:	66 c7 00 02 02       	movw   $0x202,(%rax)
  40699a:	48 8b 84 24 40 01 00 	mov    0x140(%rsp),%rax
  4069a1:	00 
  4069a2:	48 83 e8 07          	sub    $0x7,%rax
  4069a6:	c7 00 03 03 03 03    	movl   $0x3030303,(%rax)
  4069ac:	e9 f4 01 00 00       	jmpq   406ba5 <__cocheck__PoisonStack+0x1195>
  4069b1:	48 8b 84 24 40 01 00 	mov    0x140(%rsp),%rax
  4069b8:	00 
  4069b9:	48 83 e8 08          	sub    $0x8,%rax
  4069bd:	48 b9 04 03 03 03 03 	movabs $0x102020303030304,%rcx
  4069c4:	02 02 01 
  4069c7:	48 89 08             	mov    %rcx,(%rax)
  4069ca:	e9 d6 01 00 00       	jmpq   406ba5 <__cocheck__PoisonStack+0x1195>
  4069cf:	48 8b 84 24 40 01 00 	mov    0x140(%rsp),%rax
  4069d6:	00 
  4069d7:	48 83 e8 01          	sub    $0x1,%rax
  4069db:	c6 00 01             	movb   $0x1,(%rax)
  4069de:	48 8b 84 24 40 01 00 	mov    0x140(%rsp),%rax
  4069e5:	00 
  4069e6:	48 83 e8 09          	sub    $0x9,%rax
  4069ea:	48 b9 04 04 03 03 03 	movabs $0x202030303030404,%rcx
  4069f1:	03 02 02 
  4069f4:	48 89 08             	mov    %rcx,(%rax)
  4069f7:	e9 a9 01 00 00       	jmpq   406ba5 <__cocheck__PoisonStack+0x1195>
  4069fc:	48 8b 84 24 40 01 00 	mov    0x140(%rsp),%rax
  406a03:	00 
  406a04:	48 83 e8 02          	sub    $0x2,%rax
  406a08:	66 c7 00 02 01       	movw   $0x102,(%rax)
  406a0d:	48 8b 84 24 40 01 00 	mov    0x140(%rsp),%rax
  406a14:	00 
  406a15:	48 83 e8 0a          	sub    $0xa,%rax
  406a19:	48 b9 04 04 04 03 03 	movabs $0x203030303040404,%rcx
  406a20:	03 03 02 
  406a23:	48 89 08             	mov    %rcx,(%rax)
  406a26:	e9 7a 01 00 00       	jmpq   406ba5 <__cocheck__PoisonStack+0x1195>
  406a2b:	48 8b 84 24 40 01 00 	mov    0x140(%rsp),%rax
  406a32:	00 
  406a33:	48 83 e8 01          	sub    $0x1,%rax
  406a37:	c6 00 01             	movb   $0x1,(%rax)
  406a3a:	48 8b 84 24 40 01 00 	mov    0x140(%rsp),%rax
  406a41:	00 
  406a42:	48 83 e8 03          	sub    $0x3,%rax
  406a46:	66 c7 00 02 02       	movw   $0x202,(%rax)
  406a4b:	48 8b 84 24 40 01 00 	mov    0x140(%rsp),%rax
  406a52:	00 
  406a53:	48 83 e8 0b          	sub    $0xb,%rax
  406a57:	48 b9 04 04 04 04 03 	movabs $0x303030304040404,%rcx
  406a5e:	03 03 03 
  406a61:	48 89 08             	mov    %rcx,(%rax)
  406a64:	e9 3c 01 00 00       	jmpq   406ba5 <__cocheck__PoisonStack+0x1195>
  406a69:	48 8b 84 24 40 01 00 	mov    0x140(%rsp),%rax
  406a70:	00 
  406a71:	48 83 e8 04          	sub    $0x4,%rax
  406a75:	c7 00 03 02 02 01    	movl   $0x1020203,(%rax)
  406a7b:	48 8b 84 24 40 01 00 	mov    0x140(%rsp),%rax
  406a82:	00 
  406a83:	48 83 e8 0c          	sub    $0xc,%rax
  406a87:	48 b9 04 04 04 04 04 	movabs $0x303030404040404,%rcx
  406a8e:	03 03 03 
  406a91:	48 89 08             	mov    %rcx,(%rax)
  406a94:	e9 0c 01 00 00       	jmpq   406ba5 <__cocheck__PoisonStack+0x1195>
  406a99:	48 8b 84 24 40 01 00 	mov    0x140(%rsp),%rax
  406aa0:	00 
  406aa1:	48 83 e8 01          	sub    $0x1,%rax
  406aa5:	c6 00 01             	movb   $0x1,(%rax)
  406aa8:	48 8b 84 24 40 01 00 	mov    0x140(%rsp),%rax
  406aaf:	00 
  406ab0:	48 83 e8 05          	sub    $0x5,%rax
  406ab4:	c7 00 03 03 02 02    	movl   $0x2020303,(%rax)
  406aba:	48 8b 84 24 40 01 00 	mov    0x140(%rsp),%rax
  406ac1:	00 
  406ac2:	48 83 e8 0d          	sub    $0xd,%rax
  406ac6:	48 b9 04 04 04 04 04 	movabs $0x303040404040404,%rcx
  406acd:	04 03 03 
  406ad0:	48 89 08             	mov    %rcx,(%rax)
  406ad3:	e9 cd 00 00 00       	jmpq   406ba5 <__cocheck__PoisonStack+0x1195>
  406ad8:	48 8b 84 24 40 01 00 	mov    0x140(%rsp),%rax
  406adf:	00 
  406ae0:	48 83 e8 02          	sub    $0x2,%rax
  406ae4:	66 c7 00 02 01       	movw   $0x102,(%rax)
  406ae9:	48 8b 84 24 40 01 00 	mov    0x140(%rsp),%rax
  406af0:	00 
  406af1:	48 83 e8 06          	sub    $0x6,%rax
  406af5:	c7 00 03 03 03 02    	movl   $0x2030303,(%rax)
  406afb:	48 8b 84 24 40 01 00 	mov    0x140(%rsp),%rax
  406b02:	00 
  406b03:	48 83 e8 0e          	sub    $0xe,%rax
  406b07:	48 b9 04 04 04 04 04 	movabs $0x304040404040404,%rcx
  406b0e:	04 04 03 
  406b11:	48 89 08             	mov    %rcx,(%rax)
  406b14:	e9 8c 00 00 00       	jmpq   406ba5 <__cocheck__PoisonStack+0x1195>
  406b19:	48 8b 84 24 40 01 00 	mov    0x140(%rsp),%rax
  406b20:	00 
  406b21:	48 83 e8 01          	sub    $0x1,%rax
  406b25:	c6 00 01             	movb   $0x1,(%rax)
  406b28:	48 8b 84 24 40 01 00 	mov    0x140(%rsp),%rax
  406b2f:	00 
  406b30:	48 83 e8 03          	sub    $0x3,%rax
  406b34:	66 c7 00 02 02       	movw   $0x202,(%rax)
  406b39:	48 8b 84 24 40 01 00 	mov    0x140(%rsp),%rax
  406b40:	00 
  406b41:	48 83 e8 07          	sub    $0x7,%rax
  406b45:	c7 00 03 03 03 03    	movl   $0x3030303,(%rax)
  406b4b:	48 8b 84 24 40 01 00 	mov    0x140(%rsp),%rax
  406b52:	00 
  406b53:	48 83 e8 0f          	sub    $0xf,%rax
  406b57:	48 b9 04 04 04 04 04 	movabs $0x404040404040404,%rcx
  406b5e:	04 04 04 
  406b61:	48 89 08             	mov    %rcx,(%rax)
  406b64:	e9 3c 00 00 00       	jmpq   406ba5 <__cocheck__PoisonStack+0x1195>
  406b69:	48 8b 84 24 40 01 00 	mov    0x140(%rsp),%rax
  406b70:	00 
  406b71:	48 83 e8 08          	sub    $0x8,%rax
  406b75:	48 b9 04 03 03 03 03 	movabs $0x102020303030304,%rcx
  406b7c:	02 02 01 
  406b7f:	48 89 08             	mov    %rcx,(%rax)
  406b82:	48 8b 84 24 40 01 00 	mov    0x140(%rsp),%rax
  406b89:	00 
  406b8a:	48 83 e8 10          	sub    $0x10,%rax
  406b8e:	48 b9 05 04 04 04 04 	movabs $0x404040404040405,%rcx
  406b95:	04 04 04 
  406b98:	48 89 08             	mov    %rcx,(%rax)
  406b9b:	e9 05 00 00 00       	jmpq   406ba5 <__cocheck__PoisonStack+0x1195>
  406ba0:	e9 00 00 00 00       	jmpq   406ba5 <__cocheck__PoisonStack+0x1195>
  406ba5:	c7 84 24 34 01 00 00 	movl   $0x1,0x134(%rsp)
  406bac:	01 00 00 00 
  406bb0:	e9 4b 01 00 00       	jmpq   406d00 <__cocheck__PoisonStack+0x12f0>
  406bb5:	48 8b 84 24 40 01 00 	mov    0x140(%rsp),%rax
  406bbc:	00 
  406bbd:	48 83 e8 08          	sub    $0x8,%rax
  406bc1:	48 b9 04 03 03 03 03 	movabs $0x102020303030304,%rcx
  406bc8:	02 02 01 
  406bcb:	48 89 08             	mov    %rcx,(%rax)
  406bce:	48 8b 84 24 40 01 00 	mov    0x140(%rsp),%rax
  406bd5:	00 
  406bd6:	48 83 e8 10          	sub    $0x10,%rax
  406bda:	48 b9 05 04 04 04 04 	movabs $0x404040404040405,%rcx
  406be1:	04 04 04 
  406be4:	48 89 08             	mov    %rcx,(%rax)
  406be7:	48 c7 84 24 28 01 00 	movq   $0x4,0x128(%rsp)
  406bee:	00 04 00 00 00 
  406bf3:	48 8b 84 24 40 01 00 	mov    0x140(%rsp),%rax
  406bfa:	00 
  406bfb:	48 8b 8c 24 28 01 00 	mov    0x128(%rsp),%rcx
  406c02:	00 
  406c03:	ba 01 00 00 00       	mov    $0x1,%edx
  406c08:	d3 e2                	shl    %cl,%edx
  406c0a:	89 d1                	mov    %edx,%ecx
  406c0c:	48 63 c9             	movslq %ecx,%rcx
  406c0f:	48 29 c8             	sub    %rcx,%rax
  406c12:	48 3b 84 24 48 01 00 	cmp    0x148(%rsp),%rax
  406c19:	00 
  406c1a:	0f 83 1b 00 00 00    	jae    406c3b <__cocheck__PoisonStack+0x122b>
  406c20:	c7 84 24 34 01 00 00 	movl   $0x3,0x134(%rsp)
  406c27:	03 00 00 00 
  406c2b:	c7 84 24 34 01 00 00 	movl   $0x0,0x134(%rsp)
  406c32:	00 00 00 00 
  406c36:	e9 c5 00 00 00       	jmpq   406d00 <__cocheck__PoisonStack+0x12f0>
  406c3b:	48 8b 84 24 40 01 00 	mov    0x140(%rsp),%rax
  406c42:	00 
  406c43:	48 8b 8c 24 28 01 00 	mov    0x128(%rsp),%rcx
  406c4a:	00 
  406c4b:	48 83 c1 01          	add    $0x1,%rcx
  406c4f:	ba 01 00 00 00       	mov    $0x1,%edx
  406c54:	d3 e2                	shl    %cl,%edx
  406c56:	89 d1                	mov    %edx,%ecx
  406c58:	48 63 c9             	movslq %ecx,%rcx
  406c5b:	48 29 c8             	sub    %rcx,%rax
  406c5e:	48 83 c0 01          	add    $0x1,%rax
  406c62:	48 89 84 24 20 01 00 	mov    %rax,0x120(%rsp)
  406c69:	00 
  406c6a:	48 8b 84 24 40 01 00 	mov    0x140(%rsp),%rax
  406c71:	00 
  406c72:	48 8b 8c 24 28 01 00 	mov    0x128(%rsp),%rcx
  406c79:	00 
  406c7a:	ba 01 00 00 00       	mov    $0x1,%edx
  406c7f:	d3 e2                	shl    %cl,%edx
  406c81:	89 d1                	mov    %edx,%ecx
  406c83:	48 63 c9             	movslq %ecx,%rcx
  406c86:	48 29 c8             	sub    %rcx,%rax
  406c89:	48 89 84 24 18 01 00 	mov    %rax,0x118(%rsp)
  406c90:	00 
  406c91:	48 8b 84 24 20 01 00 	mov    0x120(%rsp),%rax
  406c98:	00 
  406c99:	48 3b 84 24 48 01 00 	cmp    0x148(%rsp),%rax
  406ca0:	00 
  406ca1:	0f 83 10 00 00 00    	jae    406cb7 <__cocheck__PoisonStack+0x12a7>
  406ca7:	48 8b 84 24 48 01 00 	mov    0x148(%rsp),%rax
  406cae:	00 
  406caf:	48 89 84 24 20 01 00 	mov    %rax,0x120(%rsp)
  406cb6:	00 
  406cb7:	48 8b bc 24 20 01 00 	mov    0x120(%rsp),%rdi
  406cbe:	00 
  406cbf:	48 8b 84 24 28 01 00 	mov    0x128(%rsp),%rax
  406cc6:	00 
  406cc7:	48 83 c0 01          	add    $0x1,%rax
  406ccb:	48 8b 94 24 18 01 00 	mov    0x118(%rsp),%rdx
  406cd2:	00 
  406cd3:	48 2b 94 24 20 01 00 	sub    0x120(%rsp),%rdx
  406cda:	00 
  406cdb:	48 83 c2 01          	add    $0x1,%rdx
  406cdf:	0f b6 f0             	movzbl %al,%esi
  406ce2:	e8 e9 a3 ff ff       	callq  4010d0 <memset@plt>
  406ce7:	48 8b 84 24 28 01 00 	mov    0x128(%rsp),%rax
  406cee:	00 
  406cef:	48 83 c0 01          	add    $0x1,%rax
  406cf3:	48 89 84 24 28 01 00 	mov    %rax,0x128(%rsp)
  406cfa:	00 
  406cfb:	e9 f3 fe ff ff       	jmpq   406bf3 <__cocheck__PoisonStack+0x11e3>
  406d00:	e9 35 00 00 00       	jmpq   406d3a <__cocheck__PoisonStack+0x132a>
  406d05:	48 8b 84 24 10 01 00 	mov    0x110(%rsp),%rax
  406d0c:	00 
  406d0d:	48 c1 e8 03          	shr    $0x3,%rax
  406d11:	48 05 00 80 ff 7f    	add    $0x7fff8000,%rax
  406d17:	48 89 84 24 e8 00 00 	mov    %rax,0xe8(%rsp)
  406d1e:	00 
  406d1f:	48 8b bc 24 e8 00 00 	mov    0xe8(%rsp),%rdi
  406d26:	00 
  406d27:	48 8b 94 24 08 01 00 	mov    0x108(%rsp),%rdx
  406d2e:	00 
  406d2f:	48 c1 ea 03          	shr    $0x3,%rdx
  406d33:	31 f6                	xor    %esi,%esi
  406d35:	e8 96 a3 ff ff       	callq  4010d0 <memset@plt>
  406d3a:	48 8b 44 24 60       	mov    0x60(%rsp),%rax
  406d3f:	48 83 e0 07          	and    $0x7,%rax
  406d43:	48 83 f8 00          	cmp    $0x0,%rax
  406d47:	0f 84 2e 00 00 00    	je     406d7b <__cocheck__PoisonStack+0x136b>
  406d4d:	48 8b 44 24 60       	mov    0x60(%rsp),%rax
  406d52:	48 83 e0 07          	and    $0x7,%rax
  406d56:	ba 08 00 00 00       	mov    $0x8,%edx
  406d5b:	48 29 c2             	sub    %rax,%rdx
  406d5e:	48 c1 e2 05          	shl    $0x5,%rdx
  406d62:	48 8b 44 24 50       	mov    0x50(%rsp),%rax
  406d67:	48 c1 e8 03          	shr    $0x3,%rax
  406d6b:	0f b6 88 00 80 ff 7f 	movzbl 0x7fff8000(%rax),%ecx
  406d72:	48 01 d1             	add    %rdx,%rcx
  406d75:	88 88 00 80 ff 7f    	mov    %cl,0x7fff8000(%rax)
  406d7b:	e9 00 00 00 00       	jmpq   406d80 <__cocheck__PoisonStack+0x1370>
  406d80:	e9 00 00 00 00       	jmpq   406d85 <__cocheck__PoisonStack+0x1375>
  406d85:	48 81 c4 d8 01 00 00 	add    $0x1d8,%rsp
  406d8c:	c3                   	retq   
  406d8d:	0f 1f 00             	nopl   (%rax)

0000000000406d90 <__cocheck__reportError>:
  406d90:	48 83 ec 28          	sub    $0x28,%rsp
  406d94:	48 89 7c 24 20       	mov    %rdi,0x20(%rsp)
  406d99:	48 89 74 24 18       	mov    %rsi,0x18(%rsp)
  406d9e:	48 89 54 24 10       	mov    %rdx,0x10(%rsp)
  406da3:	48 8b 44 24 20       	mov    0x20(%rsp),%rax
  406da8:	48 c1 e8 03          	shr    $0x3,%rax
  406dac:	48 05 00 80 ff 7f    	add    $0x7fff8000,%rax
  406db2:	48 89 44 24 08       	mov    %rax,0x8(%rsp)
  406db7:	48 8b 74 24 20       	mov    0x20(%rsp),%rsi
  406dbc:	48 8b 44 24 18       	mov    0x18(%rsp),%rax
  406dc1:	89 c2                	mov    %eax,%edx
  406dc3:	48 8b 4c 24 10       	mov    0x10(%rsp),%rcx
  406dc8:	4c 8b 44 24 20       	mov    0x20(%rsp),%r8
  406dcd:	49 c1 e8 03          	shr    $0x3,%r8
  406dd1:	49 81 c0 00 80 ff 7f 	add    $0x7fff8000,%r8
  406dd8:	48 bf e9 5a 41 00 00 	movabs $0x415ae9,%rdi
  406ddf:	00 00 00 
  406de2:	b0 00                	mov    $0x0,%al
  406de4:	e8 77 a2 ff ff       	callq  401060 <printf@plt>
  406de9:	48 bf 11 5b 41 00 00 	movabs $0x415b11,%rdi
  406df0:	00 00 00 
  406df3:	b0 00                	mov    $0x0,%al
  406df5:	e8 66 a2 ff ff       	callq  401060 <printf@plt>
  406dfa:	c7 44 24 04 00 00 00 	movl   $0x0,0x4(%rsp)
  406e01:	00 
  406e02:	83 7c 24 04 0a       	cmpl   $0xa,0x4(%rsp)
  406e07:	0f 8c 05 00 00 00    	jl     406e12 <__cocheck__reportError+0x82>
  406e0d:	e9 2f 00 00 00       	jmpq   406e41 <__cocheck__reportError+0xb1>
  406e12:	48 8b 44 24 08       	mov    0x8(%rsp),%rax
  406e17:	48 63 4c 24 04       	movslq 0x4(%rsp),%rcx
  406e1c:	0f b6 34 08          	movzbl (%rax,%rcx,1),%esi
  406e20:	48 bf 1b 5b 41 00 00 	movabs $0x415b1b,%rdi
  406e27:	00 00 00 
  406e2a:	b0 00                	mov    $0x0,%al
  406e2c:	e8 2f a2 ff ff       	callq  401060 <printf@plt>
  406e31:	8b 44 24 04          	mov    0x4(%rsp),%eax
  406e35:	83 c0 01             	add    $0x1,%eax
  406e38:	89 44 24 04          	mov    %eax,0x4(%rsp)
  406e3c:	e9 c1 ff ff ff       	jmpq   406e02 <__cocheck__reportError+0x72>
  406e41:	48 bf 15 5c 41 00 00 	movabs $0x415c15,%rdi
  406e48:	00 00 00 
  406e4b:	e8 50 a4 ff ff       	callq  4012a0 <puts@plt>
  406e50:	e8 8b a2 ff ff       	callq  4010e0 <abort@plt>
  406e55:	66 2e 0f 1f 84 00 00 	nopw   %cs:0x0(%rax,%rax,1)
  406e5c:	00 00 00 
  406e5f:	90                   	nop

0000000000406e60 <__cocheck__Record>:
  406e60:	48 83 ec 18          	sub    $0x18,%rsp
  406e64:	48 89 7c 24 10       	mov    %rdi,0x10(%rsp)
  406e69:	48 83 3c 25 b8 84 61 	cmpq   $0x0,0x6184b8
  406e70:	00 00 
  406e72:	0f 85 35 00 00 00    	jne    406ead <__cocheck__Record+0x4d>
  406e78:	bf 30 00 00 00       	mov    $0x30,%edi
  406e7d:	e8 2e a3 ff ff       	callq  4011b0 <_Znwm@plt>
  406e82:	48 89 c7             	mov    %rax,%rdi
  406e85:	48 89 7c 24 08       	mov    %rdi,0x8(%rsp)
  406e8a:	31 f6                	xor    %esi,%esi
  406e8c:	ba 30 00 00 00       	mov    $0x30,%edx
  406e91:	e8 3a a2 ff ff       	callq  4010d0 <memset@plt>
  406e96:	48 8b 7c 24 08       	mov    0x8(%rsp),%rdi
  406e9b:	e8 b0 c1 00 00       	callq  413050 <_ZNSt3mapImmSt4lessImESaISt4pairIKmmEEEC2Ev>
  406ea0:	48 8b 44 24 08       	mov    0x8(%rsp),%rax
  406ea5:	48 89 04 25 b8 84 61 	mov    %rax,0x6184b8
  406eac:	00 
  406ead:	48 8b 3c 25 b8 84 61 	mov    0x6184b8,%rdi
  406eb4:	00 
  406eb5:	48 8d 74 24 10       	lea    0x10(%rsp),%rsi
  406eba:	e8 a1 c1 00 00       	callq  413060 <_ZNSt3mapImmSt4lessImESaISt4pairIKmmEEEixERS3_>
  406ebf:	48 8b 00             	mov    (%rax),%rax
  406ec2:	48 83 c0 01          	add    $0x1,%rax
  406ec6:	48 89 04 24          	mov    %rax,(%rsp)
  406eca:	48 8b 3c 25 b8 84 61 	mov    0x6184b8,%rdi
  406ed1:	00 
  406ed2:	48 8d 74 24 10       	lea    0x10(%rsp),%rsi
  406ed7:	e8 84 c1 00 00       	callq  413060 <_ZNSt3mapImmSt4lessImESaISt4pairIKmmEEEixERS3_>
  406edc:	48 8b 0c 24          	mov    (%rsp),%rcx
  406ee0:	48 89 08             	mov    %rcx,(%rax)
  406ee3:	48 83 c4 18          	add    $0x18,%rsp
  406ee7:	c3                   	retq   
  406ee8:	0f 1f 84 00 00 00 00 	nopl   0x0(%rax,%rax,1)
  406eef:	00 

0000000000406ef0 <__cocheck__endWithShadow>:
  406ef0:	48 83 ec 18          	sub    $0x18,%rsp
  406ef4:	48 89 7c 24 10       	mov    %rdi,0x10(%rsp)
  406ef9:	c7 44 24 0c 00 00 00 	movl   $0x0,0xc(%rsp)
  406f00:	00 
  406f01:	83 7c 24 0c 14       	cmpl   $0x14,0xc(%rsp)
  406f06:	0f 8c 05 00 00 00    	jl     406f11 <__cocheck__endWithShadow+0x21>
  406f0c:	e9 31 00 00 00       	jmpq   406f42 <__cocheck__endWithShadow+0x52>
  406f11:	48 8b 44 24 10       	mov    0x10(%rsp),%rax
  406f16:	48 63 4c 24 0c       	movslq 0xc(%rsp),%rcx
  406f1b:	48 01 c8             	add    %rcx,%rax
  406f1e:	0f b6 30             	movzbl (%rax),%esi
  406f21:	48 bf 1b 5b 41 00 00 	movabs $0x415b1b,%rdi
  406f28:	00 00 00 
  406f2b:	b0 00                	mov    $0x0,%al
  406f2d:	e8 2e a1 ff ff       	callq  401060 <printf@plt>
  406f32:	8b 44 24 0c          	mov    0xc(%rsp),%eax
  406f36:	83 c0 01             	add    $0x1,%eax
  406f39:	89 44 24 0c          	mov    %eax,0xc(%rsp)
  406f3d:	e9 bf ff ff ff       	jmpq   406f01 <__cocheck__endWithShadow+0x11>
  406f42:	48 bf 15 5c 41 00 00 	movabs $0x415c15,%rdi
  406f49:	00 00 00 
  406f4c:	e8 4f a3 ff ff       	callq  4012a0 <puts@plt>
  406f51:	31 ff                	xor    %edi,%edi
  406f53:	e8 b8 a2 ff ff       	callq  401210 <exit@plt>
  406f58:	0f 1f 84 00 00 00 00 	nopl   0x0(%rax,%rax,1)
  406f5f:	00 

0000000000406f60 <__cocheck__RecordAccess>:
  406f60:	48 83 ec 18          	sub    $0x18,%rsp
  406f64:	48 89 7c 24 10       	mov    %rdi,0x10(%rsp)
  406f69:	48 89 74 24 08       	mov    %rsi,0x8(%rsp)
  406f6e:	48 8b 7c 24 10       	mov    0x10(%rsp),%rdi
  406f73:	e8 e8 c1 00 00       	callq  413160 <_Z9load_realm>
  406f78:	48 89 04 24          	mov    %rax,(%rsp)
  406f7c:	48 8b 74 24 08       	mov    0x8(%rsp),%rsi
  406f81:	48 2b 74 24 10       	sub    0x10(%rsp),%rsi
  406f86:	48 8b 14 24          	mov    (%rsp),%rdx
  406f8a:	48 bf 21 5b 41 00 00 	movabs $0x415b21,%rdi
  406f91:	00 00 00 
  406f94:	b0 00                	mov    $0x0,%al
  406f96:	e8 c5 a0 ff ff       	callq  401060 <printf@plt>
  406f9b:	48 83 c4 18          	add    $0x18,%rsp
  406f9f:	c3                   	retq   

0000000000406fa0 <__cocheck__RecordType>:
  406fa0:	50                   	push   %rax
  406fa1:	48 89 3c 24          	mov    %rdi,(%rsp)
  406fa5:	48 8b 04 24          	mov    (%rsp),%rax
  406fa9:	89 c6                	mov    %eax,%esi
  406fab:	48 bf 33 5b 41 00 00 	movabs $0x415b33,%rdi
  406fb2:	00 00 00 
  406fb5:	b0 00                	mov    $0x0,%al
  406fb7:	e8 a4 a0 ff ff       	callq  401060 <printf@plt>
  406fbc:	58                   	pop    %rax
  406fbd:	c3                   	retq   
  406fbe:	66 90                	xchg   %ax,%ax

0000000000406fc0 <__cocheck__EMPTY>:
  406fc0:	50                   	push   %rax
  406fc1:	8b 04 25 c0 84 61 00 	mov    0x6184c0,%eax
  406fc8:	83 c0 01             	add    $0x1,%eax
  406fcb:	89 04 25 c0 84 61 00 	mov    %eax,0x6184c0
  406fd2:	8b 34 25 c0 84 61 00 	mov    0x6184c0,%esi
  406fd9:	48 bf 39 5b 41 00 00 	movabs $0x415b39,%rdi
  406fe0:	00 00 00 
  406fe3:	b0 00                	mov    $0x0,%al
  406fe5:	e8 76 a0 ff ff       	callq  401060 <printf@plt>
  406fea:	58                   	pop    %rax
  406feb:	c3                   	retq   
  406fec:	0f 1f 40 00          	nopl   0x0(%rax)

0000000000406ff0 <__cocheck__reportDiff>:
  406ff0:	48 83 ec 38          	sub    $0x38,%rsp
  406ff4:	48 89 7c 24 30       	mov    %rdi,0x30(%rsp)
  406ff9:	48 89 74 24 28       	mov    %rsi,0x28(%rsp)
  406ffe:	48 89 54 24 20       	mov    %rdx,0x20(%rsp)
  407003:	48 8b 44 24 30       	mov    0x30(%rsp),%rax
  407008:	48 89 44 24 08       	mov    %rax,0x8(%rsp)
  40700d:	48 8b 44 24 28       	mov    0x28(%rsp),%rax
  407012:	48 89 44 24 10       	mov    %rax,0x10(%rsp)
  407017:	48 8b 44 24 20       	mov    0x20(%rsp),%rax
  40701c:	48 89 44 24 18       	mov    %rax,0x18(%rsp)
  407021:	48 8b 7c 24 28       	mov    0x28(%rsp),%rdi
  407026:	e8 35 c1 00 00       	callq  413160 <_Z9load_realm>
  40702b:	48 8b 74 24 08       	mov    0x8(%rsp),%rsi
  407030:	48 8b 54 24 10       	mov    0x10(%rsp),%rdx
  407035:	48 8b 4c 24 18       	mov    0x18(%rsp),%rcx
  40703a:	49 89 c0             	mov    %rax,%r8
  40703d:	48 bf 3d 5b 41 00 00 	movabs $0x415b3d,%rdi
  407044:	00 00 00 
  407047:	b0 00                	mov    $0x0,%al
  407049:	e8 12 a0 ff ff       	callq  401060 <printf@plt>
  40704e:	48 83 c4 38          	add    $0x38,%rsp
  407052:	c3                   	retq   
  407053:	66 2e 0f 1f 84 00 00 	nopw   %cs:0x0(%rax,%rax,1)
  40705a:	00 00 00 
  40705d:	0f 1f 00             	nopl   (%rax)

0000000000407060 <malloc>:
  407060:	48 81 ec e8 01 00 00 	sub    $0x1e8,%rsp
  407067:	48 89 7c 24 28       	mov    %rdi,0x28(%rsp)
  40706c:	48 81 7c 24 28 00 1c 	cmpq   $0x11c00,0x28(%rsp)
  407073:	01 00 
  407075:	0f 85 14 00 00 00    	jne    40708f <malloc+0x2f>
  40707b:	48 8b 7c 24 28       	mov    0x28(%rsp),%rdi
  407080:	e8 2b a2 ff ff       	callq  4012b0 <__libc_malloc@plt>
  407085:	48 89 44 24 30       	mov    %rax,0x30(%rsp)
  40708a:	e9 97 13 00 00       	jmpq   408426 <malloc+0x13c6>
  40708f:	48 8b 7c 24 28       	mov    0x28(%rsp),%rdi
  407094:	e8 17 a2 ff ff       	callq  4012b0 <__libc_malloc@plt>
  407099:	48 89 44 24 20       	mov    %rax,0x20(%rsp)
  40709e:	48 83 7c 24 20 00    	cmpq   $0x0,0x20(%rsp)
  4070a4:	0f 84 72 13 00 00    	je     40841c <malloc+0x13bc>
  4070aa:	48 8b 4c 24 20       	mov    0x20(%rsp),%rcx
  4070af:	48 8b 44 24 28       	mov    0x28(%rsp),%rax
  4070b4:	48 89 4c 24 78       	mov    %rcx,0x78(%rsp)
  4070b9:	48 89 44 24 70       	mov    %rax,0x70(%rsp)
  4070be:	48 8b 44 24 78       	mov    0x78(%rsp),%rax
  4070c3:	48 89 44 24 68       	mov    %rax,0x68(%rsp)
  4070c8:	48 8b 44 24 68       	mov    0x68(%rsp),%rax
  4070cd:	48 03 44 24 70       	add    0x70(%rsp),%rax
  4070d2:	48 89 44 24 60       	mov    %rax,0x60(%rsp)
  4070d7:	48 8b 44 24 68       	mov    0x68(%rsp),%rax
  4070dc:	48 c1 e8 08          	shr    $0x8,%rax
  4070e0:	48 89 44 24 58       	mov    %rax,0x58(%rsp)
  4070e5:	48 8b 44 24 58       	mov    0x58(%rsp),%rax
  4070ea:	48 c1 e0 08          	shl    $0x8,%rax
  4070ee:	48 89 44 24 50       	mov    %rax,0x50(%rsp)
  4070f3:	48 8b 44 24 60       	mov    0x60(%rsp),%rax
  4070f8:	48 c1 e8 08          	shr    $0x8,%rax
  4070fc:	48 89 44 24 48       	mov    %rax,0x48(%rsp)
  407101:	48 8b 44 24 48       	mov    0x48(%rsp),%rax
  407106:	48 c1 e0 08          	shl    $0x8,%rax
  40710a:	48 89 44 24 40       	mov    %rax,0x40(%rsp)
  40710f:	48 8b 44 24 58       	mov    0x58(%rsp),%rax
  407114:	48 3b 44 24 48       	cmp    0x48(%rsp),%rax
  407119:	0f 85 19 06 00 00    	jne    407738 <malloc+0x6d8>
  40711f:	48 8b 4c 24 78       	mov    0x78(%rsp),%rcx
  407124:	48 8b 44 24 70       	mov    0x70(%rsp),%rax
  407129:	48 89 8c 24 a8 00 00 	mov    %rcx,0xa8(%rsp)
  407130:	00 
  407131:	48 89 84 24 a0 00 00 	mov    %rax,0xa0(%rsp)
  407138:	00 
  407139:	c6 84 24 9f 00 00 00 	movb   $0x0,0x9f(%rsp)
  407140:	00 
  407141:	48 8b 84 24 a8 00 00 	mov    0xa8(%rsp),%rax
  407148:	00 
  407149:	48 c1 e8 08          	shr    $0x8,%rax
  40714d:	48 89 84 24 90 00 00 	mov    %rax,0x90(%rsp)
  407154:	00 
  407155:	48 8b 04 25 08 82 61 	mov    0x618208,%rax
  40715c:	00 
  40715d:	48 8b 8c 24 90 00 00 	mov    0x90(%rsp),%rcx
  407164:	00 
  407165:	80 3c 08 00          	cmpb   $0x0,(%rax,%rcx,1)
  407169:	0f 85 49 00 00 00    	jne    4071b8 <malloc+0x158>
  40716f:	48 8b 04 25 08 82 61 	mov    0x618208,%rax
  407176:	00 
  407177:	48 8b 8c 24 90 00 00 	mov    0x90(%rsp),%rcx
  40717e:	00 
  40717f:	c6 04 08 01          	movb   $0x1,(%rax,%rcx,1)
  407183:	48 8b 84 24 90 00 00 	mov    0x90(%rsp),%rax
  40718a:	00 
  40718b:	48 c1 e0 08          	shl    $0x8,%rax
  40718f:	48 c1 e8 03          	shr    $0x3,%rax
  407193:	48 05 00 80 ff 7f    	add    $0x7fff8000,%rax
  407199:	48 89 84 24 88 00 00 	mov    %rax,0x88(%rsp)
  4071a0:	00 
  4071a1:	48 8b bc 24 88 00 00 	mov    0x88(%rsp),%rdi
  4071a8:	00 
  4071a9:	be ff 00 00 00       	mov    $0xff,%esi
  4071ae:	ba 20 00 00 00       	mov    $0x20,%edx
  4071b3:	e8 18 9f ff ff       	callq  4010d0 <memset@plt>
  4071b8:	80 bc 24 9f 00 00 00 	cmpb   $0x0,0x9f(%rsp)
  4071bf:	00 
  4071c0:	0f 85 f7 04 00 00    	jne    4076bd <malloc+0x65d>
  4071c6:	48 8b 8c 24 a8 00 00 	mov    0xa8(%rsp),%rcx
  4071cd:	00 
  4071ce:	48 8b 84 24 a0 00 00 	mov    0xa0(%rsp),%rax
  4071d5:	00 
  4071d6:	48 89 8c 24 f0 00 00 	mov    %rcx,0xf0(%rsp)
  4071dd:	00 
  4071de:	48 89 84 24 e8 00 00 	mov    %rax,0xe8(%rsp)
  4071e5:	00 
  4071e6:	48 8b 84 24 f0 00 00 	mov    0xf0(%rsp),%rax
  4071ed:	00 
  4071ee:	48 c1 e8 03          	shr    $0x3,%rax
  4071f2:	48 05 00 80 ff 7f    	add    $0x7fff8000,%rax
  4071f8:	48 89 84 24 e0 00 00 	mov    %rax,0xe0(%rsp)
  4071ff:	00 
  407200:	48 8b 84 24 f0 00 00 	mov    0xf0(%rsp),%rax
  407207:	00 
  407208:	48 03 84 24 e8 00 00 	add    0xe8(%rsp),%rax
  40720f:	00 
  407210:	48 83 e8 01          	sub    $0x1,%rax
  407214:	48 c1 e8 03          	shr    $0x3,%rax
  407218:	48 05 00 80 ff 7f    	add    $0x7fff8000,%rax
  40721e:	48 83 c0 01          	add    $0x1,%rax
  407222:	48 89 84 24 d8 00 00 	mov    %rax,0xd8(%rsp)
  407229:	00 
  40722a:	48 81 bc 24 e8 00 00 	cmpq   $0x80,0xe8(%rsp)
  407231:	00 80 00 00 00 
  407236:	0f 87 31 03 00 00    	ja     40756d <malloc+0x50d>
  40723c:	48 8b 84 24 e8 00 00 	mov    0xe8(%rsp),%rax
  407243:	00 
  407244:	48 83 c0 07          	add    $0x7,%rax
  407248:	48 c1 e8 03          	shr    $0x3,%rax
  40724c:	48 89 84 24 d0 00 00 	mov    %rax,0xd0(%rsp)
  407253:	00 
  407254:	48 8b 84 24 d0 00 00 	mov    0xd0(%rsp),%rax
  40725b:	00 
  40725c:	48 83 c0 ff          	add    $0xffffffffffffffff,%rax
  407260:	48 89 44 24 18       	mov    %rax,0x18(%rsp)
  407265:	48 83 e8 0f          	sub    $0xf,%rax
  407269:	0f 87 e9 02 00 00    	ja     407558 <malloc+0x4f8>
  40726f:	48 8b 44 24 18       	mov    0x18(%rsp),%rax
  407274:	48 8b 04 c5 68 4e 41 	mov    0x414e68(,%rax,8),%rax
  40727b:	00 
  40727c:	ff e0                	jmpq   *%rax
  40727e:	48 8b 84 24 d8 00 00 	mov    0xd8(%rsp),%rax
  407285:	00 
  407286:	48 83 e8 01          	sub    $0x1,%rax
  40728a:	c6 00 01             	movb   $0x1,(%rax)
  40728d:	e9 cb 02 00 00       	jmpq   40755d <malloc+0x4fd>
  407292:	48 8b 84 24 d8 00 00 	mov    0xd8(%rsp),%rax
  407299:	00 
  40729a:	48 83 e8 02          	sub    $0x2,%rax
  40729e:	66 c7 00 02 01       	movw   $0x102,(%rax)
  4072a3:	e9 b5 02 00 00       	jmpq   40755d <malloc+0x4fd>
  4072a8:	48 8b 84 24 d8 00 00 	mov    0xd8(%rsp),%rax
  4072af:	00 
  4072b0:	48 83 e8 01          	sub    $0x1,%rax
  4072b4:	c6 00 01             	movb   $0x1,(%rax)
  4072b7:	48 8b 84 24 d8 00 00 	mov    0xd8(%rsp),%rax
  4072be:	00 
  4072bf:	48 83 e8 03          	sub    $0x3,%rax
  4072c3:	66 c7 00 02 02       	movw   $0x202,(%rax)
  4072c8:	e9 90 02 00 00       	jmpq   40755d <malloc+0x4fd>
  4072cd:	48 8b 84 24 d8 00 00 	mov    0xd8(%rsp),%rax
  4072d4:	00 
  4072d5:	48 83 e8 04          	sub    $0x4,%rax
  4072d9:	c7 00 03 02 02 01    	movl   $0x1020203,(%rax)
  4072df:	e9 79 02 00 00       	jmpq   40755d <malloc+0x4fd>
  4072e4:	48 8b 84 24 d8 00 00 	mov    0xd8(%rsp),%rax
  4072eb:	00 
  4072ec:	48 83 e8 01          	sub    $0x1,%rax
  4072f0:	c6 00 01             	movb   $0x1,(%rax)
  4072f3:	48 8b 84 24 d8 00 00 	mov    0xd8(%rsp),%rax
  4072fa:	00 
  4072fb:	48 83 e8 05          	sub    $0x5,%rax
  4072ff:	c7 00 03 03 02 02    	movl   $0x2020303,(%rax)
  407305:	e9 53 02 00 00       	jmpq   40755d <malloc+0x4fd>
  40730a:	48 8b 84 24 d8 00 00 	mov    0xd8(%rsp),%rax
  407311:	00 
  407312:	48 83 e8 02          	sub    $0x2,%rax
  407316:	66 c7 00 02 01       	movw   $0x102,(%rax)
  40731b:	48 8b 84 24 d8 00 00 	mov    0xd8(%rsp),%rax
  407322:	00 
  407323:	48 83 e8 06          	sub    $0x6,%rax
  407327:	c7 00 03 03 03 02    	movl   $0x2030303,(%rax)
  40732d:	e9 2b 02 00 00       	jmpq   40755d <malloc+0x4fd>
  407332:	48 8b 84 24 d8 00 00 	mov    0xd8(%rsp),%rax
  407339:	00 
  40733a:	48 83 e8 01          	sub    $0x1,%rax
  40733e:	c6 00 01             	movb   $0x1,(%rax)
  407341:	48 8b 84 24 d8 00 00 	mov    0xd8(%rsp),%rax
  407348:	00 
  407349:	48 83 e8 03          	sub    $0x3,%rax
  40734d:	66 c7 00 02 02       	movw   $0x202,(%rax)
  407352:	48 8b 84 24 d8 00 00 	mov    0xd8(%rsp),%rax
  407359:	00 
  40735a:	48 83 e8 07          	sub    $0x7,%rax
  40735e:	c7 00 03 03 03 03    	movl   $0x3030303,(%rax)
  407364:	e9 f4 01 00 00       	jmpq   40755d <malloc+0x4fd>
  407369:	48 8b 84 24 d8 00 00 	mov    0xd8(%rsp),%rax
  407370:	00 
  407371:	48 83 e8 08          	sub    $0x8,%rax
  407375:	48 b9 04 03 03 03 03 	movabs $0x102020303030304,%rcx
  40737c:	02 02 01 
  40737f:	48 89 08             	mov    %rcx,(%rax)
  407382:	e9 d6 01 00 00       	jmpq   40755d <malloc+0x4fd>
  407387:	48 8b 84 24 d8 00 00 	mov    0xd8(%rsp),%rax
  40738e:	00 
  40738f:	48 83 e8 01          	sub    $0x1,%rax
  407393:	c6 00 01             	movb   $0x1,(%rax)
  407396:	48 8b 84 24 d8 00 00 	mov    0xd8(%rsp),%rax
  40739d:	00 
  40739e:	48 83 e8 09          	sub    $0x9,%rax
  4073a2:	48 b9 04 04 03 03 03 	movabs $0x202030303030404,%rcx
  4073a9:	03 02 02 
  4073ac:	48 89 08             	mov    %rcx,(%rax)
  4073af:	e9 a9 01 00 00       	jmpq   40755d <malloc+0x4fd>
  4073b4:	48 8b 84 24 d8 00 00 	mov    0xd8(%rsp),%rax
  4073bb:	00 
  4073bc:	48 83 e8 02          	sub    $0x2,%rax
  4073c0:	66 c7 00 02 01       	movw   $0x102,(%rax)
  4073c5:	48 8b 84 24 d8 00 00 	mov    0xd8(%rsp),%rax
  4073cc:	00 
  4073cd:	48 83 e8 0a          	sub    $0xa,%rax
  4073d1:	48 b9 04 04 04 03 03 	movabs $0x203030303040404,%rcx
  4073d8:	03 03 02 
  4073db:	48 89 08             	mov    %rcx,(%rax)
  4073de:	e9 7a 01 00 00       	jmpq   40755d <malloc+0x4fd>
  4073e3:	48 8b 84 24 d8 00 00 	mov    0xd8(%rsp),%rax
  4073ea:	00 
  4073eb:	48 83 e8 01          	sub    $0x1,%rax
  4073ef:	c6 00 01             	movb   $0x1,(%rax)
  4073f2:	48 8b 84 24 d8 00 00 	mov    0xd8(%rsp),%rax
  4073f9:	00 
  4073fa:	48 83 e8 03          	sub    $0x3,%rax
  4073fe:	66 c7 00 02 02       	movw   $0x202,(%rax)
  407403:	48 8b 84 24 d8 00 00 	mov    0xd8(%rsp),%rax
  40740a:	00 
  40740b:	48 83 e8 0b          	sub    $0xb,%rax
  40740f:	48 b9 04 04 04 04 03 	movabs $0x303030304040404,%rcx
  407416:	03 03 03 
  407419:	48 89 08             	mov    %rcx,(%rax)
  40741c:	e9 3c 01 00 00       	jmpq   40755d <malloc+0x4fd>
  407421:	48 8b 84 24 d8 00 00 	mov    0xd8(%rsp),%rax
  407428:	00 
  407429:	48 83 e8 04          	sub    $0x4,%rax
  40742d:	c7 00 03 02 02 01    	movl   $0x1020203,(%rax)
  407433:	48 8b 84 24 d8 00 00 	mov    0xd8(%rsp),%rax
  40743a:	00 
  40743b:	48 83 e8 0c          	sub    $0xc,%rax
  40743f:	48 b9 04 04 04 04 04 	movabs $0x303030404040404,%rcx
  407446:	03 03 03 
  407449:	48 89 08             	mov    %rcx,(%rax)
  40744c:	e9 0c 01 00 00       	jmpq   40755d <malloc+0x4fd>
  407451:	48 8b 84 24 d8 00 00 	mov    0xd8(%rsp),%rax
  407458:	00 
  407459:	48 83 e8 01          	sub    $0x1,%rax
  40745d:	c6 00 01             	movb   $0x1,(%rax)
  407460:	48 8b 84 24 d8 00 00 	mov    0xd8(%rsp),%rax
  407467:	00 
  407468:	48 83 e8 05          	sub    $0x5,%rax
  40746c:	c7 00 03 03 02 02    	movl   $0x2020303,(%rax)
  407472:	48 8b 84 24 d8 00 00 	mov    0xd8(%rsp),%rax
  407479:	00 
  40747a:	48 83 e8 0d          	sub    $0xd,%rax
  40747e:	48 b9 04 04 04 04 04 	movabs $0x303040404040404,%rcx
  407485:	04 03 03 
  407488:	48 89 08             	mov    %rcx,(%rax)
  40748b:	e9 cd 00 00 00       	jmpq   40755d <malloc+0x4fd>
  407490:	48 8b 84 24 d8 00 00 	mov    0xd8(%rsp),%rax
  407497:	00 
  407498:	48 83 e8 02          	sub    $0x2,%rax
  40749c:	66 c7 00 02 01       	movw   $0x102,(%rax)
  4074a1:	48 8b 84 24 d8 00 00 	mov    0xd8(%rsp),%rax
  4074a8:	00 
  4074a9:	48 83 e8 06          	sub    $0x6,%rax
  4074ad:	c7 00 03 03 03 02    	movl   $0x2030303,(%rax)
  4074b3:	48 8b 84 24 d8 00 00 	mov    0xd8(%rsp),%rax
  4074ba:	00 
  4074bb:	48 83 e8 0e          	sub    $0xe,%rax
  4074bf:	48 b9 04 04 04 04 04 	movabs $0x304040404040404,%rcx
  4074c6:	04 04 03 
  4074c9:	48 89 08             	mov    %rcx,(%rax)
  4074cc:	e9 8c 00 00 00       	jmpq   40755d <malloc+0x4fd>
  4074d1:	48 8b 84 24 d8 00 00 	mov    0xd8(%rsp),%rax
  4074d8:	00 
  4074d9:	48 83 e8 01          	sub    $0x1,%rax
  4074dd:	c6 00 01             	movb   $0x1,(%rax)
  4074e0:	48 8b 84 24 d8 00 00 	mov    0xd8(%rsp),%rax
  4074e7:	00 
  4074e8:	48 83 e8 03          	sub    $0x3,%rax
  4074ec:	66 c7 00 02 02       	movw   $0x202,(%rax)
  4074f1:	48 8b 84 24 d8 00 00 	mov    0xd8(%rsp),%rax
  4074f8:	00 
  4074f9:	48 83 e8 07          	sub    $0x7,%rax
  4074fd:	c7 00 03 03 03 03    	movl   $0x3030303,(%rax)
  407503:	48 8b 84 24 d8 00 00 	mov    0xd8(%rsp),%rax
  40750a:	00 
  40750b:	48 83 e8 0f          	sub    $0xf,%rax
  40750f:	48 b9 04 04 04 04 04 	movabs $0x404040404040404,%rcx
  407516:	04 04 04 
  407519:	48 89 08             	mov    %rcx,(%rax)
  40751c:	e9 3c 00 00 00       	jmpq   40755d <malloc+0x4fd>
  407521:	48 8b 84 24 d8 00 00 	mov    0xd8(%rsp),%rax
  407528:	00 
  407529:	48 83 e8 08          	sub    $0x8,%rax
  40752d:	48 b9 04 03 03 03 03 	movabs $0x102020303030304,%rcx
  407534:	02 02 01 
  407537:	48 89 08             	mov    %rcx,(%rax)
  40753a:	48 8b 84 24 d8 00 00 	mov    0xd8(%rsp),%rax
  407541:	00 
  407542:	48 83 e8 10          	sub    $0x10,%rax
  407546:	48 b9 05 04 04 04 04 	movabs $0x404040404040405,%rcx
  40754d:	04 04 04 
  407550:	48 89 08             	mov    %rcx,(%rax)
  407553:	e9 05 00 00 00       	jmpq   40755d <malloc+0x4fd>
  407558:	e9 00 00 00 00       	jmpq   40755d <malloc+0x4fd>
  40755d:	c7 84 24 cc 00 00 00 	movl   $0x1,0xcc(%rsp)
  407564:	01 00 00 00 
  407568:	e9 4b 01 00 00       	jmpq   4076b8 <malloc+0x658>
  40756d:	48 8b 84 24 d8 00 00 	mov    0xd8(%rsp),%rax
  407574:	00 
  407575:	48 83 e8 08          	sub    $0x8,%rax
  407579:	48 b9 04 03 03 03 03 	movabs $0x102020303030304,%rcx
  407580:	02 02 01 
  407583:	48 89 08             	mov    %rcx,(%rax)
  407586:	48 8b 84 24 d8 00 00 	mov    0xd8(%rsp),%rax
  40758d:	00 
  40758e:	48 83 e8 10          	sub    $0x10,%rax
  407592:	48 b9 05 04 04 04 04 	movabs $0x404040404040405,%rcx
  407599:	04 04 04 
  40759c:	48 89 08             	mov    %rcx,(%rax)
  40759f:	48 c7 84 24 c0 00 00 	movq   $0x4,0xc0(%rsp)
  4075a6:	00 04 00 00 00 
  4075ab:	48 8b 84 24 d8 00 00 	mov    0xd8(%rsp),%rax
  4075b2:	00 
  4075b3:	48 8b 8c 24 c0 00 00 	mov    0xc0(%rsp),%rcx
  4075ba:	00 
  4075bb:	ba 01 00 00 00       	mov    $0x1,%edx
  4075c0:	d3 e2                	shl    %cl,%edx
  4075c2:	89 d1                	mov    %edx,%ecx
  4075c4:	48 63 c9             	movslq %ecx,%rcx
  4075c7:	48 29 c8             	sub    %rcx,%rax
  4075ca:	48 3b 84 24 e0 00 00 	cmp    0xe0(%rsp),%rax
  4075d1:	00 
  4075d2:	0f 83 1b 00 00 00    	jae    4075f3 <malloc+0x593>
  4075d8:	c7 84 24 cc 00 00 00 	movl   $0x3,0xcc(%rsp)
  4075df:	03 00 00 00 
  4075e3:	c7 84 24 cc 00 00 00 	movl   $0x0,0xcc(%rsp)
  4075ea:	00 00 00 00 
  4075ee:	e9 c5 00 00 00       	jmpq   4076b8 <malloc+0x658>
  4075f3:	48 8b 84 24 d8 00 00 	mov    0xd8(%rsp),%rax
  4075fa:	00 
  4075fb:	48 8b 8c 24 c0 00 00 	mov    0xc0(%rsp),%rcx
  407602:	00 
  407603:	48 83 c1 01          	add    $0x1,%rcx
  407607:	ba 01 00 00 00       	mov    $0x1,%edx
  40760c:	d3 e2                	shl    %cl,%edx
  40760e:	89 d1                	mov    %edx,%ecx
  407610:	48 63 c9             	movslq %ecx,%rcx
  407613:	48 29 c8             	sub    %rcx,%rax
  407616:	48 83 c0 01          	add    $0x1,%rax
  40761a:	48 89 84 24 b8 00 00 	mov    %rax,0xb8(%rsp)
  407621:	00 
  407622:	48 8b 84 24 d8 00 00 	mov    0xd8(%rsp),%rax
  407629:	00 
  40762a:	48 8b 8c 24 c0 00 00 	mov    0xc0(%rsp),%rcx
  407631:	00 
  407632:	ba 01 00 00 00       	mov    $0x1,%edx
  407637:	d3 e2                	shl    %cl,%edx
  407639:	89 d1                	mov    %edx,%ecx
  40763b:	48 63 c9             	movslq %ecx,%rcx
  40763e:	48 29 c8             	sub    %rcx,%rax
  407641:	48 89 84 24 b0 00 00 	mov    %rax,0xb0(%rsp)
  407648:	00 
  407649:	48 8b 84 24 b8 00 00 	mov    0xb8(%rsp),%rax
  407650:	00 
  407651:	48 3b 84 24 e0 00 00 	cmp    0xe0(%rsp),%rax
  407658:	00 
  407659:	0f 83 10 00 00 00    	jae    40766f <malloc+0x60f>
  40765f:	48 8b 84 24 e0 00 00 	mov    0xe0(%rsp),%rax
  407666:	00 
  407667:	48 89 84 24 b8 00 00 	mov    %rax,0xb8(%rsp)
  40766e:	00 
  40766f:	48 8b bc 24 b8 00 00 	mov    0xb8(%rsp),%rdi
  407676:	00 
  407677:	48 8b 84 24 c0 00 00 	mov    0xc0(%rsp),%rax
  40767e:	00 
  40767f:	48 83 c0 01          	add    $0x1,%rax
  407683:	48 8b 94 24 b0 00 00 	mov    0xb0(%rsp),%rdx
  40768a:	00 
  40768b:	48 2b 94 24 b8 00 00 	sub    0xb8(%rsp),%rdx
  407692:	00 
  407693:	48 83 c2 01          	add    $0x1,%rdx
  407697:	0f b6 f0             	movzbl %al,%esi
  40769a:	e8 31 9a ff ff       	callq  4010d0 <memset@plt>
  40769f:	48 8b 84 24 c0 00 00 	mov    0xc0(%rsp),%rax
  4076a6:	00 
  4076a7:	48 83 c0 01          	add    $0x1,%rax
  4076ab:	48 89 84 24 c0 00 00 	mov    %rax,0xc0(%rsp)
  4076b2:	00 
  4076b3:	e9 f3 fe ff ff       	jmpq   4075ab <malloc+0x54b>
  4076b8:	e9 35 00 00 00       	jmpq   4076f2 <malloc+0x692>
  4076bd:	48 8b 84 24 a8 00 00 	mov    0xa8(%rsp),%rax
  4076c4:	00 
  4076c5:	48 c1 e8 03          	shr    $0x3,%rax
  4076c9:	48 05 00 80 ff 7f    	add    $0x7fff8000,%rax
  4076cf:	48 89 84 24 80 00 00 	mov    %rax,0x80(%rsp)
  4076d6:	00 
  4076d7:	48 8b bc 24 80 00 00 	mov    0x80(%rsp),%rdi
  4076de:	00 
  4076df:	48 8b 94 24 a0 00 00 	mov    0xa0(%rsp),%rdx
  4076e6:	00 
  4076e7:	48 c1 ea 03          	shr    $0x3,%rdx
  4076eb:	31 f6                	xor    %esi,%esi
  4076ed:	e8 de 99 ff ff       	callq  4010d0 <memset@plt>
  4076f2:	48 8b 44 24 70       	mov    0x70(%rsp),%rax
  4076f7:	48 83 e0 07          	and    $0x7,%rax
  4076fb:	48 83 f8 00          	cmp    $0x0,%rax
  4076ff:	0f 84 2e 00 00 00    	je     407733 <malloc+0x6d3>
  407705:	48 8b 44 24 70       	mov    0x70(%rsp),%rax
  40770a:	48 83 e0 07          	and    $0x7,%rax
  40770e:	ba 08 00 00 00       	mov    $0x8,%edx
  407713:	48 29 c2             	sub    %rax,%rdx
  407716:	48 c1 e2 05          	shl    $0x5,%rdx
  40771a:	48 8b 44 24 60       	mov    0x60(%rsp),%rax
  40771f:	48 c1 e8 03          	shr    $0x3,%rax
  407723:	0f b6 88 00 80 ff 7f 	movzbl 0x7fff8000(%rax),%ecx
  40772a:	48 01 d1             	add    %rdx,%rcx
  40772d:	88 88 00 80 ff 7f    	mov    %cl,0x7fff8000(%rax)
  407733:	e9 e4 0c 00 00       	jmpq   40841c <malloc+0x13bc>
  407738:	48 8b 44 24 58       	mov    0x58(%rsp),%rax
  40773d:	48 89 44 24 38       	mov    %rax,0x38(%rsp)
  407742:	48 8b 44 24 38       	mov    0x38(%rsp),%rax
  407747:	48 3b 44 24 48       	cmp    0x48(%rsp),%rax
  40774c:	0f 85 15 00 00 00    	jne    407767 <malloc+0x707>
  407752:	48 8b 44 24 68       	mov    0x68(%rsp),%rax
  407757:	48 3b 44 24 50       	cmp    0x50(%rsp),%rax
  40775c:	0f 85 a9 00 00 00    	jne    40780b <malloc+0x7ab>
  407762:	e9 8d 00 00 00       	jmpq   4077f4 <malloc+0x794>
  407767:	48 8b 04 25 00 82 61 	mov    0x618200,%rax
  40776e:	00 
  40776f:	48 8b 4c 24 38       	mov    0x38(%rsp),%rcx
  407774:	80 3c 08 00          	cmpb   $0x0,(%rax,%rcx,1)
  407778:	0f 84 40 00 00 00    	je     4077be <malloc+0x75e>
  40777e:	48 8b 44 24 38       	mov    0x38(%rsp),%rax
  407783:	48 3b 44 24 58       	cmp    0x58(%rsp),%rax
  407788:	0f 85 10 00 00 00    	jne    40779e <malloc+0x73e>
  40778e:	48 8b 44 24 68       	mov    0x68(%rsp),%rax
  407793:	48 3b 44 24 50       	cmp    0x50(%rsp),%rax
  407798:	0f 85 20 00 00 00    	jne    4077be <malloc+0x75e>
  40779e:	48 8b 7c 24 38       	mov    0x38(%rsp),%rdi
  4077a3:	48 c1 e7 08          	shl    $0x8,%rdi
  4077a7:	48 c1 ef 03          	shr    $0x3,%rdi
  4077ab:	48 81 c7 00 80 ff 7f 	add    $0x7fff8000,%rdi
  4077b2:	31 f6                	xor    %esi,%esi
  4077b4:	ba 20 00 00 00       	mov    $0x20,%edx
  4077b9:	e8 12 99 ff ff       	callq  4010d0 <memset@plt>
  4077be:	48 8b 44 24 60       	mov    0x60(%rsp),%rax
  4077c3:	48 8b 4c 24 38       	mov    0x38(%rsp),%rcx
  4077c8:	48 c1 e1 08          	shl    $0x8,%rcx
  4077cc:	48 29 c8             	sub    %rcx,%rax
  4077cf:	89 c2                	mov    %eax,%edx
  4077d1:	48 8b 04 25 f8 81 61 	mov    0x6181f8,%rax
  4077d8:	00 
  4077d9:	48 8b 4c 24 38       	mov    0x38(%rsp),%rcx
  4077de:	89 14 88             	mov    %edx,(%rax,%rcx,4)
  4077e1:	48 8b 44 24 38       	mov    0x38(%rsp),%rax
  4077e6:	48 83 c0 01          	add    $0x1,%rax
  4077ea:	48 89 44 24 38       	mov    %rax,0x38(%rsp)
  4077ef:	e9 4e ff ff ff       	jmpq   407742 <malloc+0x6e2>
  4077f4:	48 8b 04 25 00 82 61 	mov    0x618200,%rax
  4077fb:	00 
  4077fc:	48 8b 4c 24 58       	mov    0x58(%rsp),%rcx
  407801:	80 3c 08 00          	cmpb   $0x0,(%rax,%rcx,1)
  407805:	0f 84 de 05 00 00    	je     407de9 <malloc+0xd89>
  40780b:	48 8b 4c 24 68       	mov    0x68(%rsp),%rcx
  407810:	48 8b 44 24 50       	mov    0x50(%rsp),%rax
  407815:	48 2b 44 24 68       	sub    0x68(%rsp),%rax
  40781a:	48 05 00 01 00 00    	add    $0x100,%rax
  407820:	48 89 8c 24 98 01 00 	mov    %rcx,0x198(%rsp)
  407827:	00 
  407828:	48 89 84 24 90 01 00 	mov    %rax,0x190(%rsp)
  40782f:	00 
  407830:	c6 84 24 8f 01 00 00 	movb   $0x1,0x18f(%rsp)
  407837:	01 
  407838:	48 8b 84 24 98 01 00 	mov    0x198(%rsp),%rax
  40783f:	00 
  407840:	48 c1 e8 08          	shr    $0x8,%rax
  407844:	48 89 84 24 80 01 00 	mov    %rax,0x180(%rsp)
  40784b:	00 
  40784c:	48 8b 04 25 08 82 61 	mov    0x618208,%rax
  407853:	00 
  407854:	48 8b 8c 24 80 01 00 	mov    0x180(%rsp),%rcx
  40785b:	00 
  40785c:	80 3c 08 00          	cmpb   $0x0,(%rax,%rcx,1)
  407860:	0f 85 49 00 00 00    	jne    4078af <malloc+0x84f>
  407866:	48 8b 04 25 08 82 61 	mov    0x618208,%rax
  40786d:	00 
  40786e:	48 8b 8c 24 80 01 00 	mov    0x180(%rsp),%rcx
  407875:	00 
  407876:	c6 04 08 01          	movb   $0x1,(%rax,%rcx,1)
  40787a:	48 8b 84 24 80 01 00 	mov    0x180(%rsp),%rax
  407881:	00 
  407882:	48 c1 e0 08          	shl    $0x8,%rax
  407886:	48 c1 e8 03          	shr    $0x3,%rax
  40788a:	48 05 00 80 ff 7f    	add    $0x7fff8000,%rax
  407890:	48 89 84 24 78 01 00 	mov    %rax,0x178(%rsp)
  407897:	00 
  407898:	48 8b bc 24 78 01 00 	mov    0x178(%rsp),%rdi
  40789f:	00 
  4078a0:	be ff 00 00 00       	mov    $0xff,%esi
  4078a5:	ba 20 00 00 00       	mov    $0x20,%edx
  4078aa:	e8 21 98 ff ff       	callq  4010d0 <memset@plt>
  4078af:	80 bc 24 8f 01 00 00 	cmpb   $0x0,0x18f(%rsp)
  4078b6:	00 
  4078b7:	0f 85 f7 04 00 00    	jne    407db4 <malloc+0xd54>
  4078bd:	48 8b 8c 24 98 01 00 	mov    0x198(%rsp),%rcx
  4078c4:	00 
  4078c5:	48 8b 84 24 90 01 00 	mov    0x190(%rsp),%rax
  4078cc:	00 
  4078cd:	48 89 8c 24 e0 01 00 	mov    %rcx,0x1e0(%rsp)
  4078d4:	00 
  4078d5:	48 89 84 24 d8 01 00 	mov    %rax,0x1d8(%rsp)
  4078dc:	00 
  4078dd:	48 8b 84 24 e0 01 00 	mov    0x1e0(%rsp),%rax
  4078e4:	00 
  4078e5:	48 c1 e8 03          	shr    $0x3,%rax
  4078e9:	48 05 00 80 ff 7f    	add    $0x7fff8000,%rax
  4078ef:	48 89 84 24 d0 01 00 	mov    %rax,0x1d0(%rsp)
  4078f6:	00 
  4078f7:	48 8b 84 24 e0 01 00 	mov    0x1e0(%rsp),%rax
  4078fe:	00 
  4078ff:	48 03 84 24 d8 01 00 	add    0x1d8(%rsp),%rax
  407906:	00 
  407907:	48 83 e8 01          	sub    $0x1,%rax
  40790b:	48 c1 e8 03          	shr    $0x3,%rax
  40790f:	48 05 00 80 ff 7f    	add    $0x7fff8000,%rax
  407915:	48 83 c0 01          	add    $0x1,%rax
  407919:	48 89 84 24 c8 01 00 	mov    %rax,0x1c8(%rsp)
  407920:	00 
  407921:	48 81 bc 24 d8 01 00 	cmpq   $0x80,0x1d8(%rsp)
  407928:	00 80 00 00 00 
  40792d:	0f 87 31 03 00 00    	ja     407c64 <malloc+0xc04>
  407933:	48 8b 84 24 d8 01 00 	mov    0x1d8(%rsp),%rax
  40793a:	00 
  40793b:	48 83 c0 07          	add    $0x7,%rax
  40793f:	48 c1 e8 03          	shr    $0x3,%rax
  407943:	48 89 84 24 c0 01 00 	mov    %rax,0x1c0(%rsp)
  40794a:	00 
  40794b:	48 8b 84 24 c0 01 00 	mov    0x1c0(%rsp),%rax
  407952:	00 
  407953:	48 83 c0 ff          	add    $0xffffffffffffffff,%rax
  407957:	48 89 44 24 10       	mov    %rax,0x10(%rsp)
  40795c:	48 83 e8 0f          	sub    $0xf,%rax
  407960:	0f 87 e9 02 00 00    	ja     407c4f <malloc+0xbef>
  407966:	48 8b 44 24 10       	mov    0x10(%rsp),%rax
  40796b:	48 8b 04 c5 68 4d 41 	mov    0x414d68(,%rax,8),%rax
  407972:	00 
  407973:	ff e0                	jmpq   *%rax
  407975:	48 8b 84 24 c8 01 00 	mov    0x1c8(%rsp),%rax
  40797c:	00 
  40797d:	48 83 e8 01          	sub    $0x1,%rax
  407981:	c6 00 01             	movb   $0x1,(%rax)
  407984:	e9 cb 02 00 00       	jmpq   407c54 <malloc+0xbf4>
  407989:	48 8b 84 24 c8 01 00 	mov    0x1c8(%rsp),%rax
  407990:	00 
  407991:	48 83 e8 02          	sub    $0x2,%rax
  407995:	66 c7 00 02 01       	movw   $0x102,(%rax)
  40799a:	e9 b5 02 00 00       	jmpq   407c54 <malloc+0xbf4>
  40799f:	48 8b 84 24 c8 01 00 	mov    0x1c8(%rsp),%rax
  4079a6:	00 
  4079a7:	48 83 e8 01          	sub    $0x1,%rax
  4079ab:	c6 00 01             	movb   $0x1,(%rax)
  4079ae:	48 8b 84 24 c8 01 00 	mov    0x1c8(%rsp),%rax
  4079b5:	00 
  4079b6:	48 83 e8 03          	sub    $0x3,%rax
  4079ba:	66 c7 00 02 02       	movw   $0x202,(%rax)
  4079bf:	e9 90 02 00 00       	jmpq   407c54 <malloc+0xbf4>
  4079c4:	48 8b 84 24 c8 01 00 	mov    0x1c8(%rsp),%rax
  4079cb:	00 
  4079cc:	48 83 e8 04          	sub    $0x4,%rax
  4079d0:	c7 00 03 02 02 01    	movl   $0x1020203,(%rax)
  4079d6:	e9 79 02 00 00       	jmpq   407c54 <malloc+0xbf4>
  4079db:	48 8b 84 24 c8 01 00 	mov    0x1c8(%rsp),%rax
  4079e2:	00 
  4079e3:	48 83 e8 01          	sub    $0x1,%rax
  4079e7:	c6 00 01             	movb   $0x1,(%rax)
  4079ea:	48 8b 84 24 c8 01 00 	mov    0x1c8(%rsp),%rax
  4079f1:	00 
  4079f2:	48 83 e8 05          	sub    $0x5,%rax
  4079f6:	c7 00 03 03 02 02    	movl   $0x2020303,(%rax)
  4079fc:	e9 53 02 00 00       	jmpq   407c54 <malloc+0xbf4>
  407a01:	48 8b 84 24 c8 01 00 	mov    0x1c8(%rsp),%rax
  407a08:	00 
  407a09:	48 83 e8 02          	sub    $0x2,%rax
  407a0d:	66 c7 00 02 01       	movw   $0x102,(%rax)
  407a12:	48 8b 84 24 c8 01 00 	mov    0x1c8(%rsp),%rax
  407a19:	00 
  407a1a:	48 83 e8 06          	sub    $0x6,%rax
  407a1e:	c7 00 03 03 03 02    	movl   $0x2030303,(%rax)
  407a24:	e9 2b 02 00 00       	jmpq   407c54 <malloc+0xbf4>
  407a29:	48 8b 84 24 c8 01 00 	mov    0x1c8(%rsp),%rax
  407a30:	00 
  407a31:	48 83 e8 01          	sub    $0x1,%rax
  407a35:	c6 00 01             	movb   $0x1,(%rax)
  407a38:	48 8b 84 24 c8 01 00 	mov    0x1c8(%rsp),%rax
  407a3f:	00 
  407a40:	48 83 e8 03          	sub    $0x3,%rax
  407a44:	66 c7 00 02 02       	movw   $0x202,(%rax)
  407a49:	48 8b 84 24 c8 01 00 	mov    0x1c8(%rsp),%rax
  407a50:	00 
  407a51:	48 83 e8 07          	sub    $0x7,%rax
  407a55:	c7 00 03 03 03 03    	movl   $0x3030303,(%rax)
  407a5b:	e9 f4 01 00 00       	jmpq   407c54 <malloc+0xbf4>
  407a60:	48 8b 84 24 c8 01 00 	mov    0x1c8(%rsp),%rax
  407a67:	00 
  407a68:	48 83 e8 08          	sub    $0x8,%rax
  407a6c:	48 b9 04 03 03 03 03 	movabs $0x102020303030304,%rcx
  407a73:	02 02 01 
  407a76:	48 89 08             	mov    %rcx,(%rax)
  407a79:	e9 d6 01 00 00       	jmpq   407c54 <malloc+0xbf4>
  407a7e:	48 8b 84 24 c8 01 00 	mov    0x1c8(%rsp),%rax
  407a85:	00 
  407a86:	48 83 e8 01          	sub    $0x1,%rax
  407a8a:	c6 00 01             	movb   $0x1,(%rax)
  407a8d:	48 8b 84 24 c8 01 00 	mov    0x1c8(%rsp),%rax
  407a94:	00 
  407a95:	48 83 e8 09          	sub    $0x9,%rax
  407a99:	48 b9 04 04 03 03 03 	movabs $0x202030303030404,%rcx
  407aa0:	03 02 02 
  407aa3:	48 89 08             	mov    %rcx,(%rax)
  407aa6:	e9 a9 01 00 00       	jmpq   407c54 <malloc+0xbf4>
  407aab:	48 8b 84 24 c8 01 00 	mov    0x1c8(%rsp),%rax
  407ab2:	00 
  407ab3:	48 83 e8 02          	sub    $0x2,%rax
  407ab7:	66 c7 00 02 01       	movw   $0x102,(%rax)
  407abc:	48 8b 84 24 c8 01 00 	mov    0x1c8(%rsp),%rax
  407ac3:	00 
  407ac4:	48 83 e8 0a          	sub    $0xa,%rax
  407ac8:	48 b9 04 04 04 03 03 	movabs $0x203030303040404,%rcx
  407acf:	03 03 02 
  407ad2:	48 89 08             	mov    %rcx,(%rax)
  407ad5:	e9 7a 01 00 00       	jmpq   407c54 <malloc+0xbf4>
  407ada:	48 8b 84 24 c8 01 00 	mov    0x1c8(%rsp),%rax
  407ae1:	00 
  407ae2:	48 83 e8 01          	sub    $0x1,%rax
  407ae6:	c6 00 01             	movb   $0x1,(%rax)
  407ae9:	48 8b 84 24 c8 01 00 	mov    0x1c8(%rsp),%rax
  407af0:	00 
  407af1:	48 83 e8 03          	sub    $0x3,%rax
  407af5:	66 c7 00 02 02       	movw   $0x202,(%rax)
  407afa:	48 8b 84 24 c8 01 00 	mov    0x1c8(%rsp),%rax
  407b01:	00 
  407b02:	48 83 e8 0b          	sub    $0xb,%rax
  407b06:	48 b9 04 04 04 04 03 	movabs $0x303030304040404,%rcx
  407b0d:	03 03 03 
  407b10:	48 89 08             	mov    %rcx,(%rax)
  407b13:	e9 3c 01 00 00       	jmpq   407c54 <malloc+0xbf4>
  407b18:	48 8b 84 24 c8 01 00 	mov    0x1c8(%rsp),%rax
  407b1f:	00 
  407b20:	48 83 e8 04          	sub    $0x4,%rax
  407b24:	c7 00 03 02 02 01    	movl   $0x1020203,(%rax)
  407b2a:	48 8b 84 24 c8 01 00 	mov    0x1c8(%rsp),%rax
  407b31:	00 
  407b32:	48 83 e8 0c          	sub    $0xc,%rax
  407b36:	48 b9 04 04 04 04 04 	movabs $0x303030404040404,%rcx
  407b3d:	03 03 03 
  407b40:	48 89 08             	mov    %rcx,(%rax)
  407b43:	e9 0c 01 00 00       	jmpq   407c54 <malloc+0xbf4>
  407b48:	48 8b 84 24 c8 01 00 	mov    0x1c8(%rsp),%rax
  407b4f:	00 
  407b50:	48 83 e8 01          	sub    $0x1,%rax
  407b54:	c6 00 01             	movb   $0x1,(%rax)
  407b57:	48 8b 84 24 c8 01 00 	mov    0x1c8(%rsp),%rax
  407b5e:	00 
  407b5f:	48 83 e8 05          	sub    $0x5,%rax
  407b63:	c7 00 03 03 02 02    	movl   $0x2020303,(%rax)
  407b69:	48 8b 84 24 c8 01 00 	mov    0x1c8(%rsp),%rax
  407b70:	00 
  407b71:	48 83 e8 0d          	sub    $0xd,%rax
  407b75:	48 b9 04 04 04 04 04 	movabs $0x303040404040404,%rcx
  407b7c:	04 03 03 
  407b7f:	48 89 08             	mov    %rcx,(%rax)
  407b82:	e9 cd 00 00 00       	jmpq   407c54 <malloc+0xbf4>
  407b87:	48 8b 84 24 c8 01 00 	mov    0x1c8(%rsp),%rax
  407b8e:	00 
  407b8f:	48 83 e8 02          	sub    $0x2,%rax
  407b93:	66 c7 00 02 01       	movw   $0x102,(%rax)
  407b98:	48 8b 84 24 c8 01 00 	mov    0x1c8(%rsp),%rax
  407b9f:	00 
  407ba0:	48 83 e8 06          	sub    $0x6,%rax
  407ba4:	c7 00 03 03 03 02    	movl   $0x2030303,(%rax)
  407baa:	48 8b 84 24 c8 01 00 	mov    0x1c8(%rsp),%rax
  407bb1:	00 
  407bb2:	48 83 e8 0e          	sub    $0xe,%rax
  407bb6:	48 b9 04 04 04 04 04 	movabs $0x304040404040404,%rcx
  407bbd:	04 04 03 
  407bc0:	48 89 08             	mov    %rcx,(%rax)
  407bc3:	e9 8c 00 00 00       	jmpq   407c54 <malloc+0xbf4>
  407bc8:	48 8b 84 24 c8 01 00 	mov    0x1c8(%rsp),%rax
  407bcf:	00 
  407bd0:	48 83 e8 01          	sub    $0x1,%rax
  407bd4:	c6 00 01             	movb   $0x1,(%rax)
  407bd7:	48 8b 84 24 c8 01 00 	mov    0x1c8(%rsp),%rax
  407bde:	00 
  407bdf:	48 83 e8 03          	sub    $0x3,%rax
  407be3:	66 c7 00 02 02       	movw   $0x202,(%rax)
  407be8:	48 8b 84 24 c8 01 00 	mov    0x1c8(%rsp),%rax
  407bef:	00 
  407bf0:	48 83 e8 07          	sub    $0x7,%rax
  407bf4:	c7 00 03 03 03 03    	movl   $0x3030303,(%rax)
  407bfa:	48 8b 84 24 c8 01 00 	mov    0x1c8(%rsp),%rax
  407c01:	00 
  407c02:	48 83 e8 0f          	sub    $0xf,%rax
  407c06:	48 b9 04 04 04 04 04 	movabs $0x404040404040404,%rcx
  407c0d:	04 04 04 
  407c10:	48 89 08             	mov    %rcx,(%rax)
  407c13:	e9 3c 00 00 00       	jmpq   407c54 <malloc+0xbf4>
  407c18:	48 8b 84 24 c8 01 00 	mov    0x1c8(%rsp),%rax
  407c1f:	00 
  407c20:	48 83 e8 08          	sub    $0x8,%rax
  407c24:	48 b9 04 03 03 03 03 	movabs $0x102020303030304,%rcx
  407c2b:	02 02 01 
  407c2e:	48 89 08             	mov    %rcx,(%rax)
  407c31:	48 8b 84 24 c8 01 00 	mov    0x1c8(%rsp),%rax
  407c38:	00 
  407c39:	48 83 e8 10          	sub    $0x10,%rax
  407c3d:	48 b9 05 04 04 04 04 	movabs $0x404040404040405,%rcx
  407c44:	04 04 04 
  407c47:	48 89 08             	mov    %rcx,(%rax)
  407c4a:	e9 05 00 00 00       	jmpq   407c54 <malloc+0xbf4>
  407c4f:	e9 00 00 00 00       	jmpq   407c54 <malloc+0xbf4>
  407c54:	c7 84 24 bc 01 00 00 	movl   $0x1,0x1bc(%rsp)
  407c5b:	01 00 00 00 
  407c5f:	e9 4b 01 00 00       	jmpq   407daf <malloc+0xd4f>
  407c64:	48 8b 84 24 c8 01 00 	mov    0x1c8(%rsp),%rax
  407c6b:	00 
  407c6c:	48 83 e8 08          	sub    $0x8,%rax
  407c70:	48 b9 04 03 03 03 03 	movabs $0x102020303030304,%rcx
  407c77:	02 02 01 
  407c7a:	48 89 08             	mov    %rcx,(%rax)
  407c7d:	48 8b 84 24 c8 01 00 	mov    0x1c8(%rsp),%rax
  407c84:	00 
  407c85:	48 83 e8 10          	sub    $0x10,%rax
  407c89:	48 b9 05 04 04 04 04 	movabs $0x404040404040405,%rcx
  407c90:	04 04 04 
  407c93:	48 89 08             	mov    %rcx,(%rax)
  407c96:	48 c7 84 24 b0 01 00 	movq   $0x4,0x1b0(%rsp)
  407c9d:	00 04 00 00 00 
  407ca2:	48 8b 84 24 c8 01 00 	mov    0x1c8(%rsp),%rax
  407ca9:	00 
  407caa:	48 8b 8c 24 b0 01 00 	mov    0x1b0(%rsp),%rcx
  407cb1:	00 
  407cb2:	ba 01 00 00 00       	mov    $0x1,%edx
  407cb7:	d3 e2                	shl    %cl,%edx
  407cb9:	89 d1                	mov    %edx,%ecx
  407cbb:	48 63 c9             	movslq %ecx,%rcx
  407cbe:	48 29 c8             	sub    %rcx,%rax
  407cc1:	48 3b 84 24 d0 01 00 	cmp    0x1d0(%rsp),%rax
  407cc8:	00 
  407cc9:	0f 83 1b 00 00 00    	jae    407cea <malloc+0xc8a>
  407ccf:	c7 84 24 bc 01 00 00 	movl   $0x3,0x1bc(%rsp)
  407cd6:	03 00 00 00 
  407cda:	c7 84 24 bc 01 00 00 	movl   $0x0,0x1bc(%rsp)
  407ce1:	00 00 00 00 
  407ce5:	e9 c5 00 00 00       	jmpq   407daf <malloc+0xd4f>
  407cea:	48 8b 84 24 c8 01 00 	mov    0x1c8(%rsp),%rax
  407cf1:	00 
  407cf2:	48 8b 8c 24 b0 01 00 	mov    0x1b0(%rsp),%rcx
  407cf9:	00 
  407cfa:	48 83 c1 01          	add    $0x1,%rcx
  407cfe:	ba 01 00 00 00       	mov    $0x1,%edx
  407d03:	d3 e2                	shl    %cl,%edx
  407d05:	89 d1                	mov    %edx,%ecx
  407d07:	48 63 c9             	movslq %ecx,%rcx
  407d0a:	48 29 c8             	sub    %rcx,%rax
  407d0d:	48 83 c0 01          	add    $0x1,%rax
  407d11:	48 89 84 24 a8 01 00 	mov    %rax,0x1a8(%rsp)
  407d18:	00 
  407d19:	48 8b 84 24 c8 01 00 	mov    0x1c8(%rsp),%rax
  407d20:	00 
  407d21:	48 8b 8c 24 b0 01 00 	mov    0x1b0(%rsp),%rcx
  407d28:	00 
  407d29:	ba 01 00 00 00       	mov    $0x1,%edx
  407d2e:	d3 e2                	shl    %cl,%edx
  407d30:	89 d1                	mov    %edx,%ecx
  407d32:	48 63 c9             	movslq %ecx,%rcx
  407d35:	48 29 c8             	sub    %rcx,%rax
  407d38:	48 89 84 24 a0 01 00 	mov    %rax,0x1a0(%rsp)
  407d3f:	00 
  407d40:	48 8b 84 24 a8 01 00 	mov    0x1a8(%rsp),%rax
  407d47:	00 
  407d48:	48 3b 84 24 d0 01 00 	cmp    0x1d0(%rsp),%rax
  407d4f:	00 
  407d50:	0f 83 10 00 00 00    	jae    407d66 <malloc+0xd06>
  407d56:	48 8b 84 24 d0 01 00 	mov    0x1d0(%rsp),%rax
  407d5d:	00 
  407d5e:	48 89 84 24 a8 01 00 	mov    %rax,0x1a8(%rsp)
  407d65:	00 
  407d66:	48 8b bc 24 a8 01 00 	mov    0x1a8(%rsp),%rdi
  407d6d:	00 
  407d6e:	48 8b 84 24 b0 01 00 	mov    0x1b0(%rsp),%rax
  407d75:	00 
  407d76:	48 83 c0 01          	add    $0x1,%rax
  407d7a:	48 8b 94 24 a0 01 00 	mov    0x1a0(%rsp),%rdx
  407d81:	00 
  407d82:	48 2b 94 24 a8 01 00 	sub    0x1a8(%rsp),%rdx
  407d89:	00 
  407d8a:	48 83 c2 01          	add    $0x1,%rdx
  407d8e:	0f b6 f0             	movzbl %al,%esi
  407d91:	e8 3a 93 ff ff       	callq  4010d0 <memset@plt>
  407d96:	48 8b 84 24 b0 01 00 	mov    0x1b0(%rsp),%rax
  407d9d:	00 
  407d9e:	48 83 c0 01          	add    $0x1,%rax
  407da2:	48 89 84 24 b0 01 00 	mov    %rax,0x1b0(%rsp)
  407da9:	00 
  407daa:	e9 f3 fe ff ff       	jmpq   407ca2 <malloc+0xc42>
  407daf:	e9 35 00 00 00       	jmpq   407de9 <malloc+0xd89>
  407db4:	48 8b 84 24 98 01 00 	mov    0x198(%rsp),%rax
  407dbb:	00 
  407dbc:	48 c1 e8 03          	shr    $0x3,%rax
  407dc0:	48 05 00 80 ff 7f    	add    $0x7fff8000,%rax
  407dc6:	48 89 84 24 70 01 00 	mov    %rax,0x170(%rsp)
  407dcd:	00 
  407dce:	48 8b bc 24 70 01 00 	mov    0x170(%rsp),%rdi
  407dd5:	00 
  407dd6:	48 8b 94 24 90 01 00 	mov    0x190(%rsp),%rdx
  407ddd:	00 
  407dde:	48 c1 ea 03          	shr    $0x3,%rdx
  407de2:	31 f6                	xor    %esi,%esi
  407de4:	e8 e7 92 ff ff       	callq  4010d0 <memset@plt>
  407de9:	48 8b 44 24 60       	mov    0x60(%rsp),%rax
  407dee:	48 3b 44 24 40       	cmp    0x40(%rsp),%rax
  407df3:	0f 84 1e 06 00 00    	je     408417 <malloc+0x13b7>
  407df9:	48 8b 4c 24 40       	mov    0x40(%rsp),%rcx
  407dfe:	48 8b 44 24 60       	mov    0x60(%rsp),%rax
  407e03:	48 2b 44 24 40       	sub    0x40(%rsp),%rax
  407e08:	48 89 8c 24 20 01 00 	mov    %rcx,0x120(%rsp)
  407e0f:	00 
  407e10:	48 89 84 24 18 01 00 	mov    %rax,0x118(%rsp)
  407e17:	00 
  407e18:	c6 84 24 17 01 00 00 	movb   $0x0,0x117(%rsp)
  407e1f:	00 
  407e20:	48 8b 84 24 20 01 00 	mov    0x120(%rsp),%rax
  407e27:	00 
  407e28:	48 c1 e8 08          	shr    $0x8,%rax
  407e2c:	48 89 84 24 08 01 00 	mov    %rax,0x108(%rsp)
  407e33:	00 
  407e34:	48 8b 04 25 08 82 61 	mov    0x618208,%rax
  407e3b:	00 
  407e3c:	48 8b 8c 24 08 01 00 	mov    0x108(%rsp),%rcx
  407e43:	00 
  407e44:	80 3c 08 00          	cmpb   $0x0,(%rax,%rcx,1)
  407e48:	0f 85 49 00 00 00    	jne    407e97 <malloc+0xe37>
  407e4e:	48 8b 04 25 08 82 61 	mov    0x618208,%rax
  407e55:	00 
  407e56:	48 8b 8c 24 08 01 00 	mov    0x108(%rsp),%rcx
  407e5d:	00 
  407e5e:	c6 04 08 01          	movb   $0x1,(%rax,%rcx,1)
  407e62:	48 8b 84 24 08 01 00 	mov    0x108(%rsp),%rax
  407e69:	00 
  407e6a:	48 c1 e0 08          	shl    $0x8,%rax
  407e6e:	48 c1 e8 03          	shr    $0x3,%rax
  407e72:	48 05 00 80 ff 7f    	add    $0x7fff8000,%rax
  407e78:	48 89 84 24 00 01 00 	mov    %rax,0x100(%rsp)
  407e7f:	00 
  407e80:	48 8b bc 24 00 01 00 	mov    0x100(%rsp),%rdi
  407e87:	00 
  407e88:	be ff 00 00 00       	mov    $0xff,%esi
  407e8d:	ba 20 00 00 00       	mov    $0x20,%edx
  407e92:	e8 39 92 ff ff       	callq  4010d0 <memset@plt>
  407e97:	80 bc 24 17 01 00 00 	cmpb   $0x0,0x117(%rsp)
  407e9e:	00 
  407e9f:	0f 85 f7 04 00 00    	jne    40839c <malloc+0x133c>
  407ea5:	48 8b 8c 24 20 01 00 	mov    0x120(%rsp),%rcx
  407eac:	00 
  407ead:	48 8b 84 24 18 01 00 	mov    0x118(%rsp),%rax
  407eb4:	00 
  407eb5:	48 89 8c 24 68 01 00 	mov    %rcx,0x168(%rsp)
  407ebc:	00 
  407ebd:	48 89 84 24 60 01 00 	mov    %rax,0x160(%rsp)
  407ec4:	00 
  407ec5:	48 8b 84 24 68 01 00 	mov    0x168(%rsp),%rax
  407ecc:	00 
  407ecd:	48 c1 e8 03          	shr    $0x3,%rax
  407ed1:	48 05 00 80 ff 7f    	add    $0x7fff8000,%rax
  407ed7:	48 89 84 24 58 01 00 	mov    %rax,0x158(%rsp)
  407ede:	00 
  407edf:	48 8b 84 24 68 01 00 	mov    0x168(%rsp),%rax
  407ee6:	00 
  407ee7:	48 03 84 24 60 01 00 	add    0x160(%rsp),%rax
  407eee:	00 
  407eef:	48 83 e8 01          	sub    $0x1,%rax
  407ef3:	48 c1 e8 03          	shr    $0x3,%rax
  407ef7:	48 05 00 80 ff 7f    	add    $0x7fff8000,%rax
  407efd:	48 83 c0 01          	add    $0x1,%rax
  407f01:	48 89 84 24 50 01 00 	mov    %rax,0x150(%rsp)
  407f08:	00 
  407f09:	48 81 bc 24 60 01 00 	cmpq   $0x80,0x160(%rsp)
  407f10:	00 80 00 00 00 
  407f15:	0f 87 31 03 00 00    	ja     40824c <malloc+0x11ec>
  407f1b:	48 8b 84 24 60 01 00 	mov    0x160(%rsp),%rax
  407f22:	00 
  407f23:	48 83 c0 07          	add    $0x7,%rax
  407f27:	48 c1 e8 03          	shr    $0x3,%rax
  407f2b:	48 89 84 24 48 01 00 	mov    %rax,0x148(%rsp)
  407f32:	00 
  407f33:	48 8b 84 24 48 01 00 	mov    0x148(%rsp),%rax
  407f3a:	00 
  407f3b:	48 83 c0 ff          	add    $0xffffffffffffffff,%rax
  407f3f:	48 89 44 24 08       	mov    %rax,0x8(%rsp)
  407f44:	48 83 e8 0f          	sub    $0xf,%rax
  407f48:	0f 87 e9 02 00 00    	ja     408237 <malloc+0x11d7>
  407f4e:	48 8b 44 24 08       	mov    0x8(%rsp),%rax
  407f53:	48 8b 04 c5 e8 4d 41 	mov    0x414de8(,%rax,8),%rax
  407f5a:	00 
  407f5b:	ff e0                	jmpq   *%rax
  407f5d:	48 8b 84 24 50 01 00 	mov    0x150(%rsp),%rax
  407f64:	00 
  407f65:	48 83 e8 01          	sub    $0x1,%rax
  407f69:	c6 00 01             	movb   $0x1,(%rax)
  407f6c:	e9 cb 02 00 00       	jmpq   40823c <malloc+0x11dc>
  407f71:	48 8b 84 24 50 01 00 	mov    0x150(%rsp),%rax
  407f78:	00 
  407f79:	48 83 e8 02          	sub    $0x2,%rax
  407f7d:	66 c7 00 02 01       	movw   $0x102,(%rax)
  407f82:	e9 b5 02 00 00       	jmpq   40823c <malloc+0x11dc>
  407f87:	48 8b 84 24 50 01 00 	mov    0x150(%rsp),%rax
  407f8e:	00 
  407f8f:	48 83 e8 01          	sub    $0x1,%rax
  407f93:	c6 00 01             	movb   $0x1,(%rax)
  407f96:	48 8b 84 24 50 01 00 	mov    0x150(%rsp),%rax
  407f9d:	00 
  407f9e:	48 83 e8 03          	sub    $0x3,%rax
  407fa2:	66 c7 00 02 02       	movw   $0x202,(%rax)
  407fa7:	e9 90 02 00 00       	jmpq   40823c <malloc+0x11dc>
  407fac:	48 8b 84 24 50 01 00 	mov    0x150(%rsp),%rax
  407fb3:	00 
  407fb4:	48 83 e8 04          	sub    $0x4,%rax
  407fb8:	c7 00 03 02 02 01    	movl   $0x1020203,(%rax)
  407fbe:	e9 79 02 00 00       	jmpq   40823c <malloc+0x11dc>
  407fc3:	48 8b 84 24 50 01 00 	mov    0x150(%rsp),%rax
  407fca:	00 
  407fcb:	48 83 e8 01          	sub    $0x1,%rax
  407fcf:	c6 00 01             	movb   $0x1,(%rax)
  407fd2:	48 8b 84 24 50 01 00 	mov    0x150(%rsp),%rax
  407fd9:	00 
  407fda:	48 83 e8 05          	sub    $0x5,%rax
  407fde:	c7 00 03 03 02 02    	movl   $0x2020303,(%rax)
  407fe4:	e9 53 02 00 00       	jmpq   40823c <malloc+0x11dc>
  407fe9:	48 8b 84 24 50 01 00 	mov    0x150(%rsp),%rax
  407ff0:	00 
  407ff1:	48 83 e8 02          	sub    $0x2,%rax
  407ff5:	66 c7 00 02 01       	movw   $0x102,(%rax)
  407ffa:	48 8b 84 24 50 01 00 	mov    0x150(%rsp),%rax
  408001:	00 
  408002:	48 83 e8 06          	sub    $0x6,%rax
  408006:	c7 00 03 03 03 02    	movl   $0x2030303,(%rax)
  40800c:	e9 2b 02 00 00       	jmpq   40823c <malloc+0x11dc>
  408011:	48 8b 84 24 50 01 00 	mov    0x150(%rsp),%rax
  408018:	00 
  408019:	48 83 e8 01          	sub    $0x1,%rax
  40801d:	c6 00 01             	movb   $0x1,(%rax)
  408020:	48 8b 84 24 50 01 00 	mov    0x150(%rsp),%rax
  408027:	00 
  408028:	48 83 e8 03          	sub    $0x3,%rax
  40802c:	66 c7 00 02 02       	movw   $0x202,(%rax)
  408031:	48 8b 84 24 50 01 00 	mov    0x150(%rsp),%rax
  408038:	00 
  408039:	48 83 e8 07          	sub    $0x7,%rax
  40803d:	c7 00 03 03 03 03    	movl   $0x3030303,(%rax)
  408043:	e9 f4 01 00 00       	jmpq   40823c <malloc+0x11dc>
  408048:	48 8b 84 24 50 01 00 	mov    0x150(%rsp),%rax
  40804f:	00 
  408050:	48 83 e8 08          	sub    $0x8,%rax
  408054:	48 b9 04 03 03 03 03 	movabs $0x102020303030304,%rcx
  40805b:	02 02 01 
  40805e:	48 89 08             	mov    %rcx,(%rax)
  408061:	e9 d6 01 00 00       	jmpq   40823c <malloc+0x11dc>
  408066:	48 8b 84 24 50 01 00 	mov    0x150(%rsp),%rax
  40806d:	00 
  40806e:	48 83 e8 01          	sub    $0x1,%rax
  408072:	c6 00 01             	movb   $0x1,(%rax)
  408075:	48 8b 84 24 50 01 00 	mov    0x150(%rsp),%rax
  40807c:	00 
  40807d:	48 83 e8 09          	sub    $0x9,%rax
  408081:	48 b9 04 04 03 03 03 	movabs $0x202030303030404,%rcx
  408088:	03 02 02 
  40808b:	48 89 08             	mov    %rcx,(%rax)
  40808e:	e9 a9 01 00 00       	jmpq   40823c <malloc+0x11dc>
  408093:	48 8b 84 24 50 01 00 	mov    0x150(%rsp),%rax
  40809a:	00 
  40809b:	48 83 e8 02          	sub    $0x2,%rax
  40809f:	66 c7 00 02 01       	movw   $0x102,(%rax)
  4080a4:	48 8b 84 24 50 01 00 	mov    0x150(%rsp),%rax
  4080ab:	00 
  4080ac:	48 83 e8 0a          	sub    $0xa,%rax
  4080b0:	48 b9 04 04 04 03 03 	movabs $0x203030303040404,%rcx
  4080b7:	03 03 02 
  4080ba:	48 89 08             	mov    %rcx,(%rax)
  4080bd:	e9 7a 01 00 00       	jmpq   40823c <malloc+0x11dc>
  4080c2:	48 8b 84 24 50 01 00 	mov    0x150(%rsp),%rax
  4080c9:	00 
  4080ca:	48 83 e8 01          	sub    $0x1,%rax
  4080ce:	c6 00 01             	movb   $0x1,(%rax)
  4080d1:	48 8b 84 24 50 01 00 	mov    0x150(%rsp),%rax
  4080d8:	00 
  4080d9:	48 83 e8 03          	sub    $0x3,%rax
  4080dd:	66 c7 00 02 02       	movw   $0x202,(%rax)
  4080e2:	48 8b 84 24 50 01 00 	mov    0x150(%rsp),%rax
  4080e9:	00 
  4080ea:	48 83 e8 0b          	sub    $0xb,%rax
  4080ee:	48 b9 04 04 04 04 03 	movabs $0x303030304040404,%rcx
  4080f5:	03 03 03 
  4080f8:	48 89 08             	mov    %rcx,(%rax)
  4080fb:	e9 3c 01 00 00       	jmpq   40823c <malloc+0x11dc>
  408100:	48 8b 84 24 50 01 00 	mov    0x150(%rsp),%rax
  408107:	00 
  408108:	48 83 e8 04          	sub    $0x4,%rax
  40810c:	c7 00 03 02 02 01    	movl   $0x1020203,(%rax)
  408112:	48 8b 84 24 50 01 00 	mov    0x150(%rsp),%rax
  408119:	00 
  40811a:	48 83 e8 0c          	sub    $0xc,%rax
  40811e:	48 b9 04 04 04 04 04 	movabs $0x303030404040404,%rcx
  408125:	03 03 03 
  408128:	48 89 08             	mov    %rcx,(%rax)
  40812b:	e9 0c 01 00 00       	jmpq   40823c <malloc+0x11dc>
  408130:	48 8b 84 24 50 01 00 	mov    0x150(%rsp),%rax
  408137:	00 
  408138:	48 83 e8 01          	sub    $0x1,%rax
  40813c:	c6 00 01             	movb   $0x1,(%rax)
  40813f:	48 8b 84 24 50 01 00 	mov    0x150(%rsp),%rax
  408146:	00 
  408147:	48 83 e8 05          	sub    $0x5,%rax
  40814b:	c7 00 03 03 02 02    	movl   $0x2020303,(%rax)
  408151:	48 8b 84 24 50 01 00 	mov    0x150(%rsp),%rax
  408158:	00 
  408159:	48 83 e8 0d          	sub    $0xd,%rax
  40815d:	48 b9 04 04 04 04 04 	movabs $0x303040404040404,%rcx
  408164:	04 03 03 
  408167:	48 89 08             	mov    %rcx,(%rax)
  40816a:	e9 cd 00 00 00       	jmpq   40823c <malloc+0x11dc>
  40816f:	48 8b 84 24 50 01 00 	mov    0x150(%rsp),%rax
  408176:	00 
  408177:	48 83 e8 02          	sub    $0x2,%rax
  40817b:	66 c7 00 02 01       	movw   $0x102,(%rax)
  408180:	48 8b 84 24 50 01 00 	mov    0x150(%rsp),%rax
  408187:	00 
  408188:	48 83 e8 06          	sub    $0x6,%rax
  40818c:	c7 00 03 03 03 02    	movl   $0x2030303,(%rax)
  408192:	48 8b 84 24 50 01 00 	mov    0x150(%rsp),%rax
  408199:	00 
  40819a:	48 83 e8 0e          	sub    $0xe,%rax
  40819e:	48 b9 04 04 04 04 04 	movabs $0x304040404040404,%rcx
  4081a5:	04 04 03 
  4081a8:	48 89 08             	mov    %rcx,(%rax)
  4081ab:	e9 8c 00 00 00       	jmpq   40823c <malloc+0x11dc>
  4081b0:	48 8b 84 24 50 01 00 	mov    0x150(%rsp),%rax
  4081b7:	00 
  4081b8:	48 83 e8 01          	sub    $0x1,%rax
  4081bc:	c6 00 01             	movb   $0x1,(%rax)
  4081bf:	48 8b 84 24 50 01 00 	mov    0x150(%rsp),%rax
  4081c6:	00 
  4081c7:	48 83 e8 03          	sub    $0x3,%rax
  4081cb:	66 c7 00 02 02       	movw   $0x202,(%rax)
  4081d0:	48 8b 84 24 50 01 00 	mov    0x150(%rsp),%rax
  4081d7:	00 
  4081d8:	48 83 e8 07          	sub    $0x7,%rax
  4081dc:	c7 00 03 03 03 03    	movl   $0x3030303,(%rax)
  4081e2:	48 8b 84 24 50 01 00 	mov    0x150(%rsp),%rax
  4081e9:	00 
  4081ea:	48 83 e8 0f          	sub    $0xf,%rax
  4081ee:	48 b9 04 04 04 04 04 	movabs $0x404040404040404,%rcx
  4081f5:	04 04 04 
  4081f8:	48 89 08             	mov    %rcx,(%rax)
  4081fb:	e9 3c 00 00 00       	jmpq   40823c <malloc+0x11dc>
  408200:	48 8b 84 24 50 01 00 	mov    0x150(%rsp),%rax
  408207:	00 
  408208:	48 83 e8 08          	sub    $0x8,%rax
  40820c:	48 b9 04 03 03 03 03 	movabs $0x102020303030304,%rcx
  408213:	02 02 01 
  408216:	48 89 08             	mov    %rcx,(%rax)
  408219:	48 8b 84 24 50 01 00 	mov    0x150(%rsp),%rax
  408220:	00 
  408221:	48 83 e8 10          	sub    $0x10,%rax
  408225:	48 b9 05 04 04 04 04 	movabs $0x404040404040405,%rcx
  40822c:	04 04 04 
  40822f:	48 89 08             	mov    %rcx,(%rax)
  408232:	e9 05 00 00 00       	jmpq   40823c <malloc+0x11dc>
  408237:	e9 00 00 00 00       	jmpq   40823c <malloc+0x11dc>
  40823c:	c7 84 24 44 01 00 00 	movl   $0x1,0x144(%rsp)
  408243:	01 00 00 00 
  408247:	e9 4b 01 00 00       	jmpq   408397 <malloc+0x1337>
  40824c:	48 8b 84 24 50 01 00 	mov    0x150(%rsp),%rax
  408253:	00 
  408254:	48 83 e8 08          	sub    $0x8,%rax
  408258:	48 b9 04 03 03 03 03 	movabs $0x102020303030304,%rcx
  40825f:	02 02 01 
  408262:	48 89 08             	mov    %rcx,(%rax)
  408265:	48 8b 84 24 50 01 00 	mov    0x150(%rsp),%rax
  40826c:	00 
  40826d:	48 83 e8 10          	sub    $0x10,%rax
  408271:	48 b9 05 04 04 04 04 	movabs $0x404040404040405,%rcx
  408278:	04 04 04 
  40827b:	48 89 08             	mov    %rcx,(%rax)
  40827e:	48 c7 84 24 38 01 00 	movq   $0x4,0x138(%rsp)
  408285:	00 04 00 00 00 
  40828a:	48 8b 84 24 50 01 00 	mov    0x150(%rsp),%rax
  408291:	00 
  408292:	48 8b 8c 24 38 01 00 	mov    0x138(%rsp),%rcx
  408299:	00 
  40829a:	ba 01 00 00 00       	mov    $0x1,%edx
  40829f:	d3 e2                	shl    %cl,%edx
  4082a1:	89 d1                	mov    %edx,%ecx
  4082a3:	48 63 c9             	movslq %ecx,%rcx
  4082a6:	48 29 c8             	sub    %rcx,%rax
  4082a9:	48 3b 84 24 58 01 00 	cmp    0x158(%rsp),%rax
  4082b0:	00 
  4082b1:	0f 83 1b 00 00 00    	jae    4082d2 <malloc+0x1272>
  4082b7:	c7 84 24 44 01 00 00 	movl   $0x3,0x144(%rsp)
  4082be:	03 00 00 00 
  4082c2:	c7 84 24 44 01 00 00 	movl   $0x0,0x144(%rsp)
  4082c9:	00 00 00 00 
  4082cd:	e9 c5 00 00 00       	jmpq   408397 <malloc+0x1337>
  4082d2:	48 8b 84 24 50 01 00 	mov    0x150(%rsp),%rax
  4082d9:	00 
  4082da:	48 8b 8c 24 38 01 00 	mov    0x138(%rsp),%rcx
  4082e1:	00 
  4082e2:	48 83 c1 01          	add    $0x1,%rcx
  4082e6:	ba 01 00 00 00       	mov    $0x1,%edx
  4082eb:	d3 e2                	shl    %cl,%edx
  4082ed:	89 d1                	mov    %edx,%ecx
  4082ef:	48 63 c9             	movslq %ecx,%rcx
  4082f2:	48 29 c8             	sub    %rcx,%rax
  4082f5:	48 83 c0 01          	add    $0x1,%rax
  4082f9:	48 89 84 24 30 01 00 	mov    %rax,0x130(%rsp)
  408300:	00 
  408301:	48 8b 84 24 50 01 00 	mov    0x150(%rsp),%rax
  408308:	00 
  408309:	48 8b 8c 24 38 01 00 	mov    0x138(%rsp),%rcx
  408310:	00 
  408311:	ba 01 00 00 00       	mov    $0x1,%edx
  408316:	d3 e2                	shl    %cl,%edx
  408318:	89 d1                	mov    %edx,%ecx
  40831a:	48 63 c9             	movslq %ecx,%rcx
  40831d:	48 29 c8             	sub    %rcx,%rax
  408320:	48 89 84 24 28 01 00 	mov    %rax,0x128(%rsp)
  408327:	00 
  408328:	48 8b 84 24 30 01 00 	mov    0x130(%rsp),%rax
  40832f:	00 
  408330:	48 3b 84 24 58 01 00 	cmp    0x158(%rsp),%rax
  408337:	00 
  408338:	0f 83 10 00 00 00    	jae    40834e <malloc+0x12ee>
  40833e:	48 8b 84 24 58 01 00 	mov    0x158(%rsp),%rax
  408345:	00 
  408346:	48 89 84 24 30 01 00 	mov    %rax,0x130(%rsp)
  40834d:	00 
  40834e:	48 8b bc 24 30 01 00 	mov    0x130(%rsp),%rdi
  408355:	00 
  408356:	48 8b 84 24 38 01 00 	mov    0x138(%rsp),%rax
  40835d:	00 
  40835e:	48 83 c0 01          	add    $0x1,%rax
  408362:	48 8b 94 24 28 01 00 	mov    0x128(%rsp),%rdx
  408369:	00 
  40836a:	48 2b 94 24 30 01 00 	sub    0x130(%rsp),%rdx
  408371:	00 
  408372:	48 83 c2 01          	add    $0x1,%rdx
  408376:	0f b6 f0             	movzbl %al,%esi
  408379:	e8 52 8d ff ff       	callq  4010d0 <memset@plt>
  40837e:	48 8b 84 24 38 01 00 	mov    0x138(%rsp),%rax
  408385:	00 
  408386:	48 83 c0 01          	add    $0x1,%rax
  40838a:	48 89 84 24 38 01 00 	mov    %rax,0x138(%rsp)
  408391:	00 
  408392:	e9 f3 fe ff ff       	jmpq   40828a <malloc+0x122a>
  408397:	e9 35 00 00 00       	jmpq   4083d1 <malloc+0x1371>
  40839c:	48 8b 84 24 20 01 00 	mov    0x120(%rsp),%rax
  4083a3:	00 
  4083a4:	48 c1 e8 03          	shr    $0x3,%rax
  4083a8:	48 05 00 80 ff 7f    	add    $0x7fff8000,%rax
  4083ae:	48 89 84 24 f8 00 00 	mov    %rax,0xf8(%rsp)
  4083b5:	00 
  4083b6:	48 8b bc 24 f8 00 00 	mov    0xf8(%rsp),%rdi
  4083bd:	00 
  4083be:	48 8b 94 24 18 01 00 	mov    0x118(%rsp),%rdx
  4083c5:	00 
  4083c6:	48 c1 ea 03          	shr    $0x3,%rdx
  4083ca:	31 f6                	xor    %esi,%esi
  4083cc:	e8 ff 8c ff ff       	callq  4010d0 <memset@plt>
  4083d1:	48 8b 44 24 70       	mov    0x70(%rsp),%rax
  4083d6:	48 83 e0 07          	and    $0x7,%rax
  4083da:	48 83 f8 00          	cmp    $0x0,%rax
  4083de:	0f 84 2e 00 00 00    	je     408412 <malloc+0x13b2>
  4083e4:	48 8b 44 24 70       	mov    0x70(%rsp),%rax
  4083e9:	48 83 e0 07          	and    $0x7,%rax
  4083ed:	ba 08 00 00 00       	mov    $0x8,%edx
  4083f2:	48 29 c2             	sub    %rax,%rdx
  4083f5:	48 c1 e2 05          	shl    $0x5,%rdx
  4083f9:	48 8b 44 24 60       	mov    0x60(%rsp),%rax
  4083fe:	48 c1 e8 03          	shr    $0x3,%rax
  408402:	0f b6 88 00 80 ff 7f 	movzbl 0x7fff8000(%rax),%ecx
  408409:	48 01 d1             	add    %rdx,%rcx
  40840c:	88 88 00 80 ff 7f    	mov    %cl,0x7fff8000(%rax)
  408412:	e9 00 00 00 00       	jmpq   408417 <malloc+0x13b7>
  408417:	e9 00 00 00 00       	jmpq   40841c <malloc+0x13bc>
  40841c:	48 8b 44 24 20       	mov    0x20(%rsp),%rax
  408421:	48 89 44 24 30       	mov    %rax,0x30(%rsp)
  408426:	48 8b 44 24 30       	mov    0x30(%rsp),%rax
  40842b:	48 81 c4 e8 01 00 00 	add    $0x1e8,%rsp
  408432:	c3                   	retq   
  408433:	66 2e 0f 1f 84 00 00 	nopw   %cs:0x0(%rax,%rax,1)
  40843a:	00 00 00 
  40843d:	0f 1f 00             	nopl   (%rax)

0000000000408440 <calloc>:
  408440:	48 81 ec e8 01 00 00 	sub    $0x1e8,%rsp
  408447:	48 89 7c 24 30       	mov    %rdi,0x30(%rsp)
  40844c:	48 89 74 24 28       	mov    %rsi,0x28(%rsp)
  408451:	48 8b 7c 24 30       	mov    0x30(%rsp),%rdi
  408456:	48 8b 74 24 28       	mov    0x28(%rsp),%rsi
  40845b:	e8 a0 8d ff ff       	callq  401200 <__libc_calloc@plt>
  408460:	48 89 44 24 20       	mov    %rax,0x20(%rsp)
  408465:	48 83 7c 24 20 00    	cmpq   $0x0,0x20(%rsp)
  40846b:	0f 84 78 13 00 00    	je     4097e9 <calloc+0x13a9>
  408471:	48 8b 4c 24 20       	mov    0x20(%rsp),%rcx
  408476:	48 8b 44 24 30       	mov    0x30(%rsp),%rax
  40847b:	48 0f af 44 24 28    	imul   0x28(%rsp),%rax
  408481:	48 89 4c 24 78       	mov    %rcx,0x78(%rsp)
  408486:	48 89 44 24 70       	mov    %rax,0x70(%rsp)
  40848b:	48 8b 44 24 78       	mov    0x78(%rsp),%rax
  408490:	48 89 44 24 68       	mov    %rax,0x68(%rsp)
  408495:	48 8b 44 24 68       	mov    0x68(%rsp),%rax
  40849a:	48 03 44 24 70       	add    0x70(%rsp),%rax
  40849f:	48 89 44 24 60       	mov    %rax,0x60(%rsp)
  4084a4:	48 8b 44 24 68       	mov    0x68(%rsp),%rax
  4084a9:	48 c1 e8 08          	shr    $0x8,%rax
  4084ad:	48 89 44 24 58       	mov    %rax,0x58(%rsp)
  4084b2:	48 8b 44 24 58       	mov    0x58(%rsp),%rax
  4084b7:	48 c1 e0 08          	shl    $0x8,%rax
  4084bb:	48 89 44 24 50       	mov    %rax,0x50(%rsp)
  4084c0:	48 8b 44 24 60       	mov    0x60(%rsp),%rax
  4084c5:	48 c1 e8 08          	shr    $0x8,%rax
  4084c9:	48 89 44 24 48       	mov    %rax,0x48(%rsp)
  4084ce:	48 8b 44 24 48       	mov    0x48(%rsp),%rax
  4084d3:	48 c1 e0 08          	shl    $0x8,%rax
  4084d7:	48 89 44 24 40       	mov    %rax,0x40(%rsp)
  4084dc:	48 8b 44 24 58       	mov    0x58(%rsp),%rax
  4084e1:	48 3b 44 24 48       	cmp    0x48(%rsp),%rax
  4084e6:	0f 85 19 06 00 00    	jne    408b05 <calloc+0x6c5>
  4084ec:	48 8b 4c 24 78       	mov    0x78(%rsp),%rcx
  4084f1:	48 8b 44 24 70       	mov    0x70(%rsp),%rax
  4084f6:	48 89 8c 24 a8 00 00 	mov    %rcx,0xa8(%rsp)
  4084fd:	00 
  4084fe:	48 89 84 24 a0 00 00 	mov    %rax,0xa0(%rsp)
  408505:	00 
  408506:	c6 84 24 9f 00 00 00 	movb   $0x0,0x9f(%rsp)
  40850d:	00 
  40850e:	48 8b 84 24 a8 00 00 	mov    0xa8(%rsp),%rax
  408515:	00 
  408516:	48 c1 e8 08          	shr    $0x8,%rax
  40851a:	48 89 84 24 90 00 00 	mov    %rax,0x90(%rsp)
  408521:	00 
  408522:	48 8b 04 25 08 82 61 	mov    0x618208,%rax
  408529:	00 
  40852a:	48 8b 8c 24 90 00 00 	mov    0x90(%rsp),%rcx
  408531:	00 
  408532:	80 3c 08 00          	cmpb   $0x0,(%rax,%rcx,1)
  408536:	0f 85 49 00 00 00    	jne    408585 <calloc+0x145>
  40853c:	48 8b 04 25 08 82 61 	mov    0x618208,%rax
  408543:	00 
  408544:	48 8b 8c 24 90 00 00 	mov    0x90(%rsp),%rcx
  40854b:	00 
  40854c:	c6 04 08 01          	movb   $0x1,(%rax,%rcx,1)
  408550:	48 8b 84 24 90 00 00 	mov    0x90(%rsp),%rax
  408557:	00 
  408558:	48 c1 e0 08          	shl    $0x8,%rax
  40855c:	48 c1 e8 03          	shr    $0x3,%rax
  408560:	48 05 00 80 ff 7f    	add    $0x7fff8000,%rax
  408566:	48 89 84 24 88 00 00 	mov    %rax,0x88(%rsp)
  40856d:	00 
  40856e:	48 8b bc 24 88 00 00 	mov    0x88(%rsp),%rdi
  408575:	00 
  408576:	be ff 00 00 00       	mov    $0xff,%esi
  40857b:	ba 20 00 00 00       	mov    $0x20,%edx
  408580:	e8 4b 8b ff ff       	callq  4010d0 <memset@plt>
  408585:	80 bc 24 9f 00 00 00 	cmpb   $0x0,0x9f(%rsp)
  40858c:	00 
  40858d:	0f 85 f7 04 00 00    	jne    408a8a <calloc+0x64a>
  408593:	48 8b 8c 24 a8 00 00 	mov    0xa8(%rsp),%rcx
  40859a:	00 
  40859b:	48 8b 84 24 a0 00 00 	mov    0xa0(%rsp),%rax
  4085a2:	00 
  4085a3:	48 89 8c 24 f0 00 00 	mov    %rcx,0xf0(%rsp)
  4085aa:	00 
  4085ab:	48 89 84 24 e8 00 00 	mov    %rax,0xe8(%rsp)
  4085b2:	00 
  4085b3:	48 8b 84 24 f0 00 00 	mov    0xf0(%rsp),%rax
  4085ba:	00 
  4085bb:	48 c1 e8 03          	shr    $0x3,%rax
  4085bf:	48 05 00 80 ff 7f    	add    $0x7fff8000,%rax
  4085c5:	48 89 84 24 e0 00 00 	mov    %rax,0xe0(%rsp)
  4085cc:	00 
  4085cd:	48 8b 84 24 f0 00 00 	mov    0xf0(%rsp),%rax
  4085d4:	00 
  4085d5:	48 03 84 24 e8 00 00 	add    0xe8(%rsp),%rax
  4085dc:	00 
  4085dd:	48 83 e8 01          	sub    $0x1,%rax
  4085e1:	48 c1 e8 03          	shr    $0x3,%rax
  4085e5:	48 05 00 80 ff 7f    	add    $0x7fff8000,%rax
  4085eb:	48 83 c0 01          	add    $0x1,%rax
  4085ef:	48 89 84 24 d8 00 00 	mov    %rax,0xd8(%rsp)
  4085f6:	00 
  4085f7:	48 81 bc 24 e8 00 00 	cmpq   $0x80,0xe8(%rsp)
  4085fe:	00 80 00 00 00 
  408603:	0f 87 31 03 00 00    	ja     40893a <calloc+0x4fa>
  408609:	48 8b 84 24 e8 00 00 	mov    0xe8(%rsp),%rax
  408610:	00 
  408611:	48 83 c0 07          	add    $0x7,%rax
  408615:	48 c1 e8 03          	shr    $0x3,%rax
  408619:	48 89 84 24 d0 00 00 	mov    %rax,0xd0(%rsp)
  408620:	00 
  408621:	48 8b 84 24 d0 00 00 	mov    0xd0(%rsp),%rax
  408628:	00 
  408629:	48 83 c0 ff          	add    $0xffffffffffffffff,%rax
  40862d:	48 89 44 24 18       	mov    %rax,0x18(%rsp)
  408632:	48 83 e8 0f          	sub    $0xf,%rax
  408636:	0f 87 e9 02 00 00    	ja     408925 <calloc+0x4e5>
  40863c:	48 8b 44 24 18       	mov    0x18(%rsp),%rax
  408641:	48 8b 04 c5 e8 4f 41 	mov    0x414fe8(,%rax,8),%rax
  408648:	00 
  408649:	ff e0                	jmpq   *%rax
  40864b:	48 8b 84 24 d8 00 00 	mov    0xd8(%rsp),%rax
  408652:	00 
  408653:	48 83 e8 01          	sub    $0x1,%rax
  408657:	c6 00 01             	movb   $0x1,(%rax)
  40865a:	e9 cb 02 00 00       	jmpq   40892a <calloc+0x4ea>
  40865f:	48 8b 84 24 d8 00 00 	mov    0xd8(%rsp),%rax
  408666:	00 
  408667:	48 83 e8 02          	sub    $0x2,%rax
  40866b:	66 c7 00 02 01       	movw   $0x102,(%rax)
  408670:	e9 b5 02 00 00       	jmpq   40892a <calloc+0x4ea>
  408675:	48 8b 84 24 d8 00 00 	mov    0xd8(%rsp),%rax
  40867c:	00 
  40867d:	48 83 e8 01          	sub    $0x1,%rax
  408681:	c6 00 01             	movb   $0x1,(%rax)
  408684:	48 8b 84 24 d8 00 00 	mov    0xd8(%rsp),%rax
  40868b:	00 
  40868c:	48 83 e8 03          	sub    $0x3,%rax
  408690:	66 c7 00 02 02       	movw   $0x202,(%rax)
  408695:	e9 90 02 00 00       	jmpq   40892a <calloc+0x4ea>
  40869a:	48 8b 84 24 d8 00 00 	mov    0xd8(%rsp),%rax
  4086a1:	00 
  4086a2:	48 83 e8 04          	sub    $0x4,%rax
  4086a6:	c7 00 03 02 02 01    	movl   $0x1020203,(%rax)
  4086ac:	e9 79 02 00 00       	jmpq   40892a <calloc+0x4ea>
  4086b1:	48 8b 84 24 d8 00 00 	mov    0xd8(%rsp),%rax
  4086b8:	00 
  4086b9:	48 83 e8 01          	sub    $0x1,%rax
  4086bd:	c6 00 01             	movb   $0x1,(%rax)
  4086c0:	48 8b 84 24 d8 00 00 	mov    0xd8(%rsp),%rax
  4086c7:	00 
  4086c8:	48 83 e8 05          	sub    $0x5,%rax
  4086cc:	c7 00 03 03 02 02    	movl   $0x2020303,(%rax)
  4086d2:	e9 53 02 00 00       	jmpq   40892a <calloc+0x4ea>
  4086d7:	48 8b 84 24 d8 00 00 	mov    0xd8(%rsp),%rax
  4086de:	00 
  4086df:	48 83 e8 02          	sub    $0x2,%rax
  4086e3:	66 c7 00 02 01       	movw   $0x102,(%rax)
  4086e8:	48 8b 84 24 d8 00 00 	mov    0xd8(%rsp),%rax
  4086ef:	00 
  4086f0:	48 83 e8 06          	sub    $0x6,%rax
  4086f4:	c7 00 03 03 03 02    	movl   $0x2030303,(%rax)
  4086fa:	e9 2b 02 00 00       	jmpq   40892a <calloc+0x4ea>
  4086ff:	48 8b 84 24 d8 00 00 	mov    0xd8(%rsp),%rax
  408706:	00 
  408707:	48 83 e8 01          	sub    $0x1,%rax
  40870b:	c6 00 01             	movb   $0x1,(%rax)
  40870e:	48 8b 84 24 d8 00 00 	mov    0xd8(%rsp),%rax
  408715:	00 
  408716:	48 83 e8 03          	sub    $0x3,%rax
  40871a:	66 c7 00 02 02       	movw   $0x202,(%rax)
  40871f:	48 8b 84 24 d8 00 00 	mov    0xd8(%rsp),%rax
  408726:	00 
  408727:	48 83 e8 07          	sub    $0x7,%rax
  40872b:	c7 00 03 03 03 03    	movl   $0x3030303,(%rax)
  408731:	e9 f4 01 00 00       	jmpq   40892a <calloc+0x4ea>
  408736:	48 8b 84 24 d8 00 00 	mov    0xd8(%rsp),%rax
  40873d:	00 
  40873e:	48 83 e8 08          	sub    $0x8,%rax
  408742:	48 b9 04 03 03 03 03 	movabs $0x102020303030304,%rcx
  408749:	02 02 01 
  40874c:	48 89 08             	mov    %rcx,(%rax)
  40874f:	e9 d6 01 00 00       	jmpq   40892a <calloc+0x4ea>
  408754:	48 8b 84 24 d8 00 00 	mov    0xd8(%rsp),%rax
  40875b:	00 
  40875c:	48 83 e8 01          	sub    $0x1,%rax
  408760:	c6 00 01             	movb   $0x1,(%rax)
  408763:	48 8b 84 24 d8 00 00 	mov    0xd8(%rsp),%rax
  40876a:	00 
  40876b:	48 83 e8 09          	sub    $0x9,%rax
  40876f:	48 b9 04 04 03 03 03 	movabs $0x202030303030404,%rcx
  408776:	03 02 02 
  408779:	48 89 08             	mov    %rcx,(%rax)
  40877c:	e9 a9 01 00 00       	jmpq   40892a <calloc+0x4ea>
  408781:	48 8b 84 24 d8 00 00 	mov    0xd8(%rsp),%rax
  408788:	00 
  408789:	48 83 e8 02          	sub    $0x2,%rax
  40878d:	66 c7 00 02 01       	movw   $0x102,(%rax)
  408792:	48 8b 84 24 d8 00 00 	mov    0xd8(%rsp),%rax
  408799:	00 
  40879a:	48 83 e8 0a          	sub    $0xa,%rax
  40879e:	48 b9 04 04 04 03 03 	movabs $0x203030303040404,%rcx
  4087a5:	03 03 02 
  4087a8:	48 89 08             	mov    %rcx,(%rax)
  4087ab:	e9 7a 01 00 00       	jmpq   40892a <calloc+0x4ea>
  4087b0:	48 8b 84 24 d8 00 00 	mov    0xd8(%rsp),%rax
  4087b7:	00 
  4087b8:	48 83 e8 01          	sub    $0x1,%rax
  4087bc:	c6 00 01             	movb   $0x1,(%rax)
  4087bf:	48 8b 84 24 d8 00 00 	mov    0xd8(%rsp),%rax
  4087c6:	00 
  4087c7:	48 83 e8 03          	sub    $0x3,%rax
  4087cb:	66 c7 00 02 02       	movw   $0x202,(%rax)
  4087d0:	48 8b 84 24 d8 00 00 	mov    0xd8(%rsp),%rax
  4087d7:	00 
  4087d8:	48 83 e8 0b          	sub    $0xb,%rax
  4087dc:	48 b9 04 04 04 04 03 	movabs $0x303030304040404,%rcx
  4087e3:	03 03 03 
  4087e6:	48 89 08             	mov    %rcx,(%rax)
  4087e9:	e9 3c 01 00 00       	jmpq   40892a <calloc+0x4ea>
  4087ee:	48 8b 84 24 d8 00 00 	mov    0xd8(%rsp),%rax
  4087f5:	00 
  4087f6:	48 83 e8 04          	sub    $0x4,%rax
  4087fa:	c7 00 03 02 02 01    	movl   $0x1020203,(%rax)
  408800:	48 8b 84 24 d8 00 00 	mov    0xd8(%rsp),%rax
  408807:	00 
  408808:	48 83 e8 0c          	sub    $0xc,%rax
  40880c:	48 b9 04 04 04 04 04 	movabs $0x303030404040404,%rcx
  408813:	03 03 03 
  408816:	48 89 08             	mov    %rcx,(%rax)
  408819:	e9 0c 01 00 00       	jmpq   40892a <calloc+0x4ea>
  40881e:	48 8b 84 24 d8 00 00 	mov    0xd8(%rsp),%rax
  408825:	00 
  408826:	48 83 e8 01          	sub    $0x1,%rax
  40882a:	c6 00 01             	movb   $0x1,(%rax)
  40882d:	48 8b 84 24 d8 00 00 	mov    0xd8(%rsp),%rax
  408834:	00 
  408835:	48 83 e8 05          	sub    $0x5,%rax
  408839:	c7 00 03 03 02 02    	movl   $0x2020303,(%rax)
  40883f:	48 8b 84 24 d8 00 00 	mov    0xd8(%rsp),%rax
  408846:	00 
  408847:	48 83 e8 0d          	sub    $0xd,%rax
  40884b:	48 b9 04 04 04 04 04 	movabs $0x303040404040404,%rcx
  408852:	04 03 03 
  408855:	48 89 08             	mov    %rcx,(%rax)
  408858:	e9 cd 00 00 00       	jmpq   40892a <calloc+0x4ea>
  40885d:	48 8b 84 24 d8 00 00 	mov    0xd8(%rsp),%rax
  408864:	00 
  408865:	48 83 e8 02          	sub    $0x2,%rax
  408869:	66 c7 00 02 01       	movw   $0x102,(%rax)
  40886e:	48 8b 84 24 d8 00 00 	mov    0xd8(%rsp),%rax
  408875:	00 
  408876:	48 83 e8 06          	sub    $0x6,%rax
  40887a:	c7 00 03 03 03 02    	movl   $0x2030303,(%rax)
  408880:	48 8b 84 24 d8 00 00 	mov    0xd8(%rsp),%rax
  408887:	00 
  408888:	48 83 e8 0e          	sub    $0xe,%rax
  40888c:	48 b9 04 04 04 04 04 	movabs $0x304040404040404,%rcx
  408893:	04 04 03 
  408896:	48 89 08             	mov    %rcx,(%rax)
  408899:	e9 8c 00 00 00       	jmpq   40892a <calloc+0x4ea>
  40889e:	48 8b 84 24 d8 00 00 	mov    0xd8(%rsp),%rax
  4088a5:	00 
  4088a6:	48 83 e8 01          	sub    $0x1,%rax
  4088aa:	c6 00 01             	movb   $0x1,(%rax)
  4088ad:	48 8b 84 24 d8 00 00 	mov    0xd8(%rsp),%rax
  4088b4:	00 
  4088b5:	48 83 e8 03          	sub    $0x3,%rax
  4088b9:	66 c7 00 02 02       	movw   $0x202,(%rax)
  4088be:	48 8b 84 24 d8 00 00 	mov    0xd8(%rsp),%rax
  4088c5:	00 
  4088c6:	48 83 e8 07          	sub    $0x7,%rax
  4088ca:	c7 00 03 03 03 03    	movl   $0x3030303,(%rax)
  4088d0:	48 8b 84 24 d8 00 00 	mov    0xd8(%rsp),%rax
  4088d7:	00 
  4088d8:	48 83 e8 0f          	sub    $0xf,%rax
  4088dc:	48 b9 04 04 04 04 04 	movabs $0x404040404040404,%rcx
  4088e3:	04 04 04 
  4088e6:	48 89 08             	mov    %rcx,(%rax)
  4088e9:	e9 3c 00 00 00       	jmpq   40892a <calloc+0x4ea>
  4088ee:	48 8b 84 24 d8 00 00 	mov    0xd8(%rsp),%rax
  4088f5:	00 
  4088f6:	48 83 e8 08          	sub    $0x8,%rax
  4088fa:	48 b9 04 03 03 03 03 	movabs $0x102020303030304,%rcx
  408901:	02 02 01 
  408904:	48 89 08             	mov    %rcx,(%rax)
  408907:	48 8b 84 24 d8 00 00 	mov    0xd8(%rsp),%rax
  40890e:	00 
  40890f:	48 83 e8 10          	sub    $0x10,%rax
  408913:	48 b9 05 04 04 04 04 	movabs $0x404040404040405,%rcx
  40891a:	04 04 04 
  40891d:	48 89 08             	mov    %rcx,(%rax)
  408920:	e9 05 00 00 00       	jmpq   40892a <calloc+0x4ea>
  408925:	e9 00 00 00 00       	jmpq   40892a <calloc+0x4ea>
  40892a:	c7 84 24 cc 00 00 00 	movl   $0x1,0xcc(%rsp)
  408931:	01 00 00 00 
  408935:	e9 4b 01 00 00       	jmpq   408a85 <calloc+0x645>
  40893a:	48 8b 84 24 d8 00 00 	mov    0xd8(%rsp),%rax
  408941:	00 
  408942:	48 83 e8 08          	sub    $0x8,%rax
  408946:	48 b9 04 03 03 03 03 	movabs $0x102020303030304,%rcx
  40894d:	02 02 01 
  408950:	48 89 08             	mov    %rcx,(%rax)
  408953:	48 8b 84 24 d8 00 00 	mov    0xd8(%rsp),%rax
  40895a:	00 
  40895b:	48 83 e8 10          	sub    $0x10,%rax
  40895f:	48 b9 05 04 04 04 04 	movabs $0x404040404040405,%rcx
  408966:	04 04 04 
  408969:	48 89 08             	mov    %rcx,(%rax)
  40896c:	48 c7 84 24 c0 00 00 	movq   $0x4,0xc0(%rsp)
  408973:	00 04 00 00 00 
  408978:	48 8b 84 24 d8 00 00 	mov    0xd8(%rsp),%rax
  40897f:	00 
  408980:	48 8b 8c 24 c0 00 00 	mov    0xc0(%rsp),%rcx
  408987:	00 
  408988:	ba 01 00 00 00       	mov    $0x1,%edx
  40898d:	d3 e2                	shl    %cl,%edx
  40898f:	89 d1                	mov    %edx,%ecx
  408991:	48 63 c9             	movslq %ecx,%rcx
  408994:	48 29 c8             	sub    %rcx,%rax
  408997:	48 3b 84 24 e0 00 00 	cmp    0xe0(%rsp),%rax
  40899e:	00 
  40899f:	0f 83 1b 00 00 00    	jae    4089c0 <calloc+0x580>
  4089a5:	c7 84 24 cc 00 00 00 	movl   $0x3,0xcc(%rsp)
  4089ac:	03 00 00 00 
  4089b0:	c7 84 24 cc 00 00 00 	movl   $0x0,0xcc(%rsp)
  4089b7:	00 00 00 00 
  4089bb:	e9 c5 00 00 00       	jmpq   408a85 <calloc+0x645>
  4089c0:	48 8b 84 24 d8 00 00 	mov    0xd8(%rsp),%rax
  4089c7:	00 
  4089c8:	48 8b 8c 24 c0 00 00 	mov    0xc0(%rsp),%rcx
  4089cf:	00 
  4089d0:	48 83 c1 01          	add    $0x1,%rcx
  4089d4:	ba 01 00 00 00       	mov    $0x1,%edx
  4089d9:	d3 e2                	shl    %cl,%edx
  4089db:	89 d1                	mov    %edx,%ecx
  4089dd:	48 63 c9             	movslq %ecx,%rcx
  4089e0:	48 29 c8             	sub    %rcx,%rax
  4089e3:	48 83 c0 01          	add    $0x1,%rax
  4089e7:	48 89 84 24 b8 00 00 	mov    %rax,0xb8(%rsp)
  4089ee:	00 
  4089ef:	48 8b 84 24 d8 00 00 	mov    0xd8(%rsp),%rax
  4089f6:	00 
  4089f7:	48 8b 8c 24 c0 00 00 	mov    0xc0(%rsp),%rcx
  4089fe:	00 
  4089ff:	ba 01 00 00 00       	mov    $0x1,%edx
  408a04:	d3 e2                	shl    %cl,%edx
  408a06:	89 d1                	mov    %edx,%ecx
  408a08:	48 63 c9             	movslq %ecx,%rcx
  408a0b:	48 29 c8             	sub    %rcx,%rax
  408a0e:	48 89 84 24 b0 00 00 	mov    %rax,0xb0(%rsp)
  408a15:	00 
  408a16:	48 8b 84 24 b8 00 00 	mov    0xb8(%rsp),%rax
  408a1d:	00 
  408a1e:	48 3b 84 24 e0 00 00 	cmp    0xe0(%rsp),%rax
  408a25:	00 
  408a26:	0f 83 10 00 00 00    	jae    408a3c <calloc+0x5fc>
  408a2c:	48 8b 84 24 e0 00 00 	mov    0xe0(%rsp),%rax
  408a33:	00 
  408a34:	48 89 84 24 b8 00 00 	mov    %rax,0xb8(%rsp)
  408a3b:	00 
  408a3c:	48 8b bc 24 b8 00 00 	mov    0xb8(%rsp),%rdi
  408a43:	00 
  408a44:	48 8b 84 24 c0 00 00 	mov    0xc0(%rsp),%rax
  408a4b:	00 
  408a4c:	48 83 c0 01          	add    $0x1,%rax
  408a50:	48 8b 94 24 b0 00 00 	mov    0xb0(%rsp),%rdx
  408a57:	00 
  408a58:	48 2b 94 24 b8 00 00 	sub    0xb8(%rsp),%rdx
  408a5f:	00 
  408a60:	48 83 c2 01          	add    $0x1,%rdx
  408a64:	0f b6 f0             	movzbl %al,%esi
  408a67:	e8 64 86 ff ff       	callq  4010d0 <memset@plt>
  408a6c:	48 8b 84 24 c0 00 00 	mov    0xc0(%rsp),%rax
  408a73:	00 
  408a74:	48 83 c0 01          	add    $0x1,%rax
  408a78:	48 89 84 24 c0 00 00 	mov    %rax,0xc0(%rsp)
  408a7f:	00 
  408a80:	e9 f3 fe ff ff       	jmpq   408978 <calloc+0x538>
  408a85:	e9 35 00 00 00       	jmpq   408abf <calloc+0x67f>
  408a8a:	48 8b 84 24 a8 00 00 	mov    0xa8(%rsp),%rax
  408a91:	00 
  408a92:	48 c1 e8 03          	shr    $0x3,%rax
  408a96:	48 05 00 80 ff 7f    	add    $0x7fff8000,%rax
  408a9c:	48 89 84 24 80 00 00 	mov    %rax,0x80(%rsp)
  408aa3:	00 
  408aa4:	48 8b bc 24 80 00 00 	mov    0x80(%rsp),%rdi
  408aab:	00 
  408aac:	48 8b 94 24 a0 00 00 	mov    0xa0(%rsp),%rdx
  408ab3:	00 
  408ab4:	48 c1 ea 03          	shr    $0x3,%rdx
  408ab8:	31 f6                	xor    %esi,%esi
  408aba:	e8 11 86 ff ff       	callq  4010d0 <memset@plt>
  408abf:	48 8b 44 24 70       	mov    0x70(%rsp),%rax
  408ac4:	48 83 e0 07          	and    $0x7,%rax
  408ac8:	48 83 f8 00          	cmp    $0x0,%rax
  408acc:	0f 84 2e 00 00 00    	je     408b00 <calloc+0x6c0>
  408ad2:	48 8b 44 24 70       	mov    0x70(%rsp),%rax
  408ad7:	48 83 e0 07          	and    $0x7,%rax
  408adb:	ba 08 00 00 00       	mov    $0x8,%edx
  408ae0:	48 29 c2             	sub    %rax,%rdx
  408ae3:	48 c1 e2 05          	shl    $0x5,%rdx
  408ae7:	48 8b 44 24 60       	mov    0x60(%rsp),%rax
  408aec:	48 c1 e8 03          	shr    $0x3,%rax
  408af0:	0f b6 88 00 80 ff 7f 	movzbl 0x7fff8000(%rax),%ecx
  408af7:	48 01 d1             	add    %rdx,%rcx
  408afa:	88 88 00 80 ff 7f    	mov    %cl,0x7fff8000(%rax)
  408b00:	e9 e4 0c 00 00       	jmpq   4097e9 <calloc+0x13a9>
  408b05:	48 8b 44 24 58       	mov    0x58(%rsp),%rax
  408b0a:	48 89 44 24 38       	mov    %rax,0x38(%rsp)
  408b0f:	48 8b 44 24 38       	mov    0x38(%rsp),%rax
  408b14:	48 3b 44 24 48       	cmp    0x48(%rsp),%rax
  408b19:	0f 85 15 00 00 00    	jne    408b34 <calloc+0x6f4>
  408b1f:	48 8b 44 24 68       	mov    0x68(%rsp),%rax
  408b24:	48 3b 44 24 50       	cmp    0x50(%rsp),%rax
  408b29:	0f 85 a9 00 00 00    	jne    408bd8 <calloc+0x798>
  408b2f:	e9 8d 00 00 00       	jmpq   408bc1 <calloc+0x781>
  408b34:	48 8b 04 25 00 82 61 	mov    0x618200,%rax
  408b3b:	00 
  408b3c:	48 8b 4c 24 38       	mov    0x38(%rsp),%rcx
  408b41:	80 3c 08 00          	cmpb   $0x0,(%rax,%rcx,1)
  408b45:	0f 84 40 00 00 00    	je     408b8b <calloc+0x74b>
  408b4b:	48 8b 44 24 38       	mov    0x38(%rsp),%rax
  408b50:	48 3b 44 24 58       	cmp    0x58(%rsp),%rax
  408b55:	0f 85 10 00 00 00    	jne    408b6b <calloc+0x72b>
  408b5b:	48 8b 44 24 68       	mov    0x68(%rsp),%rax
  408b60:	48 3b 44 24 50       	cmp    0x50(%rsp),%rax
  408b65:	0f 85 20 00 00 00    	jne    408b8b <calloc+0x74b>
  408b6b:	48 8b 7c 24 38       	mov    0x38(%rsp),%rdi
  408b70:	48 c1 e7 08          	shl    $0x8,%rdi
  408b74:	48 c1 ef 03          	shr    $0x3,%rdi
  408b78:	48 81 c7 00 80 ff 7f 	add    $0x7fff8000,%rdi
  408b7f:	31 f6                	xor    %esi,%esi
  408b81:	ba 20 00 00 00       	mov    $0x20,%edx
  408b86:	e8 45 85 ff ff       	callq  4010d0 <memset@plt>
  408b8b:	48 8b 44 24 60       	mov    0x60(%rsp),%rax
  408b90:	48 8b 4c 24 38       	mov    0x38(%rsp),%rcx
  408b95:	48 c1 e1 08          	shl    $0x8,%rcx
  408b99:	48 29 c8             	sub    %rcx,%rax
  408b9c:	89 c2                	mov    %eax,%edx
  408b9e:	48 8b 04 25 f8 81 61 	mov    0x6181f8,%rax
  408ba5:	00 
  408ba6:	48 8b 4c 24 38       	mov    0x38(%rsp),%rcx
  408bab:	89 14 88             	mov    %edx,(%rax,%rcx,4)
  408bae:	48 8b 44 24 38       	mov    0x38(%rsp),%rax
  408bb3:	48 83 c0 01          	add    $0x1,%rax
  408bb7:	48 89 44 24 38       	mov    %rax,0x38(%rsp)
  408bbc:	e9 4e ff ff ff       	jmpq   408b0f <calloc+0x6cf>
  408bc1:	48 8b 04 25 00 82 61 	mov    0x618200,%rax
  408bc8:	00 
  408bc9:	48 8b 4c 24 58       	mov    0x58(%rsp),%rcx
  408bce:	80 3c 08 00          	cmpb   $0x0,(%rax,%rcx,1)
  408bd2:	0f 84 de 05 00 00    	je     4091b6 <calloc+0xd76>
  408bd8:	48 8b 4c 24 68       	mov    0x68(%rsp),%rcx
  408bdd:	48 8b 44 24 50       	mov    0x50(%rsp),%rax
  408be2:	48 2b 44 24 68       	sub    0x68(%rsp),%rax
  408be7:	48 05 00 01 00 00    	add    $0x100,%rax
  408bed:	48 89 8c 24 98 01 00 	mov    %rcx,0x198(%rsp)
  408bf4:	00 
  408bf5:	48 89 84 24 90 01 00 	mov    %rax,0x190(%rsp)
  408bfc:	00 
  408bfd:	c6 84 24 8f 01 00 00 	movb   $0x1,0x18f(%rsp)
  408c04:	01 
  408c05:	48 8b 84 24 98 01 00 	mov    0x198(%rsp),%rax
  408c0c:	00 
  408c0d:	48 c1 e8 08          	shr    $0x8,%rax
  408c11:	48 89 84 24 80 01 00 	mov    %rax,0x180(%rsp)
  408c18:	00 
  408c19:	48 8b 04 25 08 82 61 	mov    0x618208,%rax
  408c20:	00 
  408c21:	48 8b 8c 24 80 01 00 	mov    0x180(%rsp),%rcx
  408c28:	00 
  408c29:	80 3c 08 00          	cmpb   $0x0,(%rax,%rcx,1)
  408c2d:	0f 85 49 00 00 00    	jne    408c7c <calloc+0x83c>
  408c33:	48 8b 04 25 08 82 61 	mov    0x618208,%rax
  408c3a:	00 
  408c3b:	48 8b 8c 24 80 01 00 	mov    0x180(%rsp),%rcx
  408c42:	00 
  408c43:	c6 04 08 01          	movb   $0x1,(%rax,%rcx,1)
  408c47:	48 8b 84 24 80 01 00 	mov    0x180(%rsp),%rax
  408c4e:	00 
  408c4f:	48 c1 e0 08          	shl    $0x8,%rax
  408c53:	48 c1 e8 03          	shr    $0x3,%rax
  408c57:	48 05 00 80 ff 7f    	add    $0x7fff8000,%rax
  408c5d:	48 89 84 24 78 01 00 	mov    %rax,0x178(%rsp)
  408c64:	00 
  408c65:	48 8b bc 24 78 01 00 	mov    0x178(%rsp),%rdi
  408c6c:	00 
  408c6d:	be ff 00 00 00       	mov    $0xff,%esi
  408c72:	ba 20 00 00 00       	mov    $0x20,%edx
  408c77:	e8 54 84 ff ff       	callq  4010d0 <memset@plt>
  408c7c:	80 bc 24 8f 01 00 00 	cmpb   $0x0,0x18f(%rsp)
  408c83:	00 
  408c84:	0f 85 f7 04 00 00    	jne    409181 <calloc+0xd41>
  408c8a:	48 8b 8c 24 98 01 00 	mov    0x198(%rsp),%rcx
  408c91:	00 
  408c92:	48 8b 84 24 90 01 00 	mov    0x190(%rsp),%rax
  408c99:	00 
  408c9a:	48 89 8c 24 e0 01 00 	mov    %rcx,0x1e0(%rsp)
  408ca1:	00 
  408ca2:	48 89 84 24 d8 01 00 	mov    %rax,0x1d8(%rsp)
  408ca9:	00 
  408caa:	48 8b 84 24 e0 01 00 	mov    0x1e0(%rsp),%rax
  408cb1:	00 
  408cb2:	48 c1 e8 03          	shr    $0x3,%rax
  408cb6:	48 05 00 80 ff 7f    	add    $0x7fff8000,%rax
  408cbc:	48 89 84 24 d0 01 00 	mov    %rax,0x1d0(%rsp)
  408cc3:	00 
  408cc4:	48 8b 84 24 e0 01 00 	mov    0x1e0(%rsp),%rax
  408ccb:	00 
  408ccc:	48 03 84 24 d8 01 00 	add    0x1d8(%rsp),%rax
  408cd3:	00 
  408cd4:	48 83 e8 01          	sub    $0x1,%rax
  408cd8:	48 c1 e8 03          	shr    $0x3,%rax
  408cdc:	48 05 00 80 ff 7f    	add    $0x7fff8000,%rax
  408ce2:	48 83 c0 01          	add    $0x1,%rax
  408ce6:	48 89 84 24 c8 01 00 	mov    %rax,0x1c8(%rsp)
  408ced:	00 
  408cee:	48 81 bc 24 d8 01 00 	cmpq   $0x80,0x1d8(%rsp)
  408cf5:	00 80 00 00 00 
  408cfa:	0f 87 31 03 00 00    	ja     409031 <calloc+0xbf1>
  408d00:	48 8b 84 24 d8 01 00 	mov    0x1d8(%rsp),%rax
  408d07:	00 
  408d08:	48 83 c0 07          	add    $0x7,%rax
  408d0c:	48 c1 e8 03          	shr    $0x3,%rax
  408d10:	48 89 84 24 c0 01 00 	mov    %rax,0x1c0(%rsp)
  408d17:	00 
  408d18:	48 8b 84 24 c0 01 00 	mov    0x1c0(%rsp),%rax
  408d1f:	00 
  408d20:	48 83 c0 ff          	add    $0xffffffffffffffff,%rax
  408d24:	48 89 44 24 10       	mov    %rax,0x10(%rsp)
  408d29:	48 83 e8 0f          	sub    $0xf,%rax
  408d2d:	0f 87 e9 02 00 00    	ja     40901c <calloc+0xbdc>
  408d33:	48 8b 44 24 10       	mov    0x10(%rsp),%rax
  408d38:	48 8b 04 c5 e8 4e 41 	mov    0x414ee8(,%rax,8),%rax
  408d3f:	00 
  408d40:	ff e0                	jmpq   *%rax
  408d42:	48 8b 84 24 c8 01 00 	mov    0x1c8(%rsp),%rax
  408d49:	00 
  408d4a:	48 83 e8 01          	sub    $0x1,%rax
  408d4e:	c6 00 01             	movb   $0x1,(%rax)
  408d51:	e9 cb 02 00 00       	jmpq   409021 <calloc+0xbe1>
  408d56:	48 8b 84 24 c8 01 00 	mov    0x1c8(%rsp),%rax
  408d5d:	00 
  408d5e:	48 83 e8 02          	sub    $0x2,%rax
  408d62:	66 c7 00 02 01       	movw   $0x102,(%rax)
  408d67:	e9 b5 02 00 00       	jmpq   409021 <calloc+0xbe1>
  408d6c:	48 8b 84 24 c8 01 00 	mov    0x1c8(%rsp),%rax
  408d73:	00 
  408d74:	48 83 e8 01          	sub    $0x1,%rax
  408d78:	c6 00 01             	movb   $0x1,(%rax)
  408d7b:	48 8b 84 24 c8 01 00 	mov    0x1c8(%rsp),%rax
  408d82:	00 
  408d83:	48 83 e8 03          	sub    $0x3,%rax
  408d87:	66 c7 00 02 02       	movw   $0x202,(%rax)
  408d8c:	e9 90 02 00 00       	jmpq   409021 <calloc+0xbe1>
  408d91:	48 8b 84 24 c8 01 00 	mov    0x1c8(%rsp),%rax
  408d98:	00 
  408d99:	48 83 e8 04          	sub    $0x4,%rax
  408d9d:	c7 00 03 02 02 01    	movl   $0x1020203,(%rax)
  408da3:	e9 79 02 00 00       	jmpq   409021 <calloc+0xbe1>
  408da8:	48 8b 84 24 c8 01 00 	mov    0x1c8(%rsp),%rax
  408daf:	00 
  408db0:	48 83 e8 01          	sub    $0x1,%rax
  408db4:	c6 00 01             	movb   $0x1,(%rax)
  408db7:	48 8b 84 24 c8 01 00 	mov    0x1c8(%rsp),%rax
  408dbe:	00 
  408dbf:	48 83 e8 05          	sub    $0x5,%rax
  408dc3:	c7 00 03 03 02 02    	movl   $0x2020303,(%rax)
  408dc9:	e9 53 02 00 00       	jmpq   409021 <calloc+0xbe1>
  408dce:	48 8b 84 24 c8 01 00 	mov    0x1c8(%rsp),%rax
  408dd5:	00 
  408dd6:	48 83 e8 02          	sub    $0x2,%rax
  408dda:	66 c7 00 02 01       	movw   $0x102,(%rax)
  408ddf:	48 8b 84 24 c8 01 00 	mov    0x1c8(%rsp),%rax
  408de6:	00 
  408de7:	48 83 e8 06          	sub    $0x6,%rax
  408deb:	c7 00 03 03 03 02    	movl   $0x2030303,(%rax)
  408df1:	e9 2b 02 00 00       	jmpq   409021 <calloc+0xbe1>
  408df6:	48 8b 84 24 c8 01 00 	mov    0x1c8(%rsp),%rax
  408dfd:	00 
  408dfe:	48 83 e8 01          	sub    $0x1,%rax
  408e02:	c6 00 01             	movb   $0x1,(%rax)
  408e05:	48 8b 84 24 c8 01 00 	mov    0x1c8(%rsp),%rax
  408e0c:	00 
  408e0d:	48 83 e8 03          	sub    $0x3,%rax
  408e11:	66 c7 00 02 02       	movw   $0x202,(%rax)
  408e16:	48 8b 84 24 c8 01 00 	mov    0x1c8(%rsp),%rax
  408e1d:	00 
  408e1e:	48 83 e8 07          	sub    $0x7,%rax
  408e22:	c7 00 03 03 03 03    	movl   $0x3030303,(%rax)
  408e28:	e9 f4 01 00 00       	jmpq   409021 <calloc+0xbe1>
  408e2d:	48 8b 84 24 c8 01 00 	mov    0x1c8(%rsp),%rax
  408e34:	00 
  408e35:	48 83 e8 08          	sub    $0x8,%rax
  408e39:	48 b9 04 03 03 03 03 	movabs $0x102020303030304,%rcx
  408e40:	02 02 01 
  408e43:	48 89 08             	mov    %rcx,(%rax)
  408e46:	e9 d6 01 00 00       	jmpq   409021 <calloc+0xbe1>
  408e4b:	48 8b 84 24 c8 01 00 	mov    0x1c8(%rsp),%rax
  408e52:	00 
  408e53:	48 83 e8 01          	sub    $0x1,%rax
  408e57:	c6 00 01             	movb   $0x1,(%rax)
  408e5a:	48 8b 84 24 c8 01 00 	mov    0x1c8(%rsp),%rax
  408e61:	00 
  408e62:	48 83 e8 09          	sub    $0x9,%rax
  408e66:	48 b9 04 04 03 03 03 	movabs $0x202030303030404,%rcx
  408e6d:	03 02 02 
  408e70:	48 89 08             	mov    %rcx,(%rax)
  408e73:	e9 a9 01 00 00       	jmpq   409021 <calloc+0xbe1>
  408e78:	48 8b 84 24 c8 01 00 	mov    0x1c8(%rsp),%rax
  408e7f:	00 
  408e80:	48 83 e8 02          	sub    $0x2,%rax
  408e84:	66 c7 00 02 01       	movw   $0x102,(%rax)
  408e89:	48 8b 84 24 c8 01 00 	mov    0x1c8(%rsp),%rax
  408e90:	00 
  408e91:	48 83 e8 0a          	sub    $0xa,%rax
  408e95:	48 b9 04 04 04 03 03 	movabs $0x203030303040404,%rcx
  408e9c:	03 03 02 
  408e9f:	48 89 08             	mov    %rcx,(%rax)
  408ea2:	e9 7a 01 00 00       	jmpq   409021 <calloc+0xbe1>
  408ea7:	48 8b 84 24 c8 01 00 	mov    0x1c8(%rsp),%rax
  408eae:	00 
  408eaf:	48 83 e8 01          	sub    $0x1,%rax
  408eb3:	c6 00 01             	movb   $0x1,(%rax)
  408eb6:	48 8b 84 24 c8 01 00 	mov    0x1c8(%rsp),%rax
  408ebd:	00 
  408ebe:	48 83 e8 03          	sub    $0x3,%rax
  408ec2:	66 c7 00 02 02       	movw   $0x202,(%rax)
  408ec7:	48 8b 84 24 c8 01 00 	mov    0x1c8(%rsp),%rax
  408ece:	00 
  408ecf:	48 83 e8 0b          	sub    $0xb,%rax
  408ed3:	48 b9 04 04 04 04 03 	movabs $0x303030304040404,%rcx
  408eda:	03 03 03 
  408edd:	48 89 08             	mov    %rcx,(%rax)
  408ee0:	e9 3c 01 00 00       	jmpq   409021 <calloc+0xbe1>
  408ee5:	48 8b 84 24 c8 01 00 	mov    0x1c8(%rsp),%rax
  408eec:	00 
  408eed:	48 83 e8 04          	sub    $0x4,%rax
  408ef1:	c7 00 03 02 02 01    	movl   $0x1020203,(%rax)
  408ef7:	48 8b 84 24 c8 01 00 	mov    0x1c8(%rsp),%rax
  408efe:	00 
  408eff:	48 83 e8 0c          	sub    $0xc,%rax
  408f03:	48 b9 04 04 04 04 04 	movabs $0x303030404040404,%rcx
  408f0a:	03 03 03 
  408f0d:	48 89 08             	mov    %rcx,(%rax)
  408f10:	e9 0c 01 00 00       	jmpq   409021 <calloc+0xbe1>
  408f15:	48 8b 84 24 c8 01 00 	mov    0x1c8(%rsp),%rax
  408f1c:	00 
  408f1d:	48 83 e8 01          	sub    $0x1,%rax
  408f21:	c6 00 01             	movb   $0x1,(%rax)
  408f24:	48 8b 84 24 c8 01 00 	mov    0x1c8(%rsp),%rax
  408f2b:	00 
  408f2c:	48 83 e8 05          	sub    $0x5,%rax
  408f30:	c7 00 03 03 02 02    	movl   $0x2020303,(%rax)
  408f36:	48 8b 84 24 c8 01 00 	mov    0x1c8(%rsp),%rax
  408f3d:	00 
  408f3e:	48 83 e8 0d          	sub    $0xd,%rax
  408f42:	48 b9 04 04 04 04 04 	movabs $0x303040404040404,%rcx
  408f49:	04 03 03 
  408f4c:	48 89 08             	mov    %rcx,(%rax)
  408f4f:	e9 cd 00 00 00       	jmpq   409021 <calloc+0xbe1>
  408f54:	48 8b 84 24 c8 01 00 	mov    0x1c8(%rsp),%rax
  408f5b:	00 
  408f5c:	48 83 e8 02          	sub    $0x2,%rax
  408f60:	66 c7 00 02 01       	movw   $0x102,(%rax)
  408f65:	48 8b 84 24 c8 01 00 	mov    0x1c8(%rsp),%rax
  408f6c:	00 
  408f6d:	48 83 e8 06          	sub    $0x6,%rax
  408f71:	c7 00 03 03 03 02    	movl   $0x2030303,(%rax)
  408f77:	48 8b 84 24 c8 01 00 	mov    0x1c8(%rsp),%rax
  408f7e:	00 
  408f7f:	48 83 e8 0e          	sub    $0xe,%rax
  408f83:	48 b9 04 04 04 04 04 	movabs $0x304040404040404,%rcx
  408f8a:	04 04 03 
  408f8d:	48 89 08             	mov    %rcx,(%rax)
  408f90:	e9 8c 00 00 00       	jmpq   409021 <calloc+0xbe1>
  408f95:	48 8b 84 24 c8 01 00 	mov    0x1c8(%rsp),%rax
  408f9c:	00 
  408f9d:	48 83 e8 01          	sub    $0x1,%rax
  408fa1:	c6 00 01             	movb   $0x1,(%rax)
  408fa4:	48 8b 84 24 c8 01 00 	mov    0x1c8(%rsp),%rax
  408fab:	00 
  408fac:	48 83 e8 03          	sub    $0x3,%rax
  408fb0:	66 c7 00 02 02       	movw   $0x202,(%rax)
  408fb5:	48 8b 84 24 c8 01 00 	mov    0x1c8(%rsp),%rax
  408fbc:	00 
  408fbd:	48 83 e8 07          	sub    $0x7,%rax
  408fc1:	c7 00 03 03 03 03    	movl   $0x3030303,(%rax)
  408fc7:	48 8b 84 24 c8 01 00 	mov    0x1c8(%rsp),%rax
  408fce:	00 
  408fcf:	48 83 e8 0f          	sub    $0xf,%rax
  408fd3:	48 b9 04 04 04 04 04 	movabs $0x404040404040404,%rcx
  408fda:	04 04 04 
  408fdd:	48 89 08             	mov    %rcx,(%rax)
  408fe0:	e9 3c 00 00 00       	jmpq   409021 <calloc+0xbe1>
  408fe5:	48 8b 84 24 c8 01 00 	mov    0x1c8(%rsp),%rax
  408fec:	00 
  408fed:	48 83 e8 08          	sub    $0x8,%rax
  408ff1:	48 b9 04 03 03 03 03 	movabs $0x102020303030304,%rcx
  408ff8:	02 02 01 
  408ffb:	48 89 08             	mov    %rcx,(%rax)
  408ffe:	48 8b 84 24 c8 01 00 	mov    0x1c8(%rsp),%rax
  409005:	00 
  409006:	48 83 e8 10          	sub    $0x10,%rax
  40900a:	48 b9 05 04 04 04 04 	movabs $0x404040404040405,%rcx
  409011:	04 04 04 
  409014:	48 89 08             	mov    %rcx,(%rax)
  409017:	e9 05 00 00 00       	jmpq   409021 <calloc+0xbe1>
  40901c:	e9 00 00 00 00       	jmpq   409021 <calloc+0xbe1>
  409021:	c7 84 24 bc 01 00 00 	movl   $0x1,0x1bc(%rsp)
  409028:	01 00 00 00 
  40902c:	e9 4b 01 00 00       	jmpq   40917c <calloc+0xd3c>
  409031:	48 8b 84 24 c8 01 00 	mov    0x1c8(%rsp),%rax
  409038:	00 
  409039:	48 83 e8 08          	sub    $0x8,%rax
  40903d:	48 b9 04 03 03 03 03 	movabs $0x102020303030304,%rcx
  409044:	02 02 01 
  409047:	48 89 08             	mov    %rcx,(%rax)
  40904a:	48 8b 84 24 c8 01 00 	mov    0x1c8(%rsp),%rax
  409051:	00 
  409052:	48 83 e8 10          	sub    $0x10,%rax
  409056:	48 b9 05 04 04 04 04 	movabs $0x404040404040405,%rcx
  40905d:	04 04 04 
  409060:	48 89 08             	mov    %rcx,(%rax)
  409063:	48 c7 84 24 b0 01 00 	movq   $0x4,0x1b0(%rsp)
  40906a:	00 04 00 00 00 
  40906f:	48 8b 84 24 c8 01 00 	mov    0x1c8(%rsp),%rax
  409076:	00 
  409077:	48 8b 8c 24 b0 01 00 	mov    0x1b0(%rsp),%rcx
  40907e:	00 
  40907f:	ba 01 00 00 00       	mov    $0x1,%edx
  409084:	d3 e2                	shl    %cl,%edx
  409086:	89 d1                	mov    %edx,%ecx
  409088:	48 63 c9             	movslq %ecx,%rcx
  40908b:	48 29 c8             	sub    %rcx,%rax
  40908e:	48 3b 84 24 d0 01 00 	cmp    0x1d0(%rsp),%rax
  409095:	00 
  409096:	0f 83 1b 00 00 00    	jae    4090b7 <calloc+0xc77>
  40909c:	c7 84 24 bc 01 00 00 	movl   $0x3,0x1bc(%rsp)
  4090a3:	03 00 00 00 
  4090a7:	c7 84 24 bc 01 00 00 	movl   $0x0,0x1bc(%rsp)
  4090ae:	00 00 00 00 
  4090b2:	e9 c5 00 00 00       	jmpq   40917c <calloc+0xd3c>
  4090b7:	48 8b 84 24 c8 01 00 	mov    0x1c8(%rsp),%rax
  4090be:	00 
  4090bf:	48 8b 8c 24 b0 01 00 	mov    0x1b0(%rsp),%rcx
  4090c6:	00 
  4090c7:	48 83 c1 01          	add    $0x1,%rcx
  4090cb:	ba 01 00 00 00       	mov    $0x1,%edx
  4090d0:	d3 e2                	shl    %cl,%edx
  4090d2:	89 d1                	mov    %edx,%ecx
  4090d4:	48 63 c9             	movslq %ecx,%rcx
  4090d7:	48 29 c8             	sub    %rcx,%rax
  4090da:	48 83 c0 01          	add    $0x1,%rax
  4090de:	48 89 84 24 a8 01 00 	mov    %rax,0x1a8(%rsp)
  4090e5:	00 
  4090e6:	48 8b 84 24 c8 01 00 	mov    0x1c8(%rsp),%rax
  4090ed:	00 
  4090ee:	48 8b 8c 24 b0 01 00 	mov    0x1b0(%rsp),%rcx
  4090f5:	00 
  4090f6:	ba 01 00 00 00       	mov    $0x1,%edx
  4090fb:	d3 e2                	shl    %cl,%edx
  4090fd:	89 d1                	mov    %edx,%ecx
  4090ff:	48 63 c9             	movslq %ecx,%rcx
  409102:	48 29 c8             	sub    %rcx,%rax
  409105:	48 89 84 24 a0 01 00 	mov    %rax,0x1a0(%rsp)
  40910c:	00 
  40910d:	48 8b 84 24 a8 01 00 	mov    0x1a8(%rsp),%rax
  409114:	00 
  409115:	48 3b 84 24 d0 01 00 	cmp    0x1d0(%rsp),%rax
  40911c:	00 
  40911d:	0f 83 10 00 00 00    	jae    409133 <calloc+0xcf3>
  409123:	48 8b 84 24 d0 01 00 	mov    0x1d0(%rsp),%rax
  40912a:	00 
  40912b:	48 89 84 24 a8 01 00 	mov    %rax,0x1a8(%rsp)
  409132:	00 
  409133:	48 8b bc 24 a8 01 00 	mov    0x1a8(%rsp),%rdi
  40913a:	00 
  40913b:	48 8b 84 24 b0 01 00 	mov    0x1b0(%rsp),%rax
  409142:	00 
  409143:	48 83 c0 01          	add    $0x1,%rax
  409147:	48 8b 94 24 a0 01 00 	mov    0x1a0(%rsp),%rdx
  40914e:	00 
  40914f:	48 2b 94 24 a8 01 00 	sub    0x1a8(%rsp),%rdx
  409156:	00 
  409157:	48 83 c2 01          	add    $0x1,%rdx
  40915b:	0f b6 f0             	movzbl %al,%esi
  40915e:	e8 6d 7f ff ff       	callq  4010d0 <memset@plt>
  409163:	48 8b 84 24 b0 01 00 	mov    0x1b0(%rsp),%rax
  40916a:	00 
  40916b:	48 83 c0 01          	add    $0x1,%rax
  40916f:	48 89 84 24 b0 01 00 	mov    %rax,0x1b0(%rsp)
  409176:	00 
  409177:	e9 f3 fe ff ff       	jmpq   40906f <calloc+0xc2f>
  40917c:	e9 35 00 00 00       	jmpq   4091b6 <calloc+0xd76>
  409181:	48 8b 84 24 98 01 00 	mov    0x198(%rsp),%rax
  409188:	00 
  409189:	48 c1 e8 03          	shr    $0x3,%rax
  40918d:	48 05 00 80 ff 7f    	add    $0x7fff8000,%rax
  409193:	48 89 84 24 70 01 00 	mov    %rax,0x170(%rsp)
  40919a:	00 
  40919b:	48 8b bc 24 70 01 00 	mov    0x170(%rsp),%rdi
  4091a2:	00 
  4091a3:	48 8b 94 24 90 01 00 	mov    0x190(%rsp),%rdx
  4091aa:	00 
  4091ab:	48 c1 ea 03          	shr    $0x3,%rdx
  4091af:	31 f6                	xor    %esi,%esi
  4091b1:	e8 1a 7f ff ff       	callq  4010d0 <memset@plt>
  4091b6:	48 8b 44 24 60       	mov    0x60(%rsp),%rax
  4091bb:	48 3b 44 24 40       	cmp    0x40(%rsp),%rax
  4091c0:	0f 84 1e 06 00 00    	je     4097e4 <calloc+0x13a4>
  4091c6:	48 8b 4c 24 40       	mov    0x40(%rsp),%rcx
  4091cb:	48 8b 44 24 60       	mov    0x60(%rsp),%rax
  4091d0:	48 2b 44 24 40       	sub    0x40(%rsp),%rax
  4091d5:	48 89 8c 24 20 01 00 	mov    %rcx,0x120(%rsp)
  4091dc:	00 
  4091dd:	48 89 84 24 18 01 00 	mov    %rax,0x118(%rsp)
  4091e4:	00 
  4091e5:	c6 84 24 17 01 00 00 	movb   $0x0,0x117(%rsp)
  4091ec:	00 
  4091ed:	48 8b 84 24 20 01 00 	mov    0x120(%rsp),%rax
  4091f4:	00 
  4091f5:	48 c1 e8 08          	shr    $0x8,%rax
  4091f9:	48 89 84 24 08 01 00 	mov    %rax,0x108(%rsp)
  409200:	00 
  409201:	48 8b 04 25 08 82 61 	mov    0x618208,%rax
  409208:	00 
  409209:	48 8b 8c 24 08 01 00 	mov    0x108(%rsp),%rcx
  409210:	00 
  409211:	80 3c 08 00          	cmpb   $0x0,(%rax,%rcx,1)
  409215:	0f 85 49 00 00 00    	jne    409264 <calloc+0xe24>
  40921b:	48 8b 04 25 08 82 61 	mov    0x618208,%rax
  409222:	00 
  409223:	48 8b 8c 24 08 01 00 	mov    0x108(%rsp),%rcx
  40922a:	00 
  40922b:	c6 04 08 01          	movb   $0x1,(%rax,%rcx,1)
  40922f:	48 8b 84 24 08 01 00 	mov    0x108(%rsp),%rax
  409236:	00 
  409237:	48 c1 e0 08          	shl    $0x8,%rax
  40923b:	48 c1 e8 03          	shr    $0x3,%rax
  40923f:	48 05 00 80 ff 7f    	add    $0x7fff8000,%rax
  409245:	48 89 84 24 00 01 00 	mov    %rax,0x100(%rsp)
  40924c:	00 
  40924d:	48 8b bc 24 00 01 00 	mov    0x100(%rsp),%rdi
  409254:	00 
  409255:	be ff 00 00 00       	mov    $0xff,%esi
  40925a:	ba 20 00 00 00       	mov    $0x20,%edx
  40925f:	e8 6c 7e ff ff       	callq  4010d0 <memset@plt>
  409264:	80 bc 24 17 01 00 00 	cmpb   $0x0,0x117(%rsp)
  40926b:	00 
  40926c:	0f 85 f7 04 00 00    	jne    409769 <calloc+0x1329>
  409272:	48 8b 8c 24 20 01 00 	mov    0x120(%rsp),%rcx
  409279:	00 
  40927a:	48 8b 84 24 18 01 00 	mov    0x118(%rsp),%rax
  409281:	00 
  409282:	48 89 8c 24 68 01 00 	mov    %rcx,0x168(%rsp)
  409289:	00 
  40928a:	48 89 84 24 60 01 00 	mov    %rax,0x160(%rsp)
  409291:	00 
  409292:	48 8b 84 24 68 01 00 	mov    0x168(%rsp),%rax
  409299:	00 
  40929a:	48 c1 e8 03          	shr    $0x3,%rax
  40929e:	48 05 00 80 ff 7f    	add    $0x7fff8000,%rax
  4092a4:	48 89 84 24 58 01 00 	mov    %rax,0x158(%rsp)
  4092ab:	00 
  4092ac:	48 8b 84 24 68 01 00 	mov    0x168(%rsp),%rax
  4092b3:	00 
  4092b4:	48 03 84 24 60 01 00 	add    0x160(%rsp),%rax
  4092bb:	00 
  4092bc:	48 83 e8 01          	sub    $0x1,%rax
  4092c0:	48 c1 e8 03          	shr    $0x3,%rax
  4092c4:	48 05 00 80 ff 7f    	add    $0x7fff8000,%rax
  4092ca:	48 83 c0 01          	add    $0x1,%rax
  4092ce:	48 89 84 24 50 01 00 	mov    %rax,0x150(%rsp)
  4092d5:	00 
  4092d6:	48 81 bc 24 60 01 00 	cmpq   $0x80,0x160(%rsp)
  4092dd:	00 80 00 00 00 
  4092e2:	0f 87 31 03 00 00    	ja     409619 <calloc+0x11d9>
  4092e8:	48 8b 84 24 60 01 00 	mov    0x160(%rsp),%rax
  4092ef:	00 
  4092f0:	48 83 c0 07          	add    $0x7,%rax
  4092f4:	48 c1 e8 03          	shr    $0x3,%rax
  4092f8:	48 89 84 24 48 01 00 	mov    %rax,0x148(%rsp)
  4092ff:	00 
  409300:	48 8b 84 24 48 01 00 	mov    0x148(%rsp),%rax
  409307:	00 
  409308:	48 83 c0 ff          	add    $0xffffffffffffffff,%rax
  40930c:	48 89 44 24 08       	mov    %rax,0x8(%rsp)
  409311:	48 83 e8 0f          	sub    $0xf,%rax
  409315:	0f 87 e9 02 00 00    	ja     409604 <calloc+0x11c4>
  40931b:	48 8b 44 24 08       	mov    0x8(%rsp),%rax
  409320:	48 8b 04 c5 68 4f 41 	mov    0x414f68(,%rax,8),%rax
  409327:	00 
  409328:	ff e0                	jmpq   *%rax
  40932a:	48 8b 84 24 50 01 00 	mov    0x150(%rsp),%rax
  409331:	00 
  409332:	48 83 e8 01          	sub    $0x1,%rax
  409336:	c6 00 01             	movb   $0x1,(%rax)
  409339:	e9 cb 02 00 00       	jmpq   409609 <calloc+0x11c9>
  40933e:	48 8b 84 24 50 01 00 	mov    0x150(%rsp),%rax
  409345:	00 
  409346:	48 83 e8 02          	sub    $0x2,%rax
  40934a:	66 c7 00 02 01       	movw   $0x102,(%rax)
  40934f:	e9 b5 02 00 00       	jmpq   409609 <calloc+0x11c9>
  409354:	48 8b 84 24 50 01 00 	mov    0x150(%rsp),%rax
  40935b:	00 
  40935c:	48 83 e8 01          	sub    $0x1,%rax
  409360:	c6 00 01             	movb   $0x1,(%rax)
  409363:	48 8b 84 24 50 01 00 	mov    0x150(%rsp),%rax
  40936a:	00 
  40936b:	48 83 e8 03          	sub    $0x3,%rax
  40936f:	66 c7 00 02 02       	movw   $0x202,(%rax)
  409374:	e9 90 02 00 00       	jmpq   409609 <calloc+0x11c9>
  409379:	48 8b 84 24 50 01 00 	mov    0x150(%rsp),%rax
  409380:	00 
  409381:	48 83 e8 04          	sub    $0x4,%rax
  409385:	c7 00 03 02 02 01    	movl   $0x1020203,(%rax)
  40938b:	e9 79 02 00 00       	jmpq   409609 <calloc+0x11c9>
  409390:	48 8b 84 24 50 01 00 	mov    0x150(%rsp),%rax
  409397:	00 
  409398:	48 83 e8 01          	sub    $0x1,%rax
  40939c:	c6 00 01             	movb   $0x1,(%rax)
  40939f:	48 8b 84 24 50 01 00 	mov    0x150(%rsp),%rax
  4093a6:	00 
  4093a7:	48 83 e8 05          	sub    $0x5,%rax
  4093ab:	c7 00 03 03 02 02    	movl   $0x2020303,(%rax)
  4093b1:	e9 53 02 00 00       	jmpq   409609 <calloc+0x11c9>
  4093b6:	48 8b 84 24 50 01 00 	mov    0x150(%rsp),%rax
  4093bd:	00 
  4093be:	48 83 e8 02          	sub    $0x2,%rax
  4093c2:	66 c7 00 02 01       	movw   $0x102,(%rax)
  4093c7:	48 8b 84 24 50 01 00 	mov    0x150(%rsp),%rax
  4093ce:	00 
  4093cf:	48 83 e8 06          	sub    $0x6,%rax
  4093d3:	c7 00 03 03 03 02    	movl   $0x2030303,(%rax)
  4093d9:	e9 2b 02 00 00       	jmpq   409609 <calloc+0x11c9>
  4093de:	48 8b 84 24 50 01 00 	mov    0x150(%rsp),%rax
  4093e5:	00 
  4093e6:	48 83 e8 01          	sub    $0x1,%rax
  4093ea:	c6 00 01             	movb   $0x1,(%rax)
  4093ed:	48 8b 84 24 50 01 00 	mov    0x150(%rsp),%rax
  4093f4:	00 
  4093f5:	48 83 e8 03          	sub    $0x3,%rax
  4093f9:	66 c7 00 02 02       	movw   $0x202,(%rax)
  4093fe:	48 8b 84 24 50 01 00 	mov    0x150(%rsp),%rax
  409405:	00 
  409406:	48 83 e8 07          	sub    $0x7,%rax
  40940a:	c7 00 03 03 03 03    	movl   $0x3030303,(%rax)
  409410:	e9 f4 01 00 00       	jmpq   409609 <calloc+0x11c9>
  409415:	48 8b 84 24 50 01 00 	mov    0x150(%rsp),%rax
  40941c:	00 
  40941d:	48 83 e8 08          	sub    $0x8,%rax
  409421:	48 b9 04 03 03 03 03 	movabs $0x102020303030304,%rcx
  409428:	02 02 01 
  40942b:	48 89 08             	mov    %rcx,(%rax)
  40942e:	e9 d6 01 00 00       	jmpq   409609 <calloc+0x11c9>
  409433:	48 8b 84 24 50 01 00 	mov    0x150(%rsp),%rax
  40943a:	00 
  40943b:	48 83 e8 01          	sub    $0x1,%rax
  40943f:	c6 00 01             	movb   $0x1,(%rax)
  409442:	48 8b 84 24 50 01 00 	mov    0x150(%rsp),%rax
  409449:	00 
  40944a:	48 83 e8 09          	sub    $0x9,%rax
  40944e:	48 b9 04 04 03 03 03 	movabs $0x202030303030404,%rcx
  409455:	03 02 02 
  409458:	48 89 08             	mov    %rcx,(%rax)
  40945b:	e9 a9 01 00 00       	jmpq   409609 <calloc+0x11c9>
  409460:	48 8b 84 24 50 01 00 	mov    0x150(%rsp),%rax
  409467:	00 
  409468:	48 83 e8 02          	sub    $0x2,%rax
  40946c:	66 c7 00 02 01       	movw   $0x102,(%rax)
  409471:	48 8b 84 24 50 01 00 	mov    0x150(%rsp),%rax
  409478:	00 
  409479:	48 83 e8 0a          	sub    $0xa,%rax
  40947d:	48 b9 04 04 04 03 03 	movabs $0x203030303040404,%rcx
  409484:	03 03 02 
  409487:	48 89 08             	mov    %rcx,(%rax)
  40948a:	e9 7a 01 00 00       	jmpq   409609 <calloc+0x11c9>
  40948f:	48 8b 84 24 50 01 00 	mov    0x150(%rsp),%rax
  409496:	00 
  409497:	48 83 e8 01          	sub    $0x1,%rax
  40949b:	c6 00 01             	movb   $0x1,(%rax)
  40949e:	48 8b 84 24 50 01 00 	mov    0x150(%rsp),%rax
  4094a5:	00 
  4094a6:	48 83 e8 03          	sub    $0x3,%rax
  4094aa:	66 c7 00 02 02       	movw   $0x202,(%rax)
  4094af:	48 8b 84 24 50 01 00 	mov    0x150(%rsp),%rax
  4094b6:	00 
  4094b7:	48 83 e8 0b          	sub    $0xb,%rax
  4094bb:	48 b9 04 04 04 04 03 	movabs $0x303030304040404,%rcx
  4094c2:	03 03 03 
  4094c5:	48 89 08             	mov    %rcx,(%rax)
  4094c8:	e9 3c 01 00 00       	jmpq   409609 <calloc+0x11c9>
  4094cd:	48 8b 84 24 50 01 00 	mov    0x150(%rsp),%rax
  4094d4:	00 
  4094d5:	48 83 e8 04          	sub    $0x4,%rax
  4094d9:	c7 00 03 02 02 01    	movl   $0x1020203,(%rax)
  4094df:	48 8b 84 24 50 01 00 	mov    0x150(%rsp),%rax
  4094e6:	00 
  4094e7:	48 83 e8 0c          	sub    $0xc,%rax
  4094eb:	48 b9 04 04 04 04 04 	movabs $0x303030404040404,%rcx
  4094f2:	03 03 03 
  4094f5:	48 89 08             	mov    %rcx,(%rax)
  4094f8:	e9 0c 01 00 00       	jmpq   409609 <calloc+0x11c9>
  4094fd:	48 8b 84 24 50 01 00 	mov    0x150(%rsp),%rax
  409504:	00 
  409505:	48 83 e8 01          	sub    $0x1,%rax
  409509:	c6 00 01             	movb   $0x1,(%rax)
  40950c:	48 8b 84 24 50 01 00 	mov    0x150(%rsp),%rax
  409513:	00 
  409514:	48 83 e8 05          	sub    $0x5,%rax
  409518:	c7 00 03 03 02 02    	movl   $0x2020303,(%rax)
  40951e:	48 8b 84 24 50 01 00 	mov    0x150(%rsp),%rax
  409525:	00 
  409526:	48 83 e8 0d          	sub    $0xd,%rax
  40952a:	48 b9 04 04 04 04 04 	movabs $0x303040404040404,%rcx
  409531:	04 03 03 
  409534:	48 89 08             	mov    %rcx,(%rax)
  409537:	e9 cd 00 00 00       	jmpq   409609 <calloc+0x11c9>
  40953c:	48 8b 84 24 50 01 00 	mov    0x150(%rsp),%rax
  409543:	00 
  409544:	48 83 e8 02          	sub    $0x2,%rax
  409548:	66 c7 00 02 01       	movw   $0x102,(%rax)
  40954d:	48 8b 84 24 50 01 00 	mov    0x150(%rsp),%rax
  409554:	00 
  409555:	48 83 e8 06          	sub    $0x6,%rax
  409559:	c7 00 03 03 03 02    	movl   $0x2030303,(%rax)
  40955f:	48 8b 84 24 50 01 00 	mov    0x150(%rsp),%rax
  409566:	00 
  409567:	48 83 e8 0e          	sub    $0xe,%rax
  40956b:	48 b9 04 04 04 04 04 	movabs $0x304040404040404,%rcx
  409572:	04 04 03 
  409575:	48 89 08             	mov    %rcx,(%rax)
  409578:	e9 8c 00 00 00       	jmpq   409609 <calloc+0x11c9>
  40957d:	48 8b 84 24 50 01 00 	mov    0x150(%rsp),%rax
  409584:	00 
  409585:	48 83 e8 01          	sub    $0x1,%rax
  409589:	c6 00 01             	movb   $0x1,(%rax)
  40958c:	48 8b 84 24 50 01 00 	mov    0x150(%rsp),%rax
  409593:	00 
  409594:	48 83 e8 03          	sub    $0x3,%rax
  409598:	66 c7 00 02 02       	movw   $0x202,(%rax)
  40959d:	48 8b 84 24 50 01 00 	mov    0x150(%rsp),%rax
  4095a4:	00 
  4095a5:	48 83 e8 07          	sub    $0x7,%rax
  4095a9:	c7 00 03 03 03 03    	movl   $0x3030303,(%rax)
  4095af:	48 8b 84 24 50 01 00 	mov    0x150(%rsp),%rax
  4095b6:	00 
  4095b7:	48 83 e8 0f          	sub    $0xf,%rax
  4095bb:	48 b9 04 04 04 04 04 	movabs $0x404040404040404,%rcx
  4095c2:	04 04 04 
  4095c5:	48 89 08             	mov    %rcx,(%rax)
  4095c8:	e9 3c 00 00 00       	jmpq   409609 <calloc+0x11c9>
  4095cd:	48 8b 84 24 50 01 00 	mov    0x150(%rsp),%rax
  4095d4:	00 
  4095d5:	48 83 e8 08          	sub    $0x8,%rax
  4095d9:	48 b9 04 03 03 03 03 	movabs $0x102020303030304,%rcx
  4095e0:	02 02 01 
  4095e3:	48 89 08             	mov    %rcx,(%rax)
  4095e6:	48 8b 84 24 50 01 00 	mov    0x150(%rsp),%rax
  4095ed:	00 
  4095ee:	48 83 e8 10          	sub    $0x10,%rax
  4095f2:	48 b9 05 04 04 04 04 	movabs $0x404040404040405,%rcx
  4095f9:	04 04 04 
  4095fc:	48 89 08             	mov    %rcx,(%rax)
  4095ff:	e9 05 00 00 00       	jmpq   409609 <calloc+0x11c9>
  409604:	e9 00 00 00 00       	jmpq   409609 <calloc+0x11c9>
  409609:	c7 84 24 44 01 00 00 	movl   $0x1,0x144(%rsp)
  409610:	01 00 00 00 
  409614:	e9 4b 01 00 00       	jmpq   409764 <calloc+0x1324>
  409619:	48 8b 84 24 50 01 00 	mov    0x150(%rsp),%rax
  409620:	00 
  409621:	48 83 e8 08          	sub    $0x8,%rax
  409625:	48 b9 04 03 03 03 03 	movabs $0x102020303030304,%rcx
  40962c:	02 02 01 
  40962f:	48 89 08             	mov    %rcx,(%rax)
  409632:	48 8b 84 24 50 01 00 	mov    0x150(%rsp),%rax
  409639:	00 
  40963a:	48 83 e8 10          	sub    $0x10,%rax
  40963e:	48 b9 05 04 04 04 04 	movabs $0x404040404040405,%rcx
  409645:	04 04 04 
  409648:	48 89 08             	mov    %rcx,(%rax)
  40964b:	48 c7 84 24 38 01 00 	movq   $0x4,0x138(%rsp)
  409652:	00 04 00 00 00 
  409657:	48 8b 84 24 50 01 00 	mov    0x150(%rsp),%rax
  40965e:	00 
  40965f:	48 8b 8c 24 38 01 00 	mov    0x138(%rsp),%rcx
  409666:	00 
  409667:	ba 01 00 00 00       	mov    $0x1,%edx
  40966c:	d3 e2                	shl    %cl,%edx
  40966e:	89 d1                	mov    %edx,%ecx
  409670:	48 63 c9             	movslq %ecx,%rcx
  409673:	48 29 c8             	sub    %rcx,%rax
  409676:	48 3b 84 24 58 01 00 	cmp    0x158(%rsp),%rax
  40967d:	00 
  40967e:	0f 83 1b 00 00 00    	jae    40969f <calloc+0x125f>
  409684:	c7 84 24 44 01 00 00 	movl   $0x3,0x144(%rsp)
  40968b:	03 00 00 00 
  40968f:	c7 84 24 44 01 00 00 	movl   $0x0,0x144(%rsp)
  409696:	00 00 00 00 
  40969a:	e9 c5 00 00 00       	jmpq   409764 <calloc+0x1324>
  40969f:	48 8b 84 24 50 01 00 	mov    0x150(%rsp),%rax
  4096a6:	00 
  4096a7:	48 8b 8c 24 38 01 00 	mov    0x138(%rsp),%rcx
  4096ae:	00 
  4096af:	48 83 c1 01          	add    $0x1,%rcx
  4096b3:	ba 01 00 00 00       	mov    $0x1,%edx
  4096b8:	d3 e2                	shl    %cl,%edx
  4096ba:	89 d1                	mov    %edx,%ecx
  4096bc:	48 63 c9             	movslq %ecx,%rcx
  4096bf:	48 29 c8             	sub    %rcx,%rax
  4096c2:	48 83 c0 01          	add    $0x1,%rax
  4096c6:	48 89 84 24 30 01 00 	mov    %rax,0x130(%rsp)
  4096cd:	00 
  4096ce:	48 8b 84 24 50 01 00 	mov    0x150(%rsp),%rax
  4096d5:	00 
  4096d6:	48 8b 8c 24 38 01 00 	mov    0x138(%rsp),%rcx
  4096dd:	00 
  4096de:	ba 01 00 00 00       	mov    $0x1,%edx
  4096e3:	d3 e2                	shl    %cl,%edx
  4096e5:	89 d1                	mov    %edx,%ecx
  4096e7:	48 63 c9             	movslq %ecx,%rcx
  4096ea:	48 29 c8             	sub    %rcx,%rax
  4096ed:	48 89 84 24 28 01 00 	mov    %rax,0x128(%rsp)
  4096f4:	00 
  4096f5:	48 8b 84 24 30 01 00 	mov    0x130(%rsp),%rax
  4096fc:	00 
  4096fd:	48 3b 84 24 58 01 00 	cmp    0x158(%rsp),%rax
  409704:	00 
  409705:	0f 83 10 00 00 00    	jae    40971b <calloc+0x12db>
  40970b:	48 8b 84 24 58 01 00 	mov    0x158(%rsp),%rax
  409712:	00 
  409713:	48 89 84 24 30 01 00 	mov    %rax,0x130(%rsp)
  40971a:	00 
  40971b:	48 8b bc 24 30 01 00 	mov    0x130(%rsp),%rdi
  409722:	00 
  409723:	48 8b 84 24 38 01 00 	mov    0x138(%rsp),%rax
  40972a:	00 
  40972b:	48 83 c0 01          	add    $0x1,%rax
  40972f:	48 8b 94 24 28 01 00 	mov    0x128(%rsp),%rdx
  409736:	00 
  409737:	48 2b 94 24 30 01 00 	sub    0x130(%rsp),%rdx
  40973e:	00 
  40973f:	48 83 c2 01          	add    $0x1,%rdx
  409743:	0f b6 f0             	movzbl %al,%esi
  409746:	e8 85 79 ff ff       	callq  4010d0 <memset@plt>
  40974b:	48 8b 84 24 38 01 00 	mov    0x138(%rsp),%rax
  409752:	00 
  409753:	48 83 c0 01          	add    $0x1,%rax
  409757:	48 89 84 24 38 01 00 	mov    %rax,0x138(%rsp)
  40975e:	00 
  40975f:	e9 f3 fe ff ff       	jmpq   409657 <calloc+0x1217>
  409764:	e9 35 00 00 00       	jmpq   40979e <calloc+0x135e>
  409769:	48 8b 84 24 20 01 00 	mov    0x120(%rsp),%rax
  409770:	00 
  409771:	48 c1 e8 03          	shr    $0x3,%rax
  409775:	48 05 00 80 ff 7f    	add    $0x7fff8000,%rax
  40977b:	48 89 84 24 f8 00 00 	mov    %rax,0xf8(%rsp)
  409782:	00 
  409783:	48 8b bc 24 f8 00 00 	mov    0xf8(%rsp),%rdi
  40978a:	00 
  40978b:	48 8b 94 24 18 01 00 	mov    0x118(%rsp),%rdx
  409792:	00 
  409793:	48 c1 ea 03          	shr    $0x3,%rdx
  409797:	31 f6                	xor    %esi,%esi
  409799:	e8 32 79 ff ff       	callq  4010d0 <memset@plt>
  40979e:	48 8b 44 24 70       	mov    0x70(%rsp),%rax
  4097a3:	48 83 e0 07          	and    $0x7,%rax
  4097a7:	48 83 f8 00          	cmp    $0x0,%rax
  4097ab:	0f 84 2e 00 00 00    	je     4097df <calloc+0x139f>
  4097b1:	48 8b 44 24 70       	mov    0x70(%rsp),%rax
  4097b6:	48 83 e0 07          	and    $0x7,%rax
  4097ba:	ba 08 00 00 00       	mov    $0x8,%edx
  4097bf:	48 29 c2             	sub    %rax,%rdx
  4097c2:	48 c1 e2 05          	shl    $0x5,%rdx
  4097c6:	48 8b 44 24 60       	mov    0x60(%rsp),%rax
  4097cb:	48 c1 e8 03          	shr    $0x3,%rax
  4097cf:	0f b6 88 00 80 ff 7f 	movzbl 0x7fff8000(%rax),%ecx
  4097d6:	48 01 d1             	add    %rdx,%rcx
  4097d9:	88 88 00 80 ff 7f    	mov    %cl,0x7fff8000(%rax)
  4097df:	e9 00 00 00 00       	jmpq   4097e4 <calloc+0x13a4>
  4097e4:	e9 00 00 00 00       	jmpq   4097e9 <calloc+0x13a9>
  4097e9:	48 8b 44 24 20       	mov    0x20(%rsp),%rax
  4097ee:	48 81 c4 e8 01 00 00 	add    $0x1e8,%rsp
  4097f5:	c3                   	retq   
  4097f6:	66 2e 0f 1f 84 00 00 	nopw   %cs:0x0(%rax,%rax,1)
  4097fd:	00 00 00 

0000000000409800 <realloc>:
  409800:	48 81 ec b8 02 00 00 	sub    $0x2b8,%rsp
  409807:	48 89 7c 24 38       	mov    %rdi,0x38(%rsp)
  40980c:	48 89 74 24 30       	mov    %rsi,0x30(%rsp)
  409811:	48 8b 7c 24 38       	mov    0x38(%rsp),%rdi
  409816:	48 8b 74 24 30       	mov    0x30(%rsp),%rsi
  40981b:	e8 60 79 ff ff       	callq  401180 <__libc_realloc@plt>
  409820:	48 89 44 24 28       	mov    %rax,0x28(%rsp)
  409825:	48 8b 44 24 28       	mov    0x28(%rsp),%rax
  40982a:	48 3b 44 24 38       	cmp    0x38(%rsp),%rax
  40982f:	0f 84 f7 03 00 00    	je     409c2c <realloc+0x42c>
  409835:	48 8b 44 24 38       	mov    0x38(%rsp),%rax
  40983a:	48 89 44 24 50       	mov    %rax,0x50(%rsp)
  40983f:	48 8b 44 24 50       	mov    0x50(%rsp),%rax
  409844:	48 c1 e8 08          	shr    $0x8,%rax
  409848:	48 89 44 24 48       	mov    %rax,0x48(%rsp)
  40984d:	48 8b 04 25 10 82 61 	mov    0x618210,%rax
  409854:	00 
  409855:	48 8b 4c 24 48       	mov    0x48(%rsp),%rcx
  40985a:	80 3c 08 00          	cmpb   $0x0,(%rax,%rcx,1)
  40985e:	0f 85 0d 00 00 00    	jne    409871 <realloc+0x71>
  409864:	c7 44 24 44 01 00 00 	movl   $0x1,0x44(%rsp)
  40986b:	00 
  40986c:	e9 bb 03 00 00       	jmpq   409c2c <realloc+0x42c>
  409871:	48 8b 44 24 50       	mov    0x50(%rsp),%rax
  409876:	48 c1 e8 03          	shr    $0x3,%rax
  40987a:	8a 80 00 80 ff 7f    	mov    0x7fff8000(%rax),%al
  409880:	88 44 24 43          	mov    %al,0x43(%rsp)
  409884:	0f b6 44 24 43       	movzbl 0x43(%rsp),%eax
  409889:	83 f8 00             	cmp    $0x0,%eax
  40988c:	0f 85 a0 02 00 00    	jne    409b32 <realloc+0x332>
  409892:	48 8b 4c 24 50       	mov    0x50(%rsp),%rcx
  409897:	48 8b 04 25 18 82 61 	mov    0x618218,%rax
  40989e:	00 
  40989f:	48 8b 54 24 48       	mov    0x48(%rsp),%rdx
  4098a4:	48 63 04 90          	movslq (%rax,%rdx,4),%rax
  4098a8:	48 89 8c 24 98 00 00 	mov    %rcx,0x98(%rsp)
  4098af:	00 
  4098b0:	48 89 84 24 90 00 00 	mov    %rax,0x90(%rsp)
  4098b7:	00 
  4098b8:	48 8b 84 24 98 00 00 	mov    0x98(%rsp),%rax
  4098bf:	00 
  4098c0:	48 89 84 24 88 00 00 	mov    %rax,0x88(%rsp)
  4098c7:	00 
  4098c8:	48 8b 84 24 88 00 00 	mov    0x88(%rsp),%rax
  4098cf:	00 
  4098d0:	48 03 84 24 90 00 00 	add    0x90(%rsp),%rax
  4098d7:	00 
  4098d8:	48 89 84 24 80 00 00 	mov    %rax,0x80(%rsp)
  4098df:	00 
  4098e0:	48 8b 84 24 88 00 00 	mov    0x88(%rsp),%rax
  4098e7:	00 
  4098e8:	48 c1 e8 08          	shr    $0x8,%rax
  4098ec:	48 89 44 24 78       	mov    %rax,0x78(%rsp)
  4098f1:	48 8b 44 24 78       	mov    0x78(%rsp),%rax
  4098f6:	48 c1 e0 08          	shl    $0x8,%rax
  4098fa:	48 89 44 24 70       	mov    %rax,0x70(%rsp)
  4098ff:	48 8b 84 24 80 00 00 	mov    0x80(%rsp),%rax
  409906:	00 
  409907:	48 c1 e8 08          	shr    $0x8,%rax
  40990b:	48 89 44 24 68       	mov    %rax,0x68(%rsp)
  409910:	48 8b 44 24 68       	mov    0x68(%rsp),%rax
  409915:	48 c1 e0 08          	shl    $0x8,%rax
  409919:	48 89 44 24 60       	mov    %rax,0x60(%rsp)
  40991e:	48 8b 44 24 78       	mov    0x78(%rsp),%rax
  409923:	48 3b 44 24 68       	cmp    0x68(%rsp),%rax
  409928:	0f 85 5d 00 00 00    	jne    40998b <realloc+0x18b>
  40992e:	48 8b 8c 24 98 00 00 	mov    0x98(%rsp),%rcx
  409935:	00 
  409936:	48 8b 84 24 90 00 00 	mov    0x90(%rsp),%rax
  40993d:	00 
  40993e:	48 89 8c 24 b0 00 00 	mov    %rcx,0xb0(%rsp)
  409945:	00 
  409946:	48 89 84 24 a8 00 00 	mov    %rax,0xa8(%rsp)
  40994d:	00 
  40994e:	48 8b 84 24 b0 00 00 	mov    0xb0(%rsp),%rax
  409955:	00 
  409956:	48 c1 e8 03          	shr    $0x3,%rax
  40995a:	48 05 00 80 ff 7f    	add    $0x7fff8000,%rax
  409960:	48 89 84 24 a0 00 00 	mov    %rax,0xa0(%rsp)
  409967:	00 
  409968:	48 8b bc 24 a0 00 00 	mov    0xa0(%rsp),%rdi
  40996f:	00 
  409970:	48 8b 94 24 a8 00 00 	mov    0xa8(%rsp),%rdx
  409977:	00 
  409978:	48 c1 ea 03          	shr    $0x3,%rdx
  40997c:	be ff 00 00 00       	mov    $0xff,%esi
  409981:	e8 4a 77 ff ff       	callq  4010d0 <memset@plt>
  409986:	e9 a2 01 00 00       	jmpq   409b2d <realloc+0x32d>
  40998b:	48 8b 44 24 78       	mov    0x78(%rsp),%rax
  409990:	48 89 44 24 58       	mov    %rax,0x58(%rsp)
  409995:	48 8b 44 24 58       	mov    0x58(%rsp),%rax
  40999a:	48 3b 44 24 68       	cmp    0x68(%rsp),%rax
  40999f:	0f 85 18 00 00 00    	jne    4099bd <realloc+0x1bd>
  4099a5:	48 8b 84 24 88 00 00 	mov    0x88(%rsp),%rax
  4099ac:	00 
  4099ad:	48 3b 44 24 70       	cmp    0x70(%rsp),%rax
  4099b2:	0f 85 a0 00 00 00    	jne    409a58 <realloc+0x258>
  4099b8:	e9 84 00 00 00       	jmpq   409a41 <realloc+0x241>
  4099bd:	48 8b 04 25 28 82 61 	mov    0x618228,%rax
  4099c4:	00 
  4099c5:	48 8b 4c 24 58       	mov    0x58(%rsp),%rcx
  4099ca:	80 3c 08 00          	cmpb   $0x0,(%rax,%rcx,1)
  4099ce:	0f 84 46 00 00 00    	je     409a1a <realloc+0x21a>
  4099d4:	48 8b 44 24 58       	mov    0x58(%rsp),%rax
  4099d9:	48 3b 44 24 78       	cmp    0x78(%rsp),%rax
  4099de:	0f 85 13 00 00 00    	jne    4099f7 <realloc+0x1f7>
  4099e4:	48 8b 84 24 88 00 00 	mov    0x88(%rsp),%rax
  4099eb:	00 
  4099ec:	48 3b 44 24 70       	cmp    0x70(%rsp),%rax
  4099f1:	0f 85 23 00 00 00    	jne    409a1a <realloc+0x21a>
  4099f7:	48 8b 7c 24 58       	mov    0x58(%rsp),%rdi
  4099fc:	48 c1 e7 08          	shl    $0x8,%rdi
  409a00:	48 c1 ef 03          	shr    $0x3,%rdi
  409a04:	48 81 c7 00 80 ff 7f 	add    $0x7fff8000,%rdi
  409a0b:	be ff 00 00 00       	mov    $0xff,%esi
  409a10:	ba 20 00 00 00       	mov    $0x20,%edx
  409a15:	e8 b6 76 ff ff       	callq  4010d0 <memset@plt>
  409a1a:	48 8b 04 25 20 82 61 	mov    0x618220,%rax
  409a21:	00 
  409a22:	48 8b 4c 24 58       	mov    0x58(%rsp),%rcx
  409a27:	c7 04 88 00 00 00 00 	movl   $0x0,(%rax,%rcx,4)
  409a2e:	48 8b 44 24 58       	mov    0x58(%rsp),%rax
  409a33:	48 83 c0 01          	add    $0x1,%rax
  409a37:	48 89 44 24 58       	mov    %rax,0x58(%rsp)
  409a3c:	e9 54 ff ff ff       	jmpq   409995 <realloc+0x195>
  409a41:	48 8b 04 25 28 82 61 	mov    0x618228,%rax
  409a48:	00 
  409a49:	48 8b 4c 24 78       	mov    0x78(%rsp),%rcx
  409a4e:	80 3c 08 00          	cmpb   $0x0,(%rax,%rcx,1)
  409a52:	0f 84 63 00 00 00    	je     409abb <realloc+0x2bb>
  409a58:	48 8b 8c 24 88 00 00 	mov    0x88(%rsp),%rcx
  409a5f:	00 
  409a60:	48 8b 44 24 70       	mov    0x70(%rsp),%rax
  409a65:	48 2b 84 24 88 00 00 	sub    0x88(%rsp),%rax
  409a6c:	00 
  409a6d:	48 05 00 01 00 00    	add    $0x100,%rax
  409a73:	48 89 8c 24 e0 00 00 	mov    %rcx,0xe0(%rsp)
  409a7a:	00 
  409a7b:	48 89 84 24 d8 00 00 	mov    %rax,0xd8(%rsp)
  409a82:	00 
  409a83:	48 8b 84 24 e0 00 00 	mov    0xe0(%rsp),%rax
  409a8a:	00 
  409a8b:	48 c1 e8 03          	shr    $0x3,%rax
  409a8f:	48 05 00 80 ff 7f    	add    $0x7fff8000,%rax
  409a95:	48 89 84 24 d0 00 00 	mov    %rax,0xd0(%rsp)
  409a9c:	00 
  409a9d:	48 8b bc 24 d0 00 00 	mov    0xd0(%rsp),%rdi
  409aa4:	00 
  409aa5:	48 8b 94 24 d8 00 00 	mov    0xd8(%rsp),%rdx
  409aac:	00 
  409aad:	48 c1 ea 03          	shr    $0x3,%rdx
  409ab1:	be ff 00 00 00       	mov    $0xff,%esi
  409ab6:	e8 15 76 ff ff       	callq  4010d0 <memset@plt>
  409abb:	48 8b 84 24 80 00 00 	mov    0x80(%rsp),%rax
  409ac2:	00 
  409ac3:	48 3b 44 24 60       	cmp    0x60(%rsp),%rax
  409ac8:	0f 84 5a 00 00 00    	je     409b28 <realloc+0x328>
  409ace:	48 8b 4c 24 60       	mov    0x60(%rsp),%rcx
  409ad3:	48 8b 84 24 80 00 00 	mov    0x80(%rsp),%rax
  409ada:	00 
  409adb:	48 2b 44 24 60       	sub    0x60(%rsp),%rax
  409ae0:	48 89 8c 24 c8 00 00 	mov    %rcx,0xc8(%rsp)
  409ae7:	00 
  409ae8:	48 89 84 24 c0 00 00 	mov    %rax,0xc0(%rsp)
  409aef:	00 
  409af0:	48 8b 84 24 c8 00 00 	mov    0xc8(%rsp),%rax
  409af7:	00 
  409af8:	48 c1 e8 03          	shr    $0x3,%rax
  409afc:	48 05 00 80 ff 7f    	add    $0x7fff8000,%rax
  409b02:	48 89 84 24 b8 00 00 	mov    %rax,0xb8(%rsp)
  409b09:	00 
  409b0a:	48 8b bc 24 b8 00 00 	mov    0xb8(%rsp),%rdi
  409b11:	00 
  409b12:	48 8b 94 24 c0 00 00 	mov    0xc0(%rsp),%rdx
  409b19:	00 
  409b1a:	48 c1 ea 03          	shr    $0x3,%rdx
  409b1e:	be ff 00 00 00       	mov    $0xff,%esi
  409b23:	e8 a8 75 ff ff       	callq  4010d0 <memset@plt>
  409b28:	e9 00 00 00 00       	jmpq   409b2d <realloc+0x32d>
  409b2d:	e9 f2 00 00 00       	jmpq   409c24 <realloc+0x424>
  409b32:	48 8b 44 24 50       	mov    0x50(%rsp),%rax
  409b37:	48 89 84 24 00 01 00 	mov    %rax,0x100(%rsp)
  409b3e:	00 
  409b3f:	48 8b 84 24 00 01 00 	mov    0x100(%rsp),%rax
  409b46:	00 
  409b47:	48 c1 e8 03          	shr    $0x3,%rax
  409b4b:	48 05 00 80 ff 7f    	add    $0x7fff8000,%rax
  409b51:	48 89 84 24 f8 00 00 	mov    %rax,0xf8(%rsp)
  409b58:	00 
  409b59:	48 8b 84 24 f8 00 00 	mov    0xf8(%rsp),%rax
  409b60:	00 
  409b61:	48 89 84 24 f0 00 00 	mov    %rax,0xf0(%rsp)
  409b68:	00 
  409b69:	48 8b 84 24 f0 00 00 	mov    0xf0(%rsp),%rax
  409b70:	00 
  409b71:	0f b6 00             	movzbl (%rax),%eax
  409b74:	83 e8 01             	sub    $0x1,%eax
  409b77:	88 84 24 ef 00 00 00 	mov    %al,0xef(%rsp)
  409b7e:	0f b6 8c 24 ef 00 00 	movzbl 0xef(%rsp),%ecx
  409b85:	00 
  409b86:	83 e1 1f             	and    $0x1f,%ecx
  409b89:	31 c0                	xor    %eax,%eax
  409b8b:	83 f9 00             	cmp    $0x0,%ecx
  409b8e:	88 44 24 27          	mov    %al,0x27(%rsp)
  409b92:	0f 84 14 00 00 00    	je     409bac <realloc+0x3ac>
  409b98:	0f b6 84 24 ef 00 00 	movzbl 0xef(%rsp),%eax
  409b9f:	00 
  409ba0:	3d ff 00 00 00       	cmp    $0xff,%eax
  409ba5:	0f 95 c0             	setne  %al
  409ba8:	88 44 24 27          	mov    %al,0x27(%rsp)
  409bac:	8a 44 24 27          	mov    0x27(%rsp),%al
  409bb0:	a8 01                	test   $0x1,%al
  409bb2:	0f 85 05 00 00 00    	jne    409bbd <realloc+0x3bd>
  409bb8:	e9 41 00 00 00       	jmpq   409bfe <realloc+0x3fe>
  409bbd:	0f b6 8c 24 ef 00 00 	movzbl 0xef(%rsp),%ecx
  409bc4:	00 
  409bc5:	83 e1 1f             	and    $0x1f,%ecx
  409bc8:	b8 01 00 00 00       	mov    $0x1,%eax
  409bcd:	d3 e0                	shl    %cl,%eax
  409bcf:	83 e8 01             	sub    $0x1,%eax
  409bd2:	48 98                	cltq   
  409bd4:	48 03 84 24 f0 00 00 	add    0xf0(%rsp),%rax
  409bdb:	00 
  409bdc:	48 89 84 24 f0 00 00 	mov    %rax,0xf0(%rsp)
  409be3:	00 
  409be4:	48 8b 84 24 f0 00 00 	mov    0xf0(%rsp),%rax
  409beb:	00 
  409bec:	0f b6 00             	movzbl (%rax),%eax
  409bef:	83 e8 01             	sub    $0x1,%eax
  409bf2:	88 84 24 ef 00 00 00 	mov    %al,0xef(%rsp)
  409bf9:	e9 80 ff ff ff       	jmpq   409b7e <realloc+0x37e>
  409bfe:	48 8b bc 24 f8 00 00 	mov    0xf8(%rsp),%rdi
  409c05:	00 
  409c06:	48 8b 94 24 f0 00 00 	mov    0xf0(%rsp),%rdx
  409c0d:	00 
  409c0e:	48 2b 94 24 f8 00 00 	sub    0xf8(%rsp),%rdx
  409c15:	00 
  409c16:	48 83 c2 01          	add    $0x1,%rdx
  409c1a:	be ff 00 00 00       	mov    $0xff,%esi
  409c1f:	e8 ac 74 ff ff       	callq  4010d0 <memset@plt>
  409c24:	c7 44 24 44 00 00 00 	movl   $0x0,0x44(%rsp)
  409c2b:	00 
  409c2c:	48 83 7c 24 28 00    	cmpq   $0x0,0x28(%rsp)
  409c32:	0f 84 0b 14 00 00    	je     40b043 <realloc+0x1843>
  409c38:	48 8b 4c 24 28       	mov    0x28(%rsp),%rcx
  409c3d:	48 8b 44 24 30       	mov    0x30(%rsp),%rax
  409c42:	48 89 8c 24 48 01 00 	mov    %rcx,0x148(%rsp)
  409c49:	00 
  409c4a:	48 89 84 24 40 01 00 	mov    %rax,0x140(%rsp)
  409c51:	00 
  409c52:	48 8b 84 24 48 01 00 	mov    0x148(%rsp),%rax
  409c59:	00 
  409c5a:	48 89 84 24 38 01 00 	mov    %rax,0x138(%rsp)
  409c61:	00 
  409c62:	48 8b 84 24 38 01 00 	mov    0x138(%rsp),%rax
  409c69:	00 
  409c6a:	48 03 84 24 40 01 00 	add    0x140(%rsp),%rax
  409c71:	00 
  409c72:	48 89 84 24 30 01 00 	mov    %rax,0x130(%rsp)
  409c79:	00 
  409c7a:	48 8b 84 24 38 01 00 	mov    0x138(%rsp),%rax
  409c81:	00 
  409c82:	48 c1 e8 08          	shr    $0x8,%rax
  409c86:	48 89 84 24 28 01 00 	mov    %rax,0x128(%rsp)
  409c8d:	00 
  409c8e:	48 8b 84 24 28 01 00 	mov    0x128(%rsp),%rax
  409c95:	00 
  409c96:	48 c1 e0 08          	shl    $0x8,%rax
  409c9a:	48 89 84 24 20 01 00 	mov    %rax,0x120(%rsp)
  409ca1:	00 
  409ca2:	48 8b 84 24 30 01 00 	mov    0x130(%rsp),%rax
  409ca9:	00 
  409caa:	48 c1 e8 08          	shr    $0x8,%rax
  409cae:	48 89 84 24 18 01 00 	mov    %rax,0x118(%rsp)
  409cb5:	00 
  409cb6:	48 8b 84 24 18 01 00 	mov    0x118(%rsp),%rax
  409cbd:	00 
  409cbe:	48 c1 e0 08          	shl    $0x8,%rax
  409cc2:	48 89 84 24 10 01 00 	mov    %rax,0x110(%rsp)
  409cc9:	00 
  409cca:	48 8b 84 24 28 01 00 	mov    0x128(%rsp),%rax
  409cd1:	00 
  409cd2:	48 3b 84 24 18 01 00 	cmp    0x118(%rsp),%rax
  409cd9:	00 
  409cda:	0f 85 28 06 00 00    	jne    40a308 <realloc+0xb08>
  409ce0:	48 8b 8c 24 48 01 00 	mov    0x148(%rsp),%rcx
  409ce7:	00 
  409ce8:	48 8b 84 24 40 01 00 	mov    0x140(%rsp),%rax
  409cef:	00 
  409cf0:	48 89 8c 24 78 01 00 	mov    %rcx,0x178(%rsp)
  409cf7:	00 
  409cf8:	48 89 84 24 70 01 00 	mov    %rax,0x170(%rsp)
  409cff:	00 
  409d00:	c6 84 24 6f 01 00 00 	movb   $0x0,0x16f(%rsp)
  409d07:	00 
  409d08:	48 8b 84 24 78 01 00 	mov    0x178(%rsp),%rax
  409d0f:	00 
  409d10:	48 c1 e8 08          	shr    $0x8,%rax
  409d14:	48 89 84 24 60 01 00 	mov    %rax,0x160(%rsp)
  409d1b:	00 
  409d1c:	48 8b 04 25 08 82 61 	mov    0x618208,%rax
  409d23:	00 
  409d24:	48 8b 8c 24 60 01 00 	mov    0x160(%rsp),%rcx
  409d2b:	00 
  409d2c:	80 3c 08 00          	cmpb   $0x0,(%rax,%rcx,1)
  409d30:	0f 85 49 00 00 00    	jne    409d7f <realloc+0x57f>
  409d36:	48 8b 04 25 08 82 61 	mov    0x618208,%rax
  409d3d:	00 
  409d3e:	48 8b 8c 24 60 01 00 	mov    0x160(%rsp),%rcx
  409d45:	00 
  409d46:	c6 04 08 01          	movb   $0x1,(%rax,%rcx,1)
  409d4a:	48 8b 84 24 60 01 00 	mov    0x160(%rsp),%rax
  409d51:	00 
  409d52:	48 c1 e0 08          	shl    $0x8,%rax
  409d56:	48 c1 e8 03          	shr    $0x3,%rax
  409d5a:	48 05 00 80 ff 7f    	add    $0x7fff8000,%rax
  409d60:	48 89 84 24 58 01 00 	mov    %rax,0x158(%rsp)
  409d67:	00 
  409d68:	48 8b bc 24 58 01 00 	mov    0x158(%rsp),%rdi
  409d6f:	00 
  409d70:	be ff 00 00 00       	mov    $0xff,%esi
  409d75:	ba 20 00 00 00       	mov    $0x20,%edx
  409d7a:	e8 51 73 ff ff       	callq  4010d0 <memset@plt>
  409d7f:	80 bc 24 6f 01 00 00 	cmpb   $0x0,0x16f(%rsp)
  409d86:	00 
  409d87:	0f 85 f7 04 00 00    	jne    40a284 <realloc+0xa84>
  409d8d:	48 8b 8c 24 78 01 00 	mov    0x178(%rsp),%rcx
  409d94:	00 
  409d95:	48 8b 84 24 70 01 00 	mov    0x170(%rsp),%rax
  409d9c:	00 
  409d9d:	48 89 8c 24 c0 01 00 	mov    %rcx,0x1c0(%rsp)
  409da4:	00 
  409da5:	48 89 84 24 b8 01 00 	mov    %rax,0x1b8(%rsp)
  409dac:	00 
  409dad:	48 8b 84 24 c0 01 00 	mov    0x1c0(%rsp),%rax
  409db4:	00 
  409db5:	48 c1 e8 03          	shr    $0x3,%rax
  409db9:	48 05 00 80 ff 7f    	add    $0x7fff8000,%rax
  409dbf:	48 89 84 24 b0 01 00 	mov    %rax,0x1b0(%rsp)
  409dc6:	00 
  409dc7:	48 8b 84 24 c0 01 00 	mov    0x1c0(%rsp),%rax
  409dce:	00 
  409dcf:	48 03 84 24 b8 01 00 	add    0x1b8(%rsp),%rax
  409dd6:	00 
  409dd7:	48 83 e8 01          	sub    $0x1,%rax
  409ddb:	48 c1 e8 03          	shr    $0x3,%rax
  409ddf:	48 05 00 80 ff 7f    	add    $0x7fff8000,%rax
  409de5:	48 83 c0 01          	add    $0x1,%rax
  409de9:	48 89 84 24 a8 01 00 	mov    %rax,0x1a8(%rsp)
  409df0:	00 
  409df1:	48 81 bc 24 b8 01 00 	cmpq   $0x80,0x1b8(%rsp)
  409df8:	00 80 00 00 00 
  409dfd:	0f 87 31 03 00 00    	ja     40a134 <realloc+0x934>
  409e03:	48 8b 84 24 b8 01 00 	mov    0x1b8(%rsp),%rax
  409e0a:	00 
  409e0b:	48 83 c0 07          	add    $0x7,%rax
  409e0f:	48 c1 e8 03          	shr    $0x3,%rax
  409e13:	48 89 84 24 a0 01 00 	mov    %rax,0x1a0(%rsp)
  409e1a:	00 
  409e1b:	48 8b 84 24 a0 01 00 	mov    0x1a0(%rsp),%rax
  409e22:	00 
  409e23:	48 83 c0 ff          	add    $0xffffffffffffffff,%rax
  409e27:	48 89 44 24 18       	mov    %rax,0x18(%rsp)
  409e2c:	48 83 e8 0f          	sub    $0xf,%rax
  409e30:	0f 87 e9 02 00 00    	ja     40a11f <realloc+0x91f>
  409e36:	48 8b 44 24 18       	mov    0x18(%rsp),%rax
  409e3b:	48 8b 04 c5 68 51 41 	mov    0x415168(,%rax,8),%rax
  409e42:	00 
  409e43:	ff e0                	jmpq   *%rax
  409e45:	48 8b 84 24 a8 01 00 	mov    0x1a8(%rsp),%rax
  409e4c:	00 
  409e4d:	48 83 e8 01          	sub    $0x1,%rax
  409e51:	c6 00 01             	movb   $0x1,(%rax)
  409e54:	e9 cb 02 00 00       	jmpq   40a124 <realloc+0x924>
  409e59:	48 8b 84 24 a8 01 00 	mov    0x1a8(%rsp),%rax
  409e60:	00 
  409e61:	48 83 e8 02          	sub    $0x2,%rax
  409e65:	66 c7 00 02 01       	movw   $0x102,(%rax)
  409e6a:	e9 b5 02 00 00       	jmpq   40a124 <realloc+0x924>
  409e6f:	48 8b 84 24 a8 01 00 	mov    0x1a8(%rsp),%rax
  409e76:	00 
  409e77:	48 83 e8 01          	sub    $0x1,%rax
  409e7b:	c6 00 01             	movb   $0x1,(%rax)
  409e7e:	48 8b 84 24 a8 01 00 	mov    0x1a8(%rsp),%rax
  409e85:	00 
  409e86:	48 83 e8 03          	sub    $0x3,%rax
  409e8a:	66 c7 00 02 02       	movw   $0x202,(%rax)
  409e8f:	e9 90 02 00 00       	jmpq   40a124 <realloc+0x924>
  409e94:	48 8b 84 24 a8 01 00 	mov    0x1a8(%rsp),%rax
  409e9b:	00 
  409e9c:	48 83 e8 04          	sub    $0x4,%rax
  409ea0:	c7 00 03 02 02 01    	movl   $0x1020203,(%rax)
  409ea6:	e9 79 02 00 00       	jmpq   40a124 <realloc+0x924>
  409eab:	48 8b 84 24 a8 01 00 	mov    0x1a8(%rsp),%rax
  409eb2:	00 
  409eb3:	48 83 e8 01          	sub    $0x1,%rax
  409eb7:	c6 00 01             	movb   $0x1,(%rax)
  409eba:	48 8b 84 24 a8 01 00 	mov    0x1a8(%rsp),%rax
  409ec1:	00 
  409ec2:	48 83 e8 05          	sub    $0x5,%rax
  409ec6:	c7 00 03 03 02 02    	movl   $0x2020303,(%rax)
  409ecc:	e9 53 02 00 00       	jmpq   40a124 <realloc+0x924>
  409ed1:	48 8b 84 24 a8 01 00 	mov    0x1a8(%rsp),%rax
  409ed8:	00 
  409ed9:	48 83 e8 02          	sub    $0x2,%rax
  409edd:	66 c7 00 02 01       	movw   $0x102,(%rax)
  409ee2:	48 8b 84 24 a8 01 00 	mov    0x1a8(%rsp),%rax
  409ee9:	00 
  409eea:	48 83 e8 06          	sub    $0x6,%rax
  409eee:	c7 00 03 03 03 02    	movl   $0x2030303,(%rax)
  409ef4:	e9 2b 02 00 00       	jmpq   40a124 <realloc+0x924>
  409ef9:	48 8b 84 24 a8 01 00 	mov    0x1a8(%rsp),%rax
  409f00:	00 
  409f01:	48 83 e8 01          	sub    $0x1,%rax
  409f05:	c6 00 01             	movb   $0x1,(%rax)
  409f08:	48 8b 84 24 a8 01 00 	mov    0x1a8(%rsp),%rax
  409f0f:	00 
  409f10:	48 83 e8 03          	sub    $0x3,%rax
  409f14:	66 c7 00 02 02       	movw   $0x202,(%rax)
  409f19:	48 8b 84 24 a8 01 00 	mov    0x1a8(%rsp),%rax
  409f20:	00 
  409f21:	48 83 e8 07          	sub    $0x7,%rax
  409f25:	c7 00 03 03 03 03    	movl   $0x3030303,(%rax)
  409f2b:	e9 f4 01 00 00       	jmpq   40a124 <realloc+0x924>
  409f30:	48 8b 84 24 a8 01 00 	mov    0x1a8(%rsp),%rax
  409f37:	00 
  409f38:	48 83 e8 08          	sub    $0x8,%rax
  409f3c:	48 b9 04 03 03 03 03 	movabs $0x102020303030304,%rcx
  409f43:	02 02 01 
  409f46:	48 89 08             	mov    %rcx,(%rax)
  409f49:	e9 d6 01 00 00       	jmpq   40a124 <realloc+0x924>
  409f4e:	48 8b 84 24 a8 01 00 	mov    0x1a8(%rsp),%rax
  409f55:	00 
  409f56:	48 83 e8 01          	sub    $0x1,%rax
  409f5a:	c6 00 01             	movb   $0x1,(%rax)
  409f5d:	48 8b 84 24 a8 01 00 	mov    0x1a8(%rsp),%rax
  409f64:	00 
  409f65:	48 83 e8 09          	sub    $0x9,%rax
  409f69:	48 b9 04 04 03 03 03 	movabs $0x202030303030404,%rcx
  409f70:	03 02 02 
  409f73:	48 89 08             	mov    %rcx,(%rax)
  409f76:	e9 a9 01 00 00       	jmpq   40a124 <realloc+0x924>
  409f7b:	48 8b 84 24 a8 01 00 	mov    0x1a8(%rsp),%rax
  409f82:	00 
  409f83:	48 83 e8 02          	sub    $0x2,%rax
  409f87:	66 c7 00 02 01       	movw   $0x102,(%rax)
  409f8c:	48 8b 84 24 a8 01 00 	mov    0x1a8(%rsp),%rax
  409f93:	00 
  409f94:	48 83 e8 0a          	sub    $0xa,%rax
  409f98:	48 b9 04 04 04 03 03 	movabs $0x203030303040404,%rcx
  409f9f:	03 03 02 
  409fa2:	48 89 08             	mov    %rcx,(%rax)
  409fa5:	e9 7a 01 00 00       	jmpq   40a124 <realloc+0x924>
  409faa:	48 8b 84 24 a8 01 00 	mov    0x1a8(%rsp),%rax
  409fb1:	00 
  409fb2:	48 83 e8 01          	sub    $0x1,%rax
  409fb6:	c6 00 01             	movb   $0x1,(%rax)
  409fb9:	48 8b 84 24 a8 01 00 	mov    0x1a8(%rsp),%rax
  409fc0:	00 
  409fc1:	48 83 e8 03          	sub    $0x3,%rax
  409fc5:	66 c7 00 02 02       	movw   $0x202,(%rax)
  409fca:	48 8b 84 24 a8 01 00 	mov    0x1a8(%rsp),%rax
  409fd1:	00 
  409fd2:	48 83 e8 0b          	sub    $0xb,%rax
  409fd6:	48 b9 04 04 04 04 03 	movabs $0x303030304040404,%rcx
  409fdd:	03 03 03 
  409fe0:	48 89 08             	mov    %rcx,(%rax)
  409fe3:	e9 3c 01 00 00       	jmpq   40a124 <realloc+0x924>
  409fe8:	48 8b 84 24 a8 01 00 	mov    0x1a8(%rsp),%rax
  409fef:	00 
  409ff0:	48 83 e8 04          	sub    $0x4,%rax
  409ff4:	c7 00 03 02 02 01    	movl   $0x1020203,(%rax)
  409ffa:	48 8b 84 24 a8 01 00 	mov    0x1a8(%rsp),%rax
  40a001:	00 
  40a002:	48 83 e8 0c          	sub    $0xc,%rax
  40a006:	48 b9 04 04 04 04 04 	movabs $0x303030404040404,%rcx
  40a00d:	03 03 03 
  40a010:	48 89 08             	mov    %rcx,(%rax)
  40a013:	e9 0c 01 00 00       	jmpq   40a124 <realloc+0x924>
  40a018:	48 8b 84 24 a8 01 00 	mov    0x1a8(%rsp),%rax
  40a01f:	00 
  40a020:	48 83 e8 01          	sub    $0x1,%rax
  40a024:	c6 00 01             	movb   $0x1,(%rax)
  40a027:	48 8b 84 24 a8 01 00 	mov    0x1a8(%rsp),%rax
  40a02e:	00 
  40a02f:	48 83 e8 05          	sub    $0x5,%rax
  40a033:	c7 00 03 03 02 02    	movl   $0x2020303,(%rax)
  40a039:	48 8b 84 24 a8 01 00 	mov    0x1a8(%rsp),%rax
  40a040:	00 
  40a041:	48 83 e8 0d          	sub    $0xd,%rax
  40a045:	48 b9 04 04 04 04 04 	movabs $0x303040404040404,%rcx
  40a04c:	04 03 03 
  40a04f:	48 89 08             	mov    %rcx,(%rax)
  40a052:	e9 cd 00 00 00       	jmpq   40a124 <realloc+0x924>
  40a057:	48 8b 84 24 a8 01 00 	mov    0x1a8(%rsp),%rax
  40a05e:	00 
  40a05f:	48 83 e8 02          	sub    $0x2,%rax
  40a063:	66 c7 00 02 01       	movw   $0x102,(%rax)
  40a068:	48 8b 84 24 a8 01 00 	mov    0x1a8(%rsp),%rax
  40a06f:	00 
  40a070:	48 83 e8 06          	sub    $0x6,%rax
  40a074:	c7 00 03 03 03 02    	movl   $0x2030303,(%rax)
  40a07a:	48 8b 84 24 a8 01 00 	mov    0x1a8(%rsp),%rax
  40a081:	00 
  40a082:	48 83 e8 0e          	sub    $0xe,%rax
  40a086:	48 b9 04 04 04 04 04 	movabs $0x304040404040404,%rcx
  40a08d:	04 04 03 
  40a090:	48 89 08             	mov    %rcx,(%rax)
  40a093:	e9 8c 00 00 00       	jmpq   40a124 <realloc+0x924>
  40a098:	48 8b 84 24 a8 01 00 	mov    0x1a8(%rsp),%rax
  40a09f:	00 
  40a0a0:	48 83 e8 01          	sub    $0x1,%rax
  40a0a4:	c6 00 01             	movb   $0x1,(%rax)
  40a0a7:	48 8b 84 24 a8 01 00 	mov    0x1a8(%rsp),%rax
  40a0ae:	00 
  40a0af:	48 83 e8 03          	sub    $0x3,%rax
  40a0b3:	66 c7 00 02 02       	movw   $0x202,(%rax)
  40a0b8:	48 8b 84 24 a8 01 00 	mov    0x1a8(%rsp),%rax
  40a0bf:	00 
  40a0c0:	48 83 e8 07          	sub    $0x7,%rax
  40a0c4:	c7 00 03 03 03 03    	movl   $0x3030303,(%rax)
  40a0ca:	48 8b 84 24 a8 01 00 	mov    0x1a8(%rsp),%rax
  40a0d1:	00 
  40a0d2:	48 83 e8 0f          	sub    $0xf,%rax
  40a0d6:	48 b9 04 04 04 04 04 	movabs $0x404040404040404,%rcx
  40a0dd:	04 04 04 
  40a0e0:	48 89 08             	mov    %rcx,(%rax)
  40a0e3:	e9 3c 00 00 00       	jmpq   40a124 <realloc+0x924>
  40a0e8:	48 8b 84 24 a8 01 00 	mov    0x1a8(%rsp),%rax
  40a0ef:	00 
  40a0f0:	48 83 e8 08          	sub    $0x8,%rax
  40a0f4:	48 b9 04 03 03 03 03 	movabs $0x102020303030304,%rcx
  40a0fb:	02 02 01 
  40a0fe:	48 89 08             	mov    %rcx,(%rax)
  40a101:	48 8b 84 24 a8 01 00 	mov    0x1a8(%rsp),%rax
  40a108:	00 
  40a109:	48 83 e8 10          	sub    $0x10,%rax
  40a10d:	48 b9 05 04 04 04 04 	movabs $0x404040404040405,%rcx
  40a114:	04 04 04 
  40a117:	48 89 08             	mov    %rcx,(%rax)
  40a11a:	e9 05 00 00 00       	jmpq   40a124 <realloc+0x924>
  40a11f:	e9 00 00 00 00       	jmpq   40a124 <realloc+0x924>
  40a124:	c7 84 24 9c 01 00 00 	movl   $0x1,0x19c(%rsp)
  40a12b:	01 00 00 00 
  40a12f:	e9 4b 01 00 00       	jmpq   40a27f <realloc+0xa7f>
  40a134:	48 8b 84 24 a8 01 00 	mov    0x1a8(%rsp),%rax
  40a13b:	00 
  40a13c:	48 83 e8 08          	sub    $0x8,%rax
  40a140:	48 b9 04 03 03 03 03 	movabs $0x102020303030304,%rcx
  40a147:	02 02 01 
  40a14a:	48 89 08             	mov    %rcx,(%rax)
  40a14d:	48 8b 84 24 a8 01 00 	mov    0x1a8(%rsp),%rax
  40a154:	00 
  40a155:	48 83 e8 10          	sub    $0x10,%rax
  40a159:	48 b9 05 04 04 04 04 	movabs $0x404040404040405,%rcx
  40a160:	04 04 04 
  40a163:	48 89 08             	mov    %rcx,(%rax)
  40a166:	48 c7 84 24 90 01 00 	movq   $0x4,0x190(%rsp)
  40a16d:	00 04 00 00 00 
  40a172:	48 8b 84 24 a8 01 00 	mov    0x1a8(%rsp),%rax
  40a179:	00 
  40a17a:	48 8b 8c 24 90 01 00 	mov    0x190(%rsp),%rcx
  40a181:	00 
  40a182:	ba 01 00 00 00       	mov    $0x1,%edx
  40a187:	d3 e2                	shl    %cl,%edx
  40a189:	89 d1                	mov    %edx,%ecx
  40a18b:	48 63 c9             	movslq %ecx,%rcx
  40a18e:	48 29 c8             	sub    %rcx,%rax
  40a191:	48 3b 84 24 b0 01 00 	cmp    0x1b0(%rsp),%rax
  40a198:	00 
  40a199:	0f 83 1b 00 00 00    	jae    40a1ba <realloc+0x9ba>
  40a19f:	c7 84 24 9c 01 00 00 	movl   $0x3,0x19c(%rsp)
  40a1a6:	03 00 00 00 
  40a1aa:	c7 84 24 9c 01 00 00 	movl   $0x0,0x19c(%rsp)
  40a1b1:	00 00 00 00 
  40a1b5:	e9 c5 00 00 00       	jmpq   40a27f <realloc+0xa7f>
  40a1ba:	48 8b 84 24 a8 01 00 	mov    0x1a8(%rsp),%rax
  40a1c1:	00 
  40a1c2:	48 8b 8c 24 90 01 00 	mov    0x190(%rsp),%rcx
  40a1c9:	00 
  40a1ca:	48 83 c1 01          	add    $0x1,%rcx
  40a1ce:	ba 01 00 00 00       	mov    $0x1,%edx
  40a1d3:	d3 e2                	shl    %cl,%edx
  40a1d5:	89 d1                	mov    %edx,%ecx
  40a1d7:	48 63 c9             	movslq %ecx,%rcx
  40a1da:	48 29 c8             	sub    %rcx,%rax
  40a1dd:	48 83 c0 01          	add    $0x1,%rax
  40a1e1:	48 89 84 24 88 01 00 	mov    %rax,0x188(%rsp)
  40a1e8:	00 
  40a1e9:	48 8b 84 24 a8 01 00 	mov    0x1a8(%rsp),%rax
  40a1f0:	00 
  40a1f1:	48 8b 8c 24 90 01 00 	mov    0x190(%rsp),%rcx
  40a1f8:	00 
  40a1f9:	ba 01 00 00 00       	mov    $0x1,%edx
  40a1fe:	d3 e2                	shl    %cl,%edx
  40a200:	89 d1                	mov    %edx,%ecx
  40a202:	48 63 c9             	movslq %ecx,%rcx
  40a205:	48 29 c8             	sub    %rcx,%rax
  40a208:	48 89 84 24 80 01 00 	mov    %rax,0x180(%rsp)
  40a20f:	00 
  40a210:	48 8b 84 24 88 01 00 	mov    0x188(%rsp),%rax
  40a217:	00 
  40a218:	48 3b 84 24 b0 01 00 	cmp    0x1b0(%rsp),%rax
  40a21f:	00 
  40a220:	0f 83 10 00 00 00    	jae    40a236 <realloc+0xa36>
  40a226:	48 8b 84 24 b0 01 00 	mov    0x1b0(%rsp),%rax
  40a22d:	00 
  40a22e:	48 89 84 24 88 01 00 	mov    %rax,0x188(%rsp)
  40a235:	00 
  40a236:	48 8b bc 24 88 01 00 	mov    0x188(%rsp),%rdi
  40a23d:	00 
  40a23e:	48 8b 84 24 90 01 00 	mov    0x190(%rsp),%rax
  40a245:	00 
  40a246:	48 83 c0 01          	add    $0x1,%rax
  40a24a:	48 8b 94 24 80 01 00 	mov    0x180(%rsp),%rdx
  40a251:	00 
  40a252:	48 2b 94 24 88 01 00 	sub    0x188(%rsp),%rdx
  40a259:	00 
  40a25a:	48 83 c2 01          	add    $0x1,%rdx
  40a25e:	0f b6 f0             	movzbl %al,%esi
  40a261:	e8 6a 6e ff ff       	callq  4010d0 <memset@plt>
  40a266:	48 8b 84 24 90 01 00 	mov    0x190(%rsp),%rax
  40a26d:	00 
  40a26e:	48 83 c0 01          	add    $0x1,%rax
  40a272:	48 89 84 24 90 01 00 	mov    %rax,0x190(%rsp)
  40a279:	00 
  40a27a:	e9 f3 fe ff ff       	jmpq   40a172 <realloc+0x972>
  40a27f:	e9 35 00 00 00       	jmpq   40a2b9 <realloc+0xab9>
  40a284:	48 8b 84 24 78 01 00 	mov    0x178(%rsp),%rax
  40a28b:	00 
  40a28c:	48 c1 e8 03          	shr    $0x3,%rax
  40a290:	48 05 00 80 ff 7f    	add    $0x7fff8000,%rax
  40a296:	48 89 84 24 50 01 00 	mov    %rax,0x150(%rsp)
  40a29d:	00 
  40a29e:	48 8b bc 24 50 01 00 	mov    0x150(%rsp),%rdi
  40a2a5:	00 
  40a2a6:	48 8b 94 24 70 01 00 	mov    0x170(%rsp),%rdx
  40a2ad:	00 
  40a2ae:	48 c1 ea 03          	shr    $0x3,%rdx
  40a2b2:	31 f6                	xor    %esi,%esi
  40a2b4:	e8 17 6e ff ff       	callq  4010d0 <memset@plt>
  40a2b9:	48 8b 84 24 40 01 00 	mov    0x140(%rsp),%rax
  40a2c0:	00 
  40a2c1:	48 83 e0 07          	and    $0x7,%rax
  40a2c5:	48 83 f8 00          	cmp    $0x0,%rax
  40a2c9:	0f 84 34 00 00 00    	je     40a303 <realloc+0xb03>
  40a2cf:	48 8b 84 24 40 01 00 	mov    0x140(%rsp),%rax
  40a2d6:	00 
  40a2d7:	48 83 e0 07          	and    $0x7,%rax
  40a2db:	ba 08 00 00 00       	mov    $0x8,%edx
  40a2e0:	48 29 c2             	sub    %rax,%rdx
  40a2e3:	48 c1 e2 05          	shl    $0x5,%rdx
  40a2e7:	48 8b 84 24 30 01 00 	mov    0x130(%rsp),%rax
  40a2ee:	00 
  40a2ef:	48 c1 e8 03          	shr    $0x3,%rax
  40a2f3:	0f b6 88 00 80 ff 7f 	movzbl 0x7fff8000(%rax),%ecx
  40a2fa:	48 01 d1             	add    %rdx,%rcx
  40a2fd:	88 88 00 80 ff 7f    	mov    %cl,0x7fff8000(%rax)
  40a303:	e9 3b 0d 00 00       	jmpq   40b043 <realloc+0x1843>
  40a308:	48 8b 84 24 28 01 00 	mov    0x128(%rsp),%rax
  40a30f:	00 
  40a310:	48 89 84 24 08 01 00 	mov    %rax,0x108(%rsp)
  40a317:	00 
  40a318:	48 8b 84 24 08 01 00 	mov    0x108(%rsp),%rax
  40a31f:	00 
  40a320:	48 3b 84 24 18 01 00 	cmp    0x118(%rsp),%rax
  40a327:	00 
  40a328:	0f 85 1b 00 00 00    	jne    40a349 <realloc+0xb49>
  40a32e:	48 8b 84 24 38 01 00 	mov    0x138(%rsp),%rax
  40a335:	00 
  40a336:	48 3b 84 24 20 01 00 	cmp    0x120(%rsp),%rax
  40a33d:	00 
  40a33e:	0f 85 cd 00 00 00    	jne    40a411 <realloc+0xc11>
  40a344:	e9 ae 00 00 00       	jmpq   40a3f7 <realloc+0xbf7>
  40a349:	48 8b 04 25 00 82 61 	mov    0x618200,%rax
  40a350:	00 
  40a351:	48 8b 8c 24 08 01 00 	mov    0x108(%rsp),%rcx
  40a358:	00 
  40a359:	80 3c 08 00          	cmpb   $0x0,(%rax,%rcx,1)
  40a35d:	0f 84 4f 00 00 00    	je     40a3b2 <realloc+0xbb2>
  40a363:	48 8b 84 24 08 01 00 	mov    0x108(%rsp),%rax
  40a36a:	00 
  40a36b:	48 3b 84 24 28 01 00 	cmp    0x128(%rsp),%rax
  40a372:	00 
  40a373:	0f 85 16 00 00 00    	jne    40a38f <realloc+0xb8f>
  40a379:	48 8b 84 24 38 01 00 	mov    0x138(%rsp),%rax
  40a380:	00 
  40a381:	48 3b 84 24 20 01 00 	cmp    0x120(%rsp),%rax
  40a388:	00 
  40a389:	0f 85 23 00 00 00    	jne    40a3b2 <realloc+0xbb2>
  40a38f:	48 8b bc 24 08 01 00 	mov    0x108(%rsp),%rdi
  40a396:	00 
  40a397:	48 c1 e7 08          	shl    $0x8,%rdi
  40a39b:	48 c1 ef 03          	shr    $0x3,%rdi
  40a39f:	48 81 c7 00 80 ff 7f 	add    $0x7fff8000,%rdi
  40a3a6:	31 f6                	xor    %esi,%esi
  40a3a8:	ba 20 00 00 00       	mov    $0x20,%edx
  40a3ad:	e8 1e 6d ff ff       	callq  4010d0 <memset@plt>
  40a3b2:	48 8b 84 24 30 01 00 	mov    0x130(%rsp),%rax
  40a3b9:	00 
  40a3ba:	48 8b 8c 24 08 01 00 	mov    0x108(%rsp),%rcx
  40a3c1:	00 
  40a3c2:	48 c1 e1 08          	shl    $0x8,%rcx
  40a3c6:	48 29 c8             	sub    %rcx,%rax
  40a3c9:	89 c2                	mov    %eax,%edx
  40a3cb:	48 8b 04 25 f8 81 61 	mov    0x6181f8,%rax
  40a3d2:	00 
  40a3d3:	48 8b 8c 24 08 01 00 	mov    0x108(%rsp),%rcx
  40a3da:	00 
  40a3db:	89 14 88             	mov    %edx,(%rax,%rcx,4)
  40a3de:	48 8b 84 24 08 01 00 	mov    0x108(%rsp),%rax
  40a3e5:	00 
  40a3e6:	48 83 c0 01          	add    $0x1,%rax
  40a3ea:	48 89 84 24 08 01 00 	mov    %rax,0x108(%rsp)
  40a3f1:	00 
  40a3f2:	e9 21 ff ff ff       	jmpq   40a318 <realloc+0xb18>
  40a3f7:	48 8b 04 25 00 82 61 	mov    0x618200,%rax
  40a3fe:	00 
  40a3ff:	48 8b 8c 24 28 01 00 	mov    0x128(%rsp),%rcx
  40a406:	00 
  40a407:	80 3c 08 00          	cmpb   $0x0,(%rax,%rcx,1)
  40a40b:	0f 84 e7 05 00 00    	je     40a9f8 <realloc+0x11f8>
  40a411:	48 8b 8c 24 38 01 00 	mov    0x138(%rsp),%rcx
  40a418:	00 
  40a419:	48 8b 84 24 20 01 00 	mov    0x120(%rsp),%rax
  40a420:	00 
  40a421:	48 2b 84 24 38 01 00 	sub    0x138(%rsp),%rax
  40a428:	00 
  40a429:	48 05 00 01 00 00    	add    $0x100,%rax
  40a42f:	48 89 8c 24 68 02 00 	mov    %rcx,0x268(%rsp)
  40a436:	00 
  40a437:	48 89 84 24 60 02 00 	mov    %rax,0x260(%rsp)
  40a43e:	00 
  40a43f:	c6 84 24 5f 02 00 00 	movb   $0x1,0x25f(%rsp)
  40a446:	01 
  40a447:	48 8b 84 24 68 02 00 	mov    0x268(%rsp),%rax
  40a44e:	00 
  40a44f:	48 c1 e8 08          	shr    $0x8,%rax
  40a453:	48 89 84 24 50 02 00 	mov    %rax,0x250(%rsp)
  40a45a:	00 
  40a45b:	48 8b 04 25 08 82 61 	mov    0x618208,%rax
  40a462:	00 
  40a463:	48 8b 8c 24 50 02 00 	mov    0x250(%rsp),%rcx
  40a46a:	00 
  40a46b:	80 3c 08 00          	cmpb   $0x0,(%rax,%rcx,1)
  40a46f:	0f 85 49 00 00 00    	jne    40a4be <realloc+0xcbe>
  40a475:	48 8b 04 25 08 82 61 	mov    0x618208,%rax
  40a47c:	00 
  40a47d:	48 8b 8c 24 50 02 00 	mov    0x250(%rsp),%rcx
  40a484:	00 
  40a485:	c6 04 08 01          	movb   $0x1,(%rax,%rcx,1)
  40a489:	48 8b 84 24 50 02 00 	mov    0x250(%rsp),%rax
  40a490:	00 
  40a491:	48 c1 e0 08          	shl    $0x8,%rax
  40a495:	48 c1 e8 03          	shr    $0x3,%rax
  40a499:	48 05 00 80 ff 7f    	add    $0x7fff8000,%rax
  40a49f:	48 89 84 24 48 02 00 	mov    %rax,0x248(%rsp)
  40a4a6:	00 
  40a4a7:	48 8b bc 24 48 02 00 	mov    0x248(%rsp),%rdi
  40a4ae:	00 
  40a4af:	be ff 00 00 00       	mov    $0xff,%esi
  40a4b4:	ba 20 00 00 00       	mov    $0x20,%edx
  40a4b9:	e8 12 6c ff ff       	callq  4010d0 <memset@plt>
  40a4be:	80 bc 24 5f 02 00 00 	cmpb   $0x0,0x25f(%rsp)
  40a4c5:	00 
  40a4c6:	0f 85 f7 04 00 00    	jne    40a9c3 <realloc+0x11c3>
  40a4cc:	48 8b 8c 24 68 02 00 	mov    0x268(%rsp),%rcx
  40a4d3:	00 
  40a4d4:	48 8b 84 24 60 02 00 	mov    0x260(%rsp),%rax
  40a4db:	00 
  40a4dc:	48 89 8c 24 b0 02 00 	mov    %rcx,0x2b0(%rsp)
  40a4e3:	00 
  40a4e4:	48 89 84 24 a8 02 00 	mov    %rax,0x2a8(%rsp)
  40a4eb:	00 
  40a4ec:	48 8b 84 24 b0 02 00 	mov    0x2b0(%rsp),%rax
  40a4f3:	00 
  40a4f4:	48 c1 e8 03          	shr    $0x3,%rax
  40a4f8:	48 05 00 80 ff 7f    	add    $0x7fff8000,%rax
  40a4fe:	48 89 84 24 a0 02 00 	mov    %rax,0x2a0(%rsp)
  40a505:	00 
  40a506:	48 8b 84 24 b0 02 00 	mov    0x2b0(%rsp),%rax
  40a50d:	00 
  40a50e:	48 03 84 24 a8 02 00 	add    0x2a8(%rsp),%rax
  40a515:	00 
  40a516:	48 83 e8 01          	sub    $0x1,%rax
  40a51a:	48 c1 e8 03          	shr    $0x3,%rax
  40a51e:	48 05 00 80 ff 7f    	add    $0x7fff8000,%rax
  40a524:	48 83 c0 01          	add    $0x1,%rax
  40a528:	48 89 84 24 98 02 00 	mov    %rax,0x298(%rsp)
  40a52f:	00 
  40a530:	48 81 bc 24 a8 02 00 	cmpq   $0x80,0x2a8(%rsp)
  40a537:	00 80 00 00 00 
  40a53c:	0f 87 31 03 00 00    	ja     40a873 <realloc+0x1073>
  40a542:	48 8b 84 24 a8 02 00 	mov    0x2a8(%rsp),%rax
  40a549:	00 
  40a54a:	48 83 c0 07          	add    $0x7,%rax
  40a54e:	48 c1 e8 03          	shr    $0x3,%rax
  40a552:	48 89 84 24 90 02 00 	mov    %rax,0x290(%rsp)
  40a559:	00 
  40a55a:	48 8b 84 24 90 02 00 	mov    0x290(%rsp),%rax
  40a561:	00 
  40a562:	48 83 c0 ff          	add    $0xffffffffffffffff,%rax
  40a566:	48 89 44 24 10       	mov    %rax,0x10(%rsp)
  40a56b:	48 83 e8 0f          	sub    $0xf,%rax
  40a56f:	0f 87 e9 02 00 00    	ja     40a85e <realloc+0x105e>
  40a575:	48 8b 44 24 10       	mov    0x10(%rsp),%rax
  40a57a:	48 8b 04 c5 68 50 41 	mov    0x415068(,%rax,8),%rax
  40a581:	00 
  40a582:	ff e0                	jmpq   *%rax
  40a584:	48 8b 84 24 98 02 00 	mov    0x298(%rsp),%rax
  40a58b:	00 
  40a58c:	48 83 e8 01          	sub    $0x1,%rax
  40a590:	c6 00 01             	movb   $0x1,(%rax)
  40a593:	e9 cb 02 00 00       	jmpq   40a863 <realloc+0x1063>
  40a598:	48 8b 84 24 98 02 00 	mov    0x298(%rsp),%rax
  40a59f:	00 
  40a5a0:	48 83 e8 02          	sub    $0x2,%rax
  40a5a4:	66 c7 00 02 01       	movw   $0x102,(%rax)
  40a5a9:	e9 b5 02 00 00       	jmpq   40a863 <realloc+0x1063>
  40a5ae:	48 8b 84 24 98 02 00 	mov    0x298(%rsp),%rax
  40a5b5:	00 
  40a5b6:	48 83 e8 01          	sub    $0x1,%rax
  40a5ba:	c6 00 01             	movb   $0x1,(%rax)
  40a5bd:	48 8b 84 24 98 02 00 	mov    0x298(%rsp),%rax
  40a5c4:	00 
  40a5c5:	48 83 e8 03          	sub    $0x3,%rax
  40a5c9:	66 c7 00 02 02       	movw   $0x202,(%rax)
  40a5ce:	e9 90 02 00 00       	jmpq   40a863 <realloc+0x1063>
  40a5d3:	48 8b 84 24 98 02 00 	mov    0x298(%rsp),%rax
  40a5da:	00 
  40a5db:	48 83 e8 04          	sub    $0x4,%rax
  40a5df:	c7 00 03 02 02 01    	movl   $0x1020203,(%rax)
  40a5e5:	e9 79 02 00 00       	jmpq   40a863 <realloc+0x1063>
  40a5ea:	48 8b 84 24 98 02 00 	mov    0x298(%rsp),%rax
  40a5f1:	00 
  40a5f2:	48 83 e8 01          	sub    $0x1,%rax
  40a5f6:	c6 00 01             	movb   $0x1,(%rax)
  40a5f9:	48 8b 84 24 98 02 00 	mov    0x298(%rsp),%rax
  40a600:	00 
  40a601:	48 83 e8 05          	sub    $0x5,%rax
  40a605:	c7 00 03 03 02 02    	movl   $0x2020303,(%rax)
  40a60b:	e9 53 02 00 00       	jmpq   40a863 <realloc+0x1063>
  40a610:	48 8b 84 24 98 02 00 	mov    0x298(%rsp),%rax
  40a617:	00 
  40a618:	48 83 e8 02          	sub    $0x2,%rax
  40a61c:	66 c7 00 02 01       	movw   $0x102,(%rax)
  40a621:	48 8b 84 24 98 02 00 	mov    0x298(%rsp),%rax
  40a628:	00 
  40a629:	48 83 e8 06          	sub    $0x6,%rax
  40a62d:	c7 00 03 03 03 02    	movl   $0x2030303,(%rax)
  40a633:	e9 2b 02 00 00       	jmpq   40a863 <realloc+0x1063>
  40a638:	48 8b 84 24 98 02 00 	mov    0x298(%rsp),%rax
  40a63f:	00 
  40a640:	48 83 e8 01          	sub    $0x1,%rax
  40a644:	c6 00 01             	movb   $0x1,(%rax)
  40a647:	48 8b 84 24 98 02 00 	mov    0x298(%rsp),%rax
  40a64e:	00 
  40a64f:	48 83 e8 03          	sub    $0x3,%rax
  40a653:	66 c7 00 02 02       	movw   $0x202,(%rax)
  40a658:	48 8b 84 24 98 02 00 	mov    0x298(%rsp),%rax
  40a65f:	00 
  40a660:	48 83 e8 07          	sub    $0x7,%rax
  40a664:	c7 00 03 03 03 03    	movl   $0x3030303,(%rax)
  40a66a:	e9 f4 01 00 00       	jmpq   40a863 <realloc+0x1063>
  40a66f:	48 8b 84 24 98 02 00 	mov    0x298(%rsp),%rax
  40a676:	00 
  40a677:	48 83 e8 08          	sub    $0x8,%rax
  40a67b:	48 b9 04 03 03 03 03 	movabs $0x102020303030304,%rcx
  40a682:	02 02 01 
  40a685:	48 89 08             	mov    %rcx,(%rax)
  40a688:	e9 d6 01 00 00       	jmpq   40a863 <realloc+0x1063>
  40a68d:	48 8b 84 24 98 02 00 	mov    0x298(%rsp),%rax
  40a694:	00 
  40a695:	48 83 e8 01          	sub    $0x1,%rax
  40a699:	c6 00 01             	movb   $0x1,(%rax)
  40a69c:	48 8b 84 24 98 02 00 	mov    0x298(%rsp),%rax
  40a6a3:	00 
  40a6a4:	48 83 e8 09          	sub    $0x9,%rax
  40a6a8:	48 b9 04 04 03 03 03 	movabs $0x202030303030404,%rcx
  40a6af:	03 02 02 
  40a6b2:	48 89 08             	mov    %rcx,(%rax)
  40a6b5:	e9 a9 01 00 00       	jmpq   40a863 <realloc+0x1063>
  40a6ba:	48 8b 84 24 98 02 00 	mov    0x298(%rsp),%rax
  40a6c1:	00 
  40a6c2:	48 83 e8 02          	sub    $0x2,%rax
  40a6c6:	66 c7 00 02 01       	movw   $0x102,(%rax)
  40a6cb:	48 8b 84 24 98 02 00 	mov    0x298(%rsp),%rax
  40a6d2:	00 
  40a6d3:	48 83 e8 0a          	sub    $0xa,%rax
  40a6d7:	48 b9 04 04 04 03 03 	movabs $0x203030303040404,%rcx
  40a6de:	03 03 02 
  40a6e1:	48 89 08             	mov    %rcx,(%rax)
  40a6e4:	e9 7a 01 00 00       	jmpq   40a863 <realloc+0x1063>
  40a6e9:	48 8b 84 24 98 02 00 	mov    0x298(%rsp),%rax
  40a6f0:	00 
  40a6f1:	48 83 e8 01          	sub    $0x1,%rax
  40a6f5:	c6 00 01             	movb   $0x1,(%rax)
  40a6f8:	48 8b 84 24 98 02 00 	mov    0x298(%rsp),%rax
  40a6ff:	00 
  40a700:	48 83 e8 03          	sub    $0x3,%rax
  40a704:	66 c7 00 02 02       	movw   $0x202,(%rax)
  40a709:	48 8b 84 24 98 02 00 	mov    0x298(%rsp),%rax
  40a710:	00 
  40a711:	48 83 e8 0b          	sub    $0xb,%rax
  40a715:	48 b9 04 04 04 04 03 	movabs $0x303030304040404,%rcx
  40a71c:	03 03 03 
  40a71f:	48 89 08             	mov    %rcx,(%rax)
  40a722:	e9 3c 01 00 00       	jmpq   40a863 <realloc+0x1063>
  40a727:	48 8b 84 24 98 02 00 	mov    0x298(%rsp),%rax
  40a72e:	00 
  40a72f:	48 83 e8 04          	sub    $0x4,%rax
  40a733:	c7 00 03 02 02 01    	movl   $0x1020203,(%rax)
  40a739:	48 8b 84 24 98 02 00 	mov    0x298(%rsp),%rax
  40a740:	00 
  40a741:	48 83 e8 0c          	sub    $0xc,%rax
  40a745:	48 b9 04 04 04 04 04 	movabs $0x303030404040404,%rcx
  40a74c:	03 03 03 
  40a74f:	48 89 08             	mov    %rcx,(%rax)
  40a752:	e9 0c 01 00 00       	jmpq   40a863 <realloc+0x1063>
  40a757:	48 8b 84 24 98 02 00 	mov    0x298(%rsp),%rax
  40a75e:	00 
  40a75f:	48 83 e8 01          	sub    $0x1,%rax
  40a763:	c6 00 01             	movb   $0x1,(%rax)
  40a766:	48 8b 84 24 98 02 00 	mov    0x298(%rsp),%rax
  40a76d:	00 
  40a76e:	48 83 e8 05          	sub    $0x5,%rax
  40a772:	c7 00 03 03 02 02    	movl   $0x2020303,(%rax)
  40a778:	48 8b 84 24 98 02 00 	mov    0x298(%rsp),%rax
  40a77f:	00 
  40a780:	48 83 e8 0d          	sub    $0xd,%rax
  40a784:	48 b9 04 04 04 04 04 	movabs $0x303040404040404,%rcx
  40a78b:	04 03 03 
  40a78e:	48 89 08             	mov    %rcx,(%rax)
  40a791:	e9 cd 00 00 00       	jmpq   40a863 <realloc+0x1063>
  40a796:	48 8b 84 24 98 02 00 	mov    0x298(%rsp),%rax
  40a79d:	00 
  40a79e:	48 83 e8 02          	sub    $0x2,%rax
  40a7a2:	66 c7 00 02 01       	movw   $0x102,(%rax)
  40a7a7:	48 8b 84 24 98 02 00 	mov    0x298(%rsp),%rax
  40a7ae:	00 
  40a7af:	48 83 e8 06          	sub    $0x6,%rax
  40a7b3:	c7 00 03 03 03 02    	movl   $0x2030303,(%rax)
  40a7b9:	48 8b 84 24 98 02 00 	mov    0x298(%rsp),%rax
  40a7c0:	00 
  40a7c1:	48 83 e8 0e          	sub    $0xe,%rax
  40a7c5:	48 b9 04 04 04 04 04 	movabs $0x304040404040404,%rcx
  40a7cc:	04 04 03 
  40a7cf:	48 89 08             	mov    %rcx,(%rax)
  40a7d2:	e9 8c 00 00 00       	jmpq   40a863 <realloc+0x1063>
  40a7d7:	48 8b 84 24 98 02 00 	mov    0x298(%rsp),%rax
  40a7de:	00 
  40a7df:	48 83 e8 01          	sub    $0x1,%rax
  40a7e3:	c6 00 01             	movb   $0x1,(%rax)
  40a7e6:	48 8b 84 24 98 02 00 	mov    0x298(%rsp),%rax
  40a7ed:	00 
  40a7ee:	48 83 e8 03          	sub    $0x3,%rax
  40a7f2:	66 c7 00 02 02       	movw   $0x202,(%rax)
  40a7f7:	48 8b 84 24 98 02 00 	mov    0x298(%rsp),%rax
  40a7fe:	00 
  40a7ff:	48 83 e8 07          	sub    $0x7,%rax
  40a803:	c7 00 03 03 03 03    	movl   $0x3030303,(%rax)
  40a809:	48 8b 84 24 98 02 00 	mov    0x298(%rsp),%rax
  40a810:	00 
  40a811:	48 83 e8 0f          	sub    $0xf,%rax
  40a815:	48 b9 04 04 04 04 04 	movabs $0x404040404040404,%rcx
  40a81c:	04 04 04 
  40a81f:	48 89 08             	mov    %rcx,(%rax)
  40a822:	e9 3c 00 00 00       	jmpq   40a863 <realloc+0x1063>
  40a827:	48 8b 84 24 98 02 00 	mov    0x298(%rsp),%rax
  40a82e:	00 
  40a82f:	48 83 e8 08          	sub    $0x8,%rax
  40a833:	48 b9 04 03 03 03 03 	movabs $0x102020303030304,%rcx
  40a83a:	02 02 01 
  40a83d:	48 89 08             	mov    %rcx,(%rax)
  40a840:	48 8b 84 24 98 02 00 	mov    0x298(%rsp),%rax
  40a847:	00 
  40a848:	48 83 e8 10          	sub    $0x10,%rax
  40a84c:	48 b9 05 04 04 04 04 	movabs $0x404040404040405,%rcx
  40a853:	04 04 04 
  40a856:	48 89 08             	mov    %rcx,(%rax)
  40a859:	e9 05 00 00 00       	jmpq   40a863 <realloc+0x1063>
  40a85e:	e9 00 00 00 00       	jmpq   40a863 <realloc+0x1063>
  40a863:	c7 84 24 8c 02 00 00 	movl   $0x1,0x28c(%rsp)
  40a86a:	01 00 00 00 
  40a86e:	e9 4b 01 00 00       	jmpq   40a9be <realloc+0x11be>
  40a873:	48 8b 84 24 98 02 00 	mov    0x298(%rsp),%rax
  40a87a:	00 
  40a87b:	48 83 e8 08          	sub    $0x8,%rax
  40a87f:	48 b9 04 03 03 03 03 	movabs $0x102020303030304,%rcx
  40a886:	02 02 01 
  40a889:	48 89 08             	mov    %rcx,(%rax)
  40a88c:	48 8b 84 24 98 02 00 	mov    0x298(%rsp),%rax
  40a893:	00 
  40a894:	48 83 e8 10          	sub    $0x10,%rax
  40a898:	48 b9 05 04 04 04 04 	movabs $0x404040404040405,%rcx
  40a89f:	04 04 04 
  40a8a2:	48 89 08             	mov    %rcx,(%rax)
  40a8a5:	48 c7 84 24 80 02 00 	movq   $0x4,0x280(%rsp)
  40a8ac:	00 04 00 00 00 
  40a8b1:	48 8b 84 24 98 02 00 	mov    0x298(%rsp),%rax
  40a8b8:	00 
  40a8b9:	48 8b 8c 24 80 02 00 	mov    0x280(%rsp),%rcx
  40a8c0:	00 
  40a8c1:	ba 01 00 00 00       	mov    $0x1,%edx
  40a8c6:	d3 e2                	shl    %cl,%edx
  40a8c8:	89 d1                	mov    %edx,%ecx
  40a8ca:	48 63 c9             	movslq %ecx,%rcx
  40a8cd:	48 29 c8             	sub    %rcx,%rax
  40a8d0:	48 3b 84 24 a0 02 00 	cmp    0x2a0(%rsp),%rax
  40a8d7:	00 
  40a8d8:	0f 83 1b 00 00 00    	jae    40a8f9 <realloc+0x10f9>
  40a8de:	c7 84 24 8c 02 00 00 	movl   $0x3,0x28c(%rsp)
  40a8e5:	03 00 00 00 
  40a8e9:	c7 84 24 8c 02 00 00 	movl   $0x0,0x28c(%rsp)
  40a8f0:	00 00 00 00 
  40a8f4:	e9 c5 00 00 00       	jmpq   40a9be <realloc+0x11be>
  40a8f9:	48 8b 84 24 98 02 00 	mov    0x298(%rsp),%rax
  40a900:	00 
  40a901:	48 8b 8c 24 80 02 00 	mov    0x280(%rsp),%rcx
  40a908:	00 
  40a909:	48 83 c1 01          	add    $0x1,%rcx
  40a90d:	ba 01 00 00 00       	mov    $0x1,%edx
  40a912:	d3 e2                	shl    %cl,%edx
  40a914:	89 d1                	mov    %edx,%ecx
  40a916:	48 63 c9             	movslq %ecx,%rcx
  40a919:	48 29 c8             	sub    %rcx,%rax
  40a91c:	48 83 c0 01          	add    $0x1,%rax
  40a920:	48 89 84 24 78 02 00 	mov    %rax,0x278(%rsp)
  40a927:	00 
  40a928:	48 8b 84 24 98 02 00 	mov    0x298(%rsp),%rax
  40a92f:	00 
  40a930:	48 8b 8c 24 80 02 00 	mov    0x280(%rsp),%rcx
  40a937:	00 
  40a938:	ba 01 00 00 00       	mov    $0x1,%edx
  40a93d:	d3 e2                	shl    %cl,%edx
  40a93f:	89 d1                	mov    %edx,%ecx
  40a941:	48 63 c9             	movslq %ecx,%rcx
  40a944:	48 29 c8             	sub    %rcx,%rax
  40a947:	48 89 84 24 70 02 00 	mov    %rax,0x270(%rsp)
  40a94e:	00 
  40a94f:	48 8b 84 24 78 02 00 	mov    0x278(%rsp),%rax
  40a956:	00 
  40a957:	48 3b 84 24 a0 02 00 	cmp    0x2a0(%rsp),%rax
  40a95e:	00 
  40a95f:	0f 83 10 00 00 00    	jae    40a975 <realloc+0x1175>
  40a965:	48 8b 84 24 a0 02 00 	mov    0x2a0(%rsp),%rax
  40a96c:	00 
  40a96d:	48 89 84 24 78 02 00 	mov    %rax,0x278(%rsp)
  40a974:	00 
  40a975:	48 8b bc 24 78 02 00 	mov    0x278(%rsp),%rdi
  40a97c:	00 
  40a97d:	48 8b 84 24 80 02 00 	mov    0x280(%rsp),%rax
  40a984:	00 
  40a985:	48 83 c0 01          	add    $0x1,%rax
  40a989:	48 8b 94 24 70 02 00 	mov    0x270(%rsp),%rdx
  40a990:	00 
  40a991:	48 2b 94 24 78 02 00 	sub    0x278(%rsp),%rdx
  40a998:	00 
  40a999:	48 83 c2 01          	add    $0x1,%rdx
  40a99d:	0f b6 f0             	movzbl %al,%esi
  40a9a0:	e8 2b 67 ff ff       	callq  4010d0 <memset@plt>
  40a9a5:	48 8b 84 24 80 02 00 	mov    0x280(%rsp),%rax
  40a9ac:	00 
  40a9ad:	48 83 c0 01          	add    $0x1,%rax
  40a9b1:	48 89 84 24 80 02 00 	mov    %rax,0x280(%rsp)
  40a9b8:	00 
  40a9b9:	e9 f3 fe ff ff       	jmpq   40a8b1 <realloc+0x10b1>
  40a9be:	e9 35 00 00 00       	jmpq   40a9f8 <realloc+0x11f8>
  40a9c3:	48 8b 84 24 68 02 00 	mov    0x268(%rsp),%rax
  40a9ca:	00 
  40a9cb:	48 c1 e8 03          	shr    $0x3,%rax
  40a9cf:	48 05 00 80 ff 7f    	add    $0x7fff8000,%rax
  40a9d5:	48 89 84 24 40 02 00 	mov    %rax,0x240(%rsp)
  40a9dc:	00 
  40a9dd:	48 8b bc 24 40 02 00 	mov    0x240(%rsp),%rdi
  40a9e4:	00 
  40a9e5:	48 8b 94 24 60 02 00 	mov    0x260(%rsp),%rdx
  40a9ec:	00 
  40a9ed:	48 c1 ea 03          	shr    $0x3,%rdx
  40a9f1:	31 f6                	xor    %esi,%esi
  40a9f3:	e8 d8 66 ff ff       	callq  4010d0 <memset@plt>
  40a9f8:	48 8b 84 24 30 01 00 	mov    0x130(%rsp),%rax
  40a9ff:	00 
  40aa00:	48 3b 84 24 10 01 00 	cmp    0x110(%rsp),%rax
  40aa07:	00 
  40aa08:	0f 84 30 06 00 00    	je     40b03e <realloc+0x183e>
  40aa0e:	48 8b 8c 24 10 01 00 	mov    0x110(%rsp),%rcx
  40aa15:	00 
  40aa16:	48 8b 84 24 30 01 00 	mov    0x130(%rsp),%rax
  40aa1d:	00 
  40aa1e:	48 2b 84 24 10 01 00 	sub    0x110(%rsp),%rax
  40aa25:	00 
  40aa26:	48 89 8c 24 f0 01 00 	mov    %rcx,0x1f0(%rsp)
  40aa2d:	00 
  40aa2e:	48 89 84 24 e8 01 00 	mov    %rax,0x1e8(%rsp)
  40aa35:	00 
  40aa36:	c6 84 24 e7 01 00 00 	movb   $0x0,0x1e7(%rsp)
  40aa3d:	00 
  40aa3e:	48 8b 84 24 f0 01 00 	mov    0x1f0(%rsp),%rax
  40aa45:	00 
  40aa46:	48 c1 e8 08          	shr    $0x8,%rax
  40aa4a:	48 89 84 24 d8 01 00 	mov    %rax,0x1d8(%rsp)
  40aa51:	00 
  40aa52:	48 8b 04 25 08 82 61 	mov    0x618208,%rax
  40aa59:	00 
  40aa5a:	48 8b 8c 24 d8 01 00 	mov    0x1d8(%rsp),%rcx
  40aa61:	00 
  40aa62:	80 3c 08 00          	cmpb   $0x0,(%rax,%rcx,1)
  40aa66:	0f 85 49 00 00 00    	jne    40aab5 <realloc+0x12b5>
  40aa6c:	48 8b 04 25 08 82 61 	mov    0x618208,%rax
  40aa73:	00 
  40aa74:	48 8b 8c 24 d8 01 00 	mov    0x1d8(%rsp),%rcx
  40aa7b:	00 
  40aa7c:	c6 04 08 01          	movb   $0x1,(%rax,%rcx,1)
  40aa80:	48 8b 84 24 d8 01 00 	mov    0x1d8(%rsp),%rax
  40aa87:	00 
  40aa88:	48 c1 e0 08          	shl    $0x8,%rax
  40aa8c:	48 c1 e8 03          	shr    $0x3,%rax
  40aa90:	48 05 00 80 ff 7f    	add    $0x7fff8000,%rax
  40aa96:	48 89 84 24 d0 01 00 	mov    %rax,0x1d0(%rsp)
  40aa9d:	00 
  40aa9e:	48 8b bc 24 d0 01 00 	mov    0x1d0(%rsp),%rdi
  40aaa5:	00 
  40aaa6:	be ff 00 00 00       	mov    $0xff,%esi
  40aaab:	ba 20 00 00 00       	mov    $0x20,%edx
  40aab0:	e8 1b 66 ff ff       	callq  4010d0 <memset@plt>
  40aab5:	80 bc 24 e7 01 00 00 	cmpb   $0x0,0x1e7(%rsp)
  40aabc:	00 
  40aabd:	0f 85 f7 04 00 00    	jne    40afba <realloc+0x17ba>
  40aac3:	48 8b 8c 24 f0 01 00 	mov    0x1f0(%rsp),%rcx
  40aaca:	00 
  40aacb:	48 8b 84 24 e8 01 00 	mov    0x1e8(%rsp),%rax
  40aad2:	00 
  40aad3:	48 89 8c 24 38 02 00 	mov    %rcx,0x238(%rsp)
  40aada:	00 
  40aadb:	48 89 84 24 30 02 00 	mov    %rax,0x230(%rsp)
  40aae2:	00 
  40aae3:	48 8b 84 24 38 02 00 	mov    0x238(%rsp),%rax
  40aaea:	00 
  40aaeb:	48 c1 e8 03          	shr    $0x3,%rax
  40aaef:	48 05 00 80 ff 7f    	add    $0x7fff8000,%rax
  40aaf5:	48 89 84 24 28 02 00 	mov    %rax,0x228(%rsp)
  40aafc:	00 
  40aafd:	48 8b 84 24 38 02 00 	mov    0x238(%rsp),%rax
  40ab04:	00 
  40ab05:	48 03 84 24 30 02 00 	add    0x230(%rsp),%rax
  40ab0c:	00 
  40ab0d:	48 83 e8 01          	sub    $0x1,%rax
  40ab11:	48 c1 e8 03          	shr    $0x3,%rax
  40ab15:	48 05 00 80 ff 7f    	add    $0x7fff8000,%rax
  40ab1b:	48 83 c0 01          	add    $0x1,%rax
  40ab1f:	48 89 84 24 20 02 00 	mov    %rax,0x220(%rsp)
  40ab26:	00 
  40ab27:	48 81 bc 24 30 02 00 	cmpq   $0x80,0x230(%rsp)
  40ab2e:	00 80 00 00 00 
  40ab33:	0f 87 31 03 00 00    	ja     40ae6a <realloc+0x166a>
  40ab39:	48 8b 84 24 30 02 00 	mov    0x230(%rsp),%rax
  40ab40:	00 
  40ab41:	48 83 c0 07          	add    $0x7,%rax
  40ab45:	48 c1 e8 03          	shr    $0x3,%rax
  40ab49:	48 89 84 24 18 02 00 	mov    %rax,0x218(%rsp)
  40ab50:	00 
  40ab51:	48 8b 84 24 18 02 00 	mov    0x218(%rsp),%rax
  40ab58:	00 
  40ab59:	48 83 c0 ff          	add    $0xffffffffffffffff,%rax
  40ab5d:	48 89 44 24 08       	mov    %rax,0x8(%rsp)
  40ab62:	48 83 e8 0f          	sub    $0xf,%rax
  40ab66:	0f 87 e9 02 00 00    	ja     40ae55 <realloc+0x1655>
  40ab6c:	48 8b 44 24 08       	mov    0x8(%rsp),%rax
  40ab71:	48 8b 04 c5 e8 50 41 	mov    0x4150e8(,%rax,8),%rax
  40ab78:	00 
  40ab79:	ff e0                	jmpq   *%rax
  40ab7b:	48 8b 84 24 20 02 00 	mov    0x220(%rsp),%rax
  40ab82:	00 
  40ab83:	48 83 e8 01          	sub    $0x1,%rax
  40ab87:	c6 00 01             	movb   $0x1,(%rax)
  40ab8a:	e9 cb 02 00 00       	jmpq   40ae5a <realloc+0x165a>
  40ab8f:	48 8b 84 24 20 02 00 	mov    0x220(%rsp),%rax
  40ab96:	00 
  40ab97:	48 83 e8 02          	sub    $0x2,%rax
  40ab9b:	66 c7 00 02 01       	movw   $0x102,(%rax)
  40aba0:	e9 b5 02 00 00       	jmpq   40ae5a <realloc+0x165a>
  40aba5:	48 8b 84 24 20 02 00 	mov    0x220(%rsp),%rax
  40abac:	00 
  40abad:	48 83 e8 01          	sub    $0x1,%rax
  40abb1:	c6 00 01             	movb   $0x1,(%rax)
  40abb4:	48 8b 84 24 20 02 00 	mov    0x220(%rsp),%rax
  40abbb:	00 
  40abbc:	48 83 e8 03          	sub    $0x3,%rax
  40abc0:	66 c7 00 02 02       	movw   $0x202,(%rax)
  40abc5:	e9 90 02 00 00       	jmpq   40ae5a <realloc+0x165a>
  40abca:	48 8b 84 24 20 02 00 	mov    0x220(%rsp),%rax
  40abd1:	00 
  40abd2:	48 83 e8 04          	sub    $0x4,%rax
  40abd6:	c7 00 03 02 02 01    	movl   $0x1020203,(%rax)
  40abdc:	e9 79 02 00 00       	jmpq   40ae5a <realloc+0x165a>
  40abe1:	48 8b 84 24 20 02 00 	mov    0x220(%rsp),%rax
  40abe8:	00 
  40abe9:	48 83 e8 01          	sub    $0x1,%rax
  40abed:	c6 00 01             	movb   $0x1,(%rax)
  40abf0:	48 8b 84 24 20 02 00 	mov    0x220(%rsp),%rax
  40abf7:	00 
  40abf8:	48 83 e8 05          	sub    $0x5,%rax
  40abfc:	c7 00 03 03 02 02    	movl   $0x2020303,(%rax)
  40ac02:	e9 53 02 00 00       	jmpq   40ae5a <realloc+0x165a>
  40ac07:	48 8b 84 24 20 02 00 	mov    0x220(%rsp),%rax
  40ac0e:	00 
  40ac0f:	48 83 e8 02          	sub    $0x2,%rax
  40ac13:	66 c7 00 02 01       	movw   $0x102,(%rax)
  40ac18:	48 8b 84 24 20 02 00 	mov    0x220(%rsp),%rax
  40ac1f:	00 
  40ac20:	48 83 e8 06          	sub    $0x6,%rax
  40ac24:	c7 00 03 03 03 02    	movl   $0x2030303,(%rax)
  40ac2a:	e9 2b 02 00 00       	jmpq   40ae5a <realloc+0x165a>
  40ac2f:	48 8b 84 24 20 02 00 	mov    0x220(%rsp),%rax
  40ac36:	00 
  40ac37:	48 83 e8 01          	sub    $0x1,%rax
  40ac3b:	c6 00 01             	movb   $0x1,(%rax)
  40ac3e:	48 8b 84 24 20 02 00 	mov    0x220(%rsp),%rax
  40ac45:	00 
  40ac46:	48 83 e8 03          	sub    $0x3,%rax
  40ac4a:	66 c7 00 02 02       	movw   $0x202,(%rax)
  40ac4f:	48 8b 84 24 20 02 00 	mov    0x220(%rsp),%rax
  40ac56:	00 
  40ac57:	48 83 e8 07          	sub    $0x7,%rax
  40ac5b:	c7 00 03 03 03 03    	movl   $0x3030303,(%rax)
  40ac61:	e9 f4 01 00 00       	jmpq   40ae5a <realloc+0x165a>
  40ac66:	48 8b 84 24 20 02 00 	mov    0x220(%rsp),%rax
  40ac6d:	00 
  40ac6e:	48 83 e8 08          	sub    $0x8,%rax
  40ac72:	48 b9 04 03 03 03 03 	movabs $0x102020303030304,%rcx
  40ac79:	02 02 01 
  40ac7c:	48 89 08             	mov    %rcx,(%rax)
  40ac7f:	e9 d6 01 00 00       	jmpq   40ae5a <realloc+0x165a>
  40ac84:	48 8b 84 24 20 02 00 	mov    0x220(%rsp),%rax
  40ac8b:	00 
  40ac8c:	48 83 e8 01          	sub    $0x1,%rax
  40ac90:	c6 00 01             	movb   $0x1,(%rax)
  40ac93:	48 8b 84 24 20 02 00 	mov    0x220(%rsp),%rax
  40ac9a:	00 
  40ac9b:	48 83 e8 09          	sub    $0x9,%rax
  40ac9f:	48 b9 04 04 03 03 03 	movabs $0x202030303030404,%rcx
  40aca6:	03 02 02 
  40aca9:	48 89 08             	mov    %rcx,(%rax)
  40acac:	e9 a9 01 00 00       	jmpq   40ae5a <realloc+0x165a>
  40acb1:	48 8b 84 24 20 02 00 	mov    0x220(%rsp),%rax
  40acb8:	00 
  40acb9:	48 83 e8 02          	sub    $0x2,%rax
  40acbd:	66 c7 00 02 01       	movw   $0x102,(%rax)
  40acc2:	48 8b 84 24 20 02 00 	mov    0x220(%rsp),%rax
  40acc9:	00 
  40acca:	48 83 e8 0a          	sub    $0xa,%rax
  40acce:	48 b9 04 04 04 03 03 	movabs $0x203030303040404,%rcx
  40acd5:	03 03 02 
  40acd8:	48 89 08             	mov    %rcx,(%rax)
  40acdb:	e9 7a 01 00 00       	jmpq   40ae5a <realloc+0x165a>
  40ace0:	48 8b 84 24 20 02 00 	mov    0x220(%rsp),%rax
  40ace7:	00 
  40ace8:	48 83 e8 01          	sub    $0x1,%rax
  40acec:	c6 00 01             	movb   $0x1,(%rax)
  40acef:	48 8b 84 24 20 02 00 	mov    0x220(%rsp),%rax
  40acf6:	00 
  40acf7:	48 83 e8 03          	sub    $0x3,%rax
  40acfb:	66 c7 00 02 02       	movw   $0x202,(%rax)
  40ad00:	48 8b 84 24 20 02 00 	mov    0x220(%rsp),%rax
  40ad07:	00 
  40ad08:	48 83 e8 0b          	sub    $0xb,%rax
  40ad0c:	48 b9 04 04 04 04 03 	movabs $0x303030304040404,%rcx
  40ad13:	03 03 03 
  40ad16:	48 89 08             	mov    %rcx,(%rax)
  40ad19:	e9 3c 01 00 00       	jmpq   40ae5a <realloc+0x165a>
  40ad1e:	48 8b 84 24 20 02 00 	mov    0x220(%rsp),%rax
  40ad25:	00 
  40ad26:	48 83 e8 04          	sub    $0x4,%rax
  40ad2a:	c7 00 03 02 02 01    	movl   $0x1020203,(%rax)
  40ad30:	48 8b 84 24 20 02 00 	mov    0x220(%rsp),%rax
  40ad37:	00 
  40ad38:	48 83 e8 0c          	sub    $0xc,%rax
  40ad3c:	48 b9 04 04 04 04 04 	movabs $0x303030404040404,%rcx
  40ad43:	03 03 03 
  40ad46:	48 89 08             	mov    %rcx,(%rax)
  40ad49:	e9 0c 01 00 00       	jmpq   40ae5a <realloc+0x165a>
  40ad4e:	48 8b 84 24 20 02 00 	mov    0x220(%rsp),%rax
  40ad55:	00 
  40ad56:	48 83 e8 01          	sub    $0x1,%rax
  40ad5a:	c6 00 01             	movb   $0x1,(%rax)
  40ad5d:	48 8b 84 24 20 02 00 	mov    0x220(%rsp),%rax
  40ad64:	00 
  40ad65:	48 83 e8 05          	sub    $0x5,%rax
  40ad69:	c7 00 03 03 02 02    	movl   $0x2020303,(%rax)
  40ad6f:	48 8b 84 24 20 02 00 	mov    0x220(%rsp),%rax
  40ad76:	00 
  40ad77:	48 83 e8 0d          	sub    $0xd,%rax
  40ad7b:	48 b9 04 04 04 04 04 	movabs $0x303040404040404,%rcx
  40ad82:	04 03 03 
  40ad85:	48 89 08             	mov    %rcx,(%rax)
  40ad88:	e9 cd 00 00 00       	jmpq   40ae5a <realloc+0x165a>
  40ad8d:	48 8b 84 24 20 02 00 	mov    0x220(%rsp),%rax
  40ad94:	00 
  40ad95:	48 83 e8 02          	sub    $0x2,%rax
  40ad99:	66 c7 00 02 01       	movw   $0x102,(%rax)
  40ad9e:	48 8b 84 24 20 02 00 	mov    0x220(%rsp),%rax
  40ada5:	00 
  40ada6:	48 83 e8 06          	sub    $0x6,%rax
  40adaa:	c7 00 03 03 03 02    	movl   $0x2030303,(%rax)
  40adb0:	48 8b 84 24 20 02 00 	mov    0x220(%rsp),%rax
  40adb7:	00 
  40adb8:	48 83 e8 0e          	sub    $0xe,%rax
  40adbc:	48 b9 04 04 04 04 04 	movabs $0x304040404040404,%rcx
  40adc3:	04 04 03 
  40adc6:	48 89 08             	mov    %rcx,(%rax)
  40adc9:	e9 8c 00 00 00       	jmpq   40ae5a <realloc+0x165a>
  40adce:	48 8b 84 24 20 02 00 	mov    0x220(%rsp),%rax
  40add5:	00 
  40add6:	48 83 e8 01          	sub    $0x1,%rax
  40adda:	c6 00 01             	movb   $0x1,(%rax)
  40addd:	48 8b 84 24 20 02 00 	mov    0x220(%rsp),%rax
  40ade4:	00 
  40ade5:	48 83 e8 03          	sub    $0x3,%rax
  40ade9:	66 c7 00 02 02       	movw   $0x202,(%rax)
  40adee:	48 8b 84 24 20 02 00 	mov    0x220(%rsp),%rax
  40adf5:	00 
  40adf6:	48 83 e8 07          	sub    $0x7,%rax
  40adfa:	c7 00 03 03 03 03    	movl   $0x3030303,(%rax)
  40ae00:	48 8b 84 24 20 02 00 	mov    0x220(%rsp),%rax
  40ae07:	00 
  40ae08:	48 83 e8 0f          	sub    $0xf,%rax
  40ae0c:	48 b9 04 04 04 04 04 	movabs $0x404040404040404,%rcx
  40ae13:	04 04 04 
  40ae16:	48 89 08             	mov    %rcx,(%rax)
  40ae19:	e9 3c 00 00 00       	jmpq   40ae5a <realloc+0x165a>
  40ae1e:	48 8b 84 24 20 02 00 	mov    0x220(%rsp),%rax
  40ae25:	00 
  40ae26:	48 83 e8 08          	sub    $0x8,%rax
  40ae2a:	48 b9 04 03 03 03 03 	movabs $0x102020303030304,%rcx
  40ae31:	02 02 01 
  40ae34:	48 89 08             	mov    %rcx,(%rax)
  40ae37:	48 8b 84 24 20 02 00 	mov    0x220(%rsp),%rax
  40ae3e:	00 
  40ae3f:	48 83 e8 10          	sub    $0x10,%rax
  40ae43:	48 b9 05 04 04 04 04 	movabs $0x404040404040405,%rcx
  40ae4a:	04 04 04 
  40ae4d:	48 89 08             	mov    %rcx,(%rax)
  40ae50:	e9 05 00 00 00       	jmpq   40ae5a <realloc+0x165a>
  40ae55:	e9 00 00 00 00       	jmpq   40ae5a <realloc+0x165a>
  40ae5a:	c7 84 24 14 02 00 00 	movl   $0x1,0x214(%rsp)
  40ae61:	01 00 00 00 
  40ae65:	e9 4b 01 00 00       	jmpq   40afb5 <realloc+0x17b5>
  40ae6a:	48 8b 84 24 20 02 00 	mov    0x220(%rsp),%rax
  40ae71:	00 
  40ae72:	48 83 e8 08          	sub    $0x8,%rax
  40ae76:	48 b9 04 03 03 03 03 	movabs $0x102020303030304,%rcx
  40ae7d:	02 02 01 
  40ae80:	48 89 08             	mov    %rcx,(%rax)
  40ae83:	48 8b 84 24 20 02 00 	mov    0x220(%rsp),%rax
  40ae8a:	00 
  40ae8b:	48 83 e8 10          	sub    $0x10,%rax
  40ae8f:	48 b9 05 04 04 04 04 	movabs $0x404040404040405,%rcx
  40ae96:	04 04 04 
  40ae99:	48 89 08             	mov    %rcx,(%rax)
  40ae9c:	48 c7 84 24 08 02 00 	movq   $0x4,0x208(%rsp)
  40aea3:	00 04 00 00 00 
  40aea8:	48 8b 84 24 20 02 00 	mov    0x220(%rsp),%rax
  40aeaf:	00 
  40aeb0:	48 8b 8c 24 08 02 00 	mov    0x208(%rsp),%rcx
  40aeb7:	00 
  40aeb8:	ba 01 00 00 00       	mov    $0x1,%edx
  40aebd:	d3 e2                	shl    %cl,%edx
  40aebf:	89 d1                	mov    %edx,%ecx
  40aec1:	48 63 c9             	movslq %ecx,%rcx
  40aec4:	48 29 c8             	sub    %rcx,%rax
  40aec7:	48 3b 84 24 28 02 00 	cmp    0x228(%rsp),%rax
  40aece:	00 
  40aecf:	0f 83 1b 00 00 00    	jae    40aef0 <realloc+0x16f0>
  40aed5:	c7 84 24 14 02 00 00 	movl   $0x3,0x214(%rsp)
  40aedc:	03 00 00 00 
  40aee0:	c7 84 24 14 02 00 00 	movl   $0x0,0x214(%rsp)
  40aee7:	00 00 00 00 
  40aeeb:	e9 c5 00 00 00       	jmpq   40afb5 <realloc+0x17b5>
  40aef0:	48 8b 84 24 20 02 00 	mov    0x220(%rsp),%rax
  40aef7:	00 
  40aef8:	48 8b 8c 24 08 02 00 	mov    0x208(%rsp),%rcx
  40aeff:	00 
  40af00:	48 83 c1 01          	add    $0x1,%rcx
  40af04:	ba 01 00 00 00       	mov    $0x1,%edx
  40af09:	d3 e2                	shl    %cl,%edx
  40af0b:	89 d1                	mov    %edx,%ecx
  40af0d:	48 63 c9             	movslq %ecx,%rcx
  40af10:	48 29 c8             	sub    %rcx,%rax
  40af13:	48 83 c0 01          	add    $0x1,%rax
  40af17:	48 89 84 24 00 02 00 	mov    %rax,0x200(%rsp)
  40af1e:	00 
  40af1f:	48 8b 84 24 20 02 00 	mov    0x220(%rsp),%rax
  40af26:	00 
  40af27:	48 8b 8c 24 08 02 00 	mov    0x208(%rsp),%rcx
  40af2e:	00 
  40af2f:	ba 01 00 00 00       	mov    $0x1,%edx
  40af34:	d3 e2                	shl    %cl,%edx
  40af36:	89 d1                	mov    %edx,%ecx
  40af38:	48 63 c9             	movslq %ecx,%rcx
  40af3b:	48 29 c8             	sub    %rcx,%rax
  40af3e:	48 89 84 24 f8 01 00 	mov    %rax,0x1f8(%rsp)
  40af45:	00 
  40af46:	48 8b 84 24 00 02 00 	mov    0x200(%rsp),%rax
  40af4d:	00 
  40af4e:	48 3b 84 24 28 02 00 	cmp    0x228(%rsp),%rax
  40af55:	00 
  40af56:	0f 83 10 00 00 00    	jae    40af6c <realloc+0x176c>
  40af5c:	48 8b 84 24 28 02 00 	mov    0x228(%rsp),%rax
  40af63:	00 
  40af64:	48 89 84 24 00 02 00 	mov    %rax,0x200(%rsp)
  40af6b:	00 
  40af6c:	48 8b bc 24 00 02 00 	mov    0x200(%rsp),%rdi
  40af73:	00 
  40af74:	48 8b 84 24 08 02 00 	mov    0x208(%rsp),%rax
  40af7b:	00 
  40af7c:	48 83 c0 01          	add    $0x1,%rax
  40af80:	48 8b 94 24 f8 01 00 	mov    0x1f8(%rsp),%rdx
  40af87:	00 
  40af88:	48 2b 94 24 00 02 00 	sub    0x200(%rsp),%rdx
  40af8f:	00 
  40af90:	48 83 c2 01          	add    $0x1,%rdx
  40af94:	0f b6 f0             	movzbl %al,%esi
  40af97:	e8 34 61 ff ff       	callq  4010d0 <memset@plt>
  40af9c:	48 8b 84 24 08 02 00 	mov    0x208(%rsp),%rax
  40afa3:	00 
  40afa4:	48 83 c0 01          	add    $0x1,%rax
  40afa8:	48 89 84 24 08 02 00 	mov    %rax,0x208(%rsp)
  40afaf:	00 
  40afb0:	e9 f3 fe ff ff       	jmpq   40aea8 <realloc+0x16a8>
  40afb5:	e9 35 00 00 00       	jmpq   40afef <realloc+0x17ef>
  40afba:	48 8b 84 24 f0 01 00 	mov    0x1f0(%rsp),%rax
  40afc1:	00 
  40afc2:	48 c1 e8 03          	shr    $0x3,%rax
  40afc6:	48 05 00 80 ff 7f    	add    $0x7fff8000,%rax
  40afcc:	48 89 84 24 c8 01 00 	mov    %rax,0x1c8(%rsp)
  40afd3:	00 
  40afd4:	48 8b bc 24 c8 01 00 	mov    0x1c8(%rsp),%rdi
  40afdb:	00 
  40afdc:	48 8b 94 24 e8 01 00 	mov    0x1e8(%rsp),%rdx
  40afe3:	00 
  40afe4:	48 c1 ea 03          	shr    $0x3,%rdx
  40afe8:	31 f6                	xor    %esi,%esi
  40afea:	e8 e1 60 ff ff       	callq  4010d0 <memset@plt>
  40afef:	48 8b 84 24 40 01 00 	mov    0x140(%rsp),%rax
  40aff6:	00 
  40aff7:	48 83 e0 07          	and    $0x7,%rax
  40affb:	48 83 f8 00          	cmp    $0x0,%rax
  40afff:	0f 84 34 00 00 00    	je     40b039 <realloc+0x1839>
  40b005:	48 8b 84 24 40 01 00 	mov    0x140(%rsp),%rax
  40b00c:	00 
  40b00d:	48 83 e0 07          	and    $0x7,%rax
  40b011:	ba 08 00 00 00       	mov    $0x8,%edx
  40b016:	48 29 c2             	sub    %rax,%rdx
  40b019:	48 c1 e2 05          	shl    $0x5,%rdx
  40b01d:	48 8b 84 24 30 01 00 	mov    0x130(%rsp),%rax
  40b024:	00 
  40b025:	48 c1 e8 03          	shr    $0x3,%rax
  40b029:	0f b6 88 00 80 ff 7f 	movzbl 0x7fff8000(%rax),%ecx
  40b030:	48 01 d1             	add    %rdx,%rcx
  40b033:	88 88 00 80 ff 7f    	mov    %cl,0x7fff8000(%rax)
  40b039:	e9 00 00 00 00       	jmpq   40b03e <realloc+0x183e>
  40b03e:	e9 00 00 00 00       	jmpq   40b043 <realloc+0x1843>
  40b043:	48 8b 44 24 28       	mov    0x28(%rsp),%rax
  40b048:	48 81 c4 b8 02 00 00 	add    $0x2b8,%rsp
  40b04f:	c3                   	retq   

000000000040b050 <free>:
  40b050:	48 81 ec d8 00 00 00 	sub    $0xd8,%rsp
  40b057:	48 89 7c 24 08       	mov    %rdi,0x8(%rsp)
  40b05c:	48 8b 7c 24 08       	mov    0x8(%rsp),%rdi
  40b061:	e8 ca 61 ff ff       	callq  401230 <__libc_free@plt>
  40b066:	48 8b 44 24 08       	mov    0x8(%rsp),%rax
  40b06b:	48 89 44 24 20       	mov    %rax,0x20(%rsp)
  40b070:	48 8b 44 24 20       	mov    0x20(%rsp),%rax
  40b075:	48 c1 e8 08          	shr    $0x8,%rax
  40b079:	48 89 44 24 18       	mov    %rax,0x18(%rsp)
  40b07e:	48 8b 04 25 10 82 61 	mov    0x618210,%rax
  40b085:	00 
  40b086:	48 8b 4c 24 18       	mov    0x18(%rsp),%rcx
  40b08b:	80 3c 08 00          	cmpb   $0x0,(%rax,%rcx,1)
  40b08f:	0f 85 0d 00 00 00    	jne    40b0a2 <free+0x52>
  40b095:	c7 44 24 14 01 00 00 	movl   $0x1,0x14(%rsp)
  40b09c:	00 
  40b09d:	e9 7c 03 00 00       	jmpq   40b41e <free+0x3ce>
  40b0a2:	48 8b 44 24 20       	mov    0x20(%rsp),%rax
  40b0a7:	48 c1 e8 03          	shr    $0x3,%rax
  40b0ab:	8a 80 00 80 ff 7f    	mov    0x7fff8000(%rax),%al
  40b0b1:	88 44 24 13          	mov    %al,0x13(%rsp)
  40b0b5:	0f b6 44 24 13       	movzbl 0x13(%rsp),%eax
  40b0ba:	83 f8 00             	cmp    $0x0,%eax
  40b0bd:	0f 85 61 02 00 00    	jne    40b324 <free+0x2d4>
  40b0c3:	48 8b 4c 24 20       	mov    0x20(%rsp),%rcx
  40b0c8:	48 8b 04 25 18 82 61 	mov    0x618218,%rax
  40b0cf:	00 
  40b0d0:	48 8b 54 24 18       	mov    0x18(%rsp),%rdx
  40b0d5:	48 63 04 90          	movslq (%rax,%rdx,4),%rax
  40b0d9:	48 89 4c 24 68       	mov    %rcx,0x68(%rsp)
  40b0de:	48 89 44 24 60       	mov    %rax,0x60(%rsp)
  40b0e3:	48 8b 44 24 68       	mov    0x68(%rsp),%rax
  40b0e8:	48 89 44 24 58       	mov    %rax,0x58(%rsp)
  40b0ed:	48 8b 44 24 58       	mov    0x58(%rsp),%rax
  40b0f2:	48 03 44 24 60       	add    0x60(%rsp),%rax
  40b0f7:	48 89 44 24 50       	mov    %rax,0x50(%rsp)
  40b0fc:	48 8b 44 24 58       	mov    0x58(%rsp),%rax
  40b101:	48 c1 e8 08          	shr    $0x8,%rax
  40b105:	48 89 44 24 48       	mov    %rax,0x48(%rsp)
  40b10a:	48 8b 44 24 48       	mov    0x48(%rsp),%rax
  40b10f:	48 c1 e0 08          	shl    $0x8,%rax
  40b113:	48 89 44 24 40       	mov    %rax,0x40(%rsp)
  40b118:	48 8b 44 24 50       	mov    0x50(%rsp),%rax
  40b11d:	48 c1 e8 08          	shr    $0x8,%rax
  40b121:	48 89 44 24 38       	mov    %rax,0x38(%rsp)
  40b126:	48 8b 44 24 38       	mov    0x38(%rsp),%rax
  40b12b:	48 c1 e0 08          	shl    $0x8,%rax
  40b12f:	48 89 44 24 30       	mov    %rax,0x30(%rsp)
  40b134:	48 8b 44 24 48       	mov    0x48(%rsp),%rax
  40b139:	48 3b 44 24 38       	cmp    0x38(%rsp),%rax
  40b13e:	0f 85 4b 00 00 00    	jne    40b18f <free+0x13f>
  40b144:	48 8b 4c 24 68       	mov    0x68(%rsp),%rcx
  40b149:	48 8b 44 24 60       	mov    0x60(%rsp),%rax
  40b14e:	48 89 8c 24 80 00 00 	mov    %rcx,0x80(%rsp)
  40b155:	00 
  40b156:	48 89 44 24 78       	mov    %rax,0x78(%rsp)
  40b15b:	48 8b 84 24 80 00 00 	mov    0x80(%rsp),%rax
  40b162:	00 
  40b163:	48 c1 e8 03          	shr    $0x3,%rax
  40b167:	48 05 00 80 ff 7f    	add    $0x7fff8000,%rax
  40b16d:	48 89 44 24 70       	mov    %rax,0x70(%rsp)
  40b172:	48 8b 7c 24 70       	mov    0x70(%rsp),%rdi
  40b177:	48 8b 54 24 78       	mov    0x78(%rsp),%rdx
  40b17c:	48 c1 ea 03          	shr    $0x3,%rdx
  40b180:	be ff 00 00 00       	mov    $0xff,%esi
  40b185:	e8 46 5f ff ff       	callq  4010d0 <memset@plt>
  40b18a:	e9 90 01 00 00       	jmpq   40b31f <free+0x2cf>
  40b18f:	48 8b 44 24 48       	mov    0x48(%rsp),%rax
  40b194:	48 89 44 24 28       	mov    %rax,0x28(%rsp)
  40b199:	48 8b 44 24 28       	mov    0x28(%rsp),%rax
  40b19e:	48 3b 44 24 38       	cmp    0x38(%rsp),%rax
  40b1a3:	0f 85 15 00 00 00    	jne    40b1be <free+0x16e>
  40b1a9:	48 8b 44 24 58       	mov    0x58(%rsp),%rax
  40b1ae:	48 3b 44 24 40       	cmp    0x40(%rsp),%rax
  40b1b3:	0f 85 9d 00 00 00    	jne    40b256 <free+0x206>
  40b1b9:	e9 81 00 00 00       	jmpq   40b23f <free+0x1ef>
  40b1be:	48 8b 04 25 28 82 61 	mov    0x618228,%rax
  40b1c5:	00 
  40b1c6:	48 8b 4c 24 28       	mov    0x28(%rsp),%rcx
  40b1cb:	80 3c 08 00          	cmpb   $0x0,(%rax,%rcx,1)
  40b1cf:	0f 84 43 00 00 00    	je     40b218 <free+0x1c8>
  40b1d5:	48 8b 44 24 28       	mov    0x28(%rsp),%rax
  40b1da:	48 3b 44 24 48       	cmp    0x48(%rsp),%rax
  40b1df:	0f 85 10 00 00 00    	jne    40b1f5 <free+0x1a5>
  40b1e5:	48 8b 44 24 58       	mov    0x58(%rsp),%rax
  40b1ea:	48 3b 44 24 40       	cmp    0x40(%rsp),%rax
  40b1ef:	0f 85 23 00 00 00    	jne    40b218 <free+0x1c8>
  40b1f5:	48 8b 7c 24 28       	mov    0x28(%rsp),%rdi
  40b1fa:	48 c1 e7 08          	shl    $0x8,%rdi
  40b1fe:	48 c1 ef 03          	shr    $0x3,%rdi
  40b202:	48 81 c7 00 80 ff 7f 	add    $0x7fff8000,%rdi
  40b209:	be ff 00 00 00       	mov    $0xff,%esi
  40b20e:	ba 20 00 00 00       	mov    $0x20,%edx
  40b213:	e8 b8 5e ff ff       	callq  4010d0 <memset@plt>
  40b218:	48 8b 04 25 20 82 61 	mov    0x618220,%rax
  40b21f:	00 
  40b220:	48 8b 4c 24 28       	mov    0x28(%rsp),%rcx
  40b225:	c7 04 88 00 00 00 00 	movl   $0x0,(%rax,%rcx,4)
  40b22c:	48 8b 44 24 28       	mov    0x28(%rsp),%rax
  40b231:	48 83 c0 01          	add    $0x1,%rax
  40b235:	48 89 44 24 28       	mov    %rax,0x28(%rsp)
  40b23a:	e9 5a ff ff ff       	jmpq   40b199 <free+0x149>
  40b23f:	48 8b 04 25 28 82 61 	mov    0x618228,%rax
  40b246:	00 
  40b247:	48 8b 4c 24 48       	mov    0x48(%rsp),%rcx
  40b24c:	80 3c 08 00          	cmpb   $0x0,(%rax,%rcx,1)
  40b250:	0f 84 5d 00 00 00    	je     40b2b3 <free+0x263>
  40b256:	48 8b 4c 24 58       	mov    0x58(%rsp),%rcx
  40b25b:	48 8b 44 24 40       	mov    0x40(%rsp),%rax
  40b260:	48 2b 44 24 58       	sub    0x58(%rsp),%rax
  40b265:	48 05 00 01 00 00    	add    $0x100,%rax
  40b26b:	48 89 8c 24 b0 00 00 	mov    %rcx,0xb0(%rsp)
  40b272:	00 
  40b273:	48 89 84 24 a8 00 00 	mov    %rax,0xa8(%rsp)
  40b27a:	00 
  40b27b:	48 8b 84 24 b0 00 00 	mov    0xb0(%rsp),%rax
  40b282:	00 
  40b283:	48 c1 e8 03          	shr    $0x3,%rax
  40b287:	48 05 00 80 ff 7f    	add    $0x7fff8000,%rax
  40b28d:	48 89 84 24 a0 00 00 	mov    %rax,0xa0(%rsp)
  40b294:	00 
  40b295:	48 8b bc 24 a0 00 00 	mov    0xa0(%rsp),%rdi
  40b29c:	00 
  40b29d:	48 8b 94 24 a8 00 00 	mov    0xa8(%rsp),%rdx
  40b2a4:	00 
  40b2a5:	48 c1 ea 03          	shr    $0x3,%rdx
  40b2a9:	be ff 00 00 00       	mov    $0xff,%esi
  40b2ae:	e8 1d 5e ff ff       	callq  4010d0 <memset@plt>
  40b2b3:	48 8b 44 24 50       	mov    0x50(%rsp),%rax
  40b2b8:	48 3b 44 24 30       	cmp    0x30(%rsp),%rax
  40b2bd:	0f 84 57 00 00 00    	je     40b31a <free+0x2ca>
  40b2c3:	48 8b 4c 24 30       	mov    0x30(%rsp),%rcx
  40b2c8:	48 8b 44 24 50       	mov    0x50(%rsp),%rax
  40b2cd:	48 2b 44 24 30       	sub    0x30(%rsp),%rax
  40b2d2:	48 89 8c 24 98 00 00 	mov    %rcx,0x98(%rsp)
  40b2d9:	00 
  40b2da:	48 89 84 24 90 00 00 	mov    %rax,0x90(%rsp)
  40b2e1:	00 
  40b2e2:	48 8b 84 24 98 00 00 	mov    0x98(%rsp),%rax
  40b2e9:	00 
  40b2ea:	48 c1 e8 03          	shr    $0x3,%rax
  40b2ee:	48 05 00 80 ff 7f    	add    $0x7fff8000,%rax
  40b2f4:	48 89 84 24 88 00 00 	mov    %rax,0x88(%rsp)
  40b2fb:	00 
  40b2fc:	48 8b bc 24 88 00 00 	mov    0x88(%rsp),%rdi
  40b303:	00 
  40b304:	48 8b 94 24 90 00 00 	mov    0x90(%rsp),%rdx
  40b30b:	00 
  40b30c:	48 c1 ea 03          	shr    $0x3,%rdx
  40b310:	be ff 00 00 00       	mov    $0xff,%esi
  40b315:	e8 b6 5d ff ff       	callq  4010d0 <memset@plt>
  40b31a:	e9 00 00 00 00       	jmpq   40b31f <free+0x2cf>
  40b31f:	e9 f2 00 00 00       	jmpq   40b416 <free+0x3c6>
  40b324:	48 8b 44 24 20       	mov    0x20(%rsp),%rax
  40b329:	48 89 84 24 d0 00 00 	mov    %rax,0xd0(%rsp)
  40b330:	00 
  40b331:	48 8b 84 24 d0 00 00 	mov    0xd0(%rsp),%rax
  40b338:	00 
  40b339:	48 c1 e8 03          	shr    $0x3,%rax
  40b33d:	48 05 00 80 ff 7f    	add    $0x7fff8000,%rax
  40b343:	48 89 84 24 c8 00 00 	mov    %rax,0xc8(%rsp)
  40b34a:	00 
  40b34b:	48 8b 84 24 c8 00 00 	mov    0xc8(%rsp),%rax
  40b352:	00 
  40b353:	48 89 84 24 c0 00 00 	mov    %rax,0xc0(%rsp)
  40b35a:	00 
  40b35b:	48 8b 84 24 c0 00 00 	mov    0xc0(%rsp),%rax
  40b362:	00 
  40b363:	0f b6 00             	movzbl (%rax),%eax
  40b366:	83 e8 01             	sub    $0x1,%eax
  40b369:	88 84 24 bf 00 00 00 	mov    %al,0xbf(%rsp)
  40b370:	0f b6 8c 24 bf 00 00 	movzbl 0xbf(%rsp),%ecx
  40b377:	00 
  40b378:	83 e1 1f             	and    $0x1f,%ecx
  40b37b:	31 c0                	xor    %eax,%eax
  40b37d:	83 f9 00             	cmp    $0x0,%ecx
  40b380:	88 44 24 07          	mov    %al,0x7(%rsp)
  40b384:	0f 84 14 00 00 00    	je     40b39e <free+0x34e>
  40b38a:	0f b6 84 24 bf 00 00 	movzbl 0xbf(%rsp),%eax
  40b391:	00 
  40b392:	3d ff 00 00 00       	cmp    $0xff,%eax
  40b397:	0f 95 c0             	setne  %al
  40b39a:	88 44 24 07          	mov    %al,0x7(%rsp)
  40b39e:	8a 44 24 07          	mov    0x7(%rsp),%al
  40b3a2:	a8 01                	test   $0x1,%al
  40b3a4:	0f 85 05 00 00 00    	jne    40b3af <free+0x35f>
  40b3aa:	e9 41 00 00 00       	jmpq   40b3f0 <free+0x3a0>
  40b3af:	0f b6 8c 24 bf 00 00 	movzbl 0xbf(%rsp),%ecx
  40b3b6:	00 
  40b3b7:	83 e1 1f             	and    $0x1f,%ecx
  40b3ba:	b8 01 00 00 00       	mov    $0x1,%eax
  40b3bf:	d3 e0                	shl    %cl,%eax
  40b3c1:	83 e8 01             	sub    $0x1,%eax
  40b3c4:	48 98                	cltq   
  40b3c6:	48 03 84 24 c0 00 00 	add    0xc0(%rsp),%rax
  40b3cd:	00 
  40b3ce:	48 89 84 24 c0 00 00 	mov    %rax,0xc0(%rsp)
  40b3d5:	00 
  40b3d6:	48 8b 84 24 c0 00 00 	mov    0xc0(%rsp),%rax
  40b3dd:	00 
  40b3de:	0f b6 00             	movzbl (%rax),%eax
  40b3e1:	83 e8 01             	sub    $0x1,%eax
  40b3e4:	88 84 24 bf 00 00 00 	mov    %al,0xbf(%rsp)
  40b3eb:	e9 80 ff ff ff       	jmpq   40b370 <free+0x320>
  40b3f0:	48 8b bc 24 c8 00 00 	mov    0xc8(%rsp),%rdi
  40b3f7:	00 
  40b3f8:	48 8b 94 24 c0 00 00 	mov    0xc0(%rsp),%rdx
  40b3ff:	00 
  40b400:	48 2b 94 24 c8 00 00 	sub    0xc8(%rsp),%rdx
  40b407:	00 
  40b408:	48 83 c2 01          	add    $0x1,%rdx
  40b40c:	be ff 00 00 00       	mov    $0xff,%esi
  40b411:	e8 ba 5c ff ff       	callq  4010d0 <memset@plt>
  40b416:	c7 44 24 14 00 00 00 	movl   $0x0,0x14(%rsp)
  40b41d:	00 
  40b41e:	48 81 c4 d8 00 00 00 	add    $0xd8,%rsp
  40b425:	c3                   	retq   
  40b426:	66 2e 0f 1f 84 00 00 	nopw   %cs:0x0(%rax,%rax,1)
  40b42d:	00 00 00 

000000000040b430 <cc_malloc_usable_size>:
  40b430:	48 81 ec d8 01 00 00 	sub    $0x1d8,%rsp
  40b437:	48 89 7c 24 20       	mov    %rdi,0x20(%rsp)
  40b43c:	48 8b 7c 24 20       	mov    0x20(%rsp),%rdi
  40b441:	e8 9a 5d ff ff       	callq  4011e0 <malloc_usable_size@plt>
  40b446:	48 89 44 24 18       	mov    %rax,0x18(%rsp)
  40b44b:	48 83 7c 24 18 00    	cmpq   $0x0,0x18(%rsp)
  40b451:	0f 84 64 13 00 00    	je     40c7bb <cc_malloc_usable_size+0x138b>
  40b457:	48 8b 4c 24 20       	mov    0x20(%rsp),%rcx
  40b45c:	48 8b 44 24 18       	mov    0x18(%rsp),%rax
  40b461:	48 89 4c 24 68       	mov    %rcx,0x68(%rsp)
  40b466:	48 89 44 24 60       	mov    %rax,0x60(%rsp)
  40b46b:	48 8b 44 24 68       	mov    0x68(%rsp),%rax
  40b470:	48 89 44 24 58       	mov    %rax,0x58(%rsp)
  40b475:	48 8b 44 24 58       	mov    0x58(%rsp),%rax
  40b47a:	48 03 44 24 60       	add    0x60(%rsp),%rax
  40b47f:	48 89 44 24 50       	mov    %rax,0x50(%rsp)
  40b484:	48 8b 44 24 58       	mov    0x58(%rsp),%rax
  40b489:	48 c1 e8 08          	shr    $0x8,%rax
  40b48d:	48 89 44 24 48       	mov    %rax,0x48(%rsp)
  40b492:	48 8b 44 24 48       	mov    0x48(%rsp),%rax
  40b497:	48 c1 e0 08          	shl    $0x8,%rax
  40b49b:	48 89 44 24 40       	mov    %rax,0x40(%rsp)
  40b4a0:	48 8b 44 24 50       	mov    0x50(%rsp),%rax
  40b4a5:	48 c1 e8 08          	shr    $0x8,%rax
  40b4a9:	48 89 44 24 38       	mov    %rax,0x38(%rsp)
  40b4ae:	48 8b 44 24 38       	mov    0x38(%rsp),%rax
  40b4b3:	48 c1 e0 08          	shl    $0x8,%rax
  40b4b7:	48 89 44 24 30       	mov    %rax,0x30(%rsp)
  40b4bc:	48 8b 44 24 48       	mov    0x48(%rsp),%rax
  40b4c1:	48 3b 44 24 38       	cmp    0x38(%rsp),%rax
  40b4c6:	0f 85 0d 06 00 00    	jne    40bad9 <cc_malloc_usable_size+0x6a9>
  40b4cc:	48 8b 4c 24 68       	mov    0x68(%rsp),%rcx
  40b4d1:	48 8b 44 24 60       	mov    0x60(%rsp),%rax
  40b4d6:	48 89 8c 24 98 00 00 	mov    %rcx,0x98(%rsp)
  40b4dd:	00 
  40b4de:	48 89 84 24 90 00 00 	mov    %rax,0x90(%rsp)
  40b4e5:	00 
  40b4e6:	c6 84 24 8f 00 00 00 	movb   $0x0,0x8f(%rsp)
  40b4ed:	00 
  40b4ee:	48 8b 84 24 98 00 00 	mov    0x98(%rsp),%rax
  40b4f5:	00 
  40b4f6:	48 c1 e8 08          	shr    $0x8,%rax
  40b4fa:	48 89 84 24 80 00 00 	mov    %rax,0x80(%rsp)
  40b501:	00 
  40b502:	48 8b 04 25 08 82 61 	mov    0x618208,%rax
  40b509:	00 
  40b50a:	48 8b 8c 24 80 00 00 	mov    0x80(%rsp),%rcx
  40b511:	00 
  40b512:	80 3c 08 00          	cmpb   $0x0,(%rax,%rcx,1)
  40b516:	0f 85 43 00 00 00    	jne    40b55f <cc_malloc_usable_size+0x12f>
  40b51c:	48 8b 04 25 08 82 61 	mov    0x618208,%rax
  40b523:	00 
  40b524:	48 8b 8c 24 80 00 00 	mov    0x80(%rsp),%rcx
  40b52b:	00 
  40b52c:	c6 04 08 01          	movb   $0x1,(%rax,%rcx,1)
  40b530:	48 8b 84 24 80 00 00 	mov    0x80(%rsp),%rax
  40b537:	00 
  40b538:	48 c1 e0 08          	shl    $0x8,%rax
  40b53c:	48 c1 e8 03          	shr    $0x3,%rax
  40b540:	48 05 00 80 ff 7f    	add    $0x7fff8000,%rax
  40b546:	48 89 44 24 78       	mov    %rax,0x78(%rsp)
  40b54b:	48 8b 7c 24 78       	mov    0x78(%rsp),%rdi
  40b550:	be ff 00 00 00       	mov    $0xff,%esi
  40b555:	ba 20 00 00 00       	mov    $0x20,%edx
  40b55a:	e8 71 5b ff ff       	callq  4010d0 <memset@plt>
  40b55f:	80 bc 24 8f 00 00 00 	cmpb   $0x0,0x8f(%rsp)
  40b566:	00 
  40b567:	0f 85 f7 04 00 00    	jne    40ba64 <cc_malloc_usable_size+0x634>
  40b56d:	48 8b 8c 24 98 00 00 	mov    0x98(%rsp),%rcx
  40b574:	00 
  40b575:	48 8b 84 24 90 00 00 	mov    0x90(%rsp),%rax
  40b57c:	00 
  40b57d:	48 89 8c 24 e0 00 00 	mov    %rcx,0xe0(%rsp)
  40b584:	00 
  40b585:	48 89 84 24 d8 00 00 	mov    %rax,0xd8(%rsp)
  40b58c:	00 
  40b58d:	48 8b 84 24 e0 00 00 	mov    0xe0(%rsp),%rax
  40b594:	00 
  40b595:	48 c1 e8 03          	shr    $0x3,%rax
  40b599:	48 05 00 80 ff 7f    	add    $0x7fff8000,%rax
  40b59f:	48 89 84 24 d0 00 00 	mov    %rax,0xd0(%rsp)
  40b5a6:	00 
  40b5a7:	48 8b 84 24 e0 00 00 	mov    0xe0(%rsp),%rax
  40b5ae:	00 
  40b5af:	48 03 84 24 d8 00 00 	add    0xd8(%rsp),%rax
  40b5b6:	00 
  40b5b7:	48 83 e8 01          	sub    $0x1,%rax
  40b5bb:	48 c1 e8 03          	shr    $0x3,%rax
  40b5bf:	48 05 00 80 ff 7f    	add    $0x7fff8000,%rax
  40b5c5:	48 83 c0 01          	add    $0x1,%rax
  40b5c9:	48 89 84 24 c8 00 00 	mov    %rax,0xc8(%rsp)
  40b5d0:	00 
  40b5d1:	48 81 bc 24 d8 00 00 	cmpq   $0x80,0xd8(%rsp)
  40b5d8:	00 80 00 00 00 
  40b5dd:	0f 87 31 03 00 00    	ja     40b914 <cc_malloc_usable_size+0x4e4>
  40b5e3:	48 8b 84 24 d8 00 00 	mov    0xd8(%rsp),%rax
  40b5ea:	00 
  40b5eb:	48 83 c0 07          	add    $0x7,%rax
  40b5ef:	48 c1 e8 03          	shr    $0x3,%rax
  40b5f3:	48 89 84 24 c0 00 00 	mov    %rax,0xc0(%rsp)
  40b5fa:	00 
  40b5fb:	48 8b 84 24 c0 00 00 	mov    0xc0(%rsp),%rax
  40b602:	00 
  40b603:	48 83 c0 ff          	add    $0xffffffffffffffff,%rax
  40b607:	48 89 44 24 10       	mov    %rax,0x10(%rsp)
  40b60c:	48 83 e8 0f          	sub    $0xf,%rax
  40b610:	0f 87 e9 02 00 00    	ja     40b8ff <cc_malloc_usable_size+0x4cf>
  40b616:	48 8b 44 24 10       	mov    0x10(%rsp),%rax
  40b61b:	48 8b 04 c5 e8 52 41 	mov    0x4152e8(,%rax,8),%rax
  40b622:	00 
  40b623:	ff e0                	jmpq   *%rax
  40b625:	48 8b 84 24 c8 00 00 	mov    0xc8(%rsp),%rax
  40b62c:	00 
  40b62d:	48 83 e8 01          	sub    $0x1,%rax
  40b631:	c6 00 01             	movb   $0x1,(%rax)
  40b634:	e9 cb 02 00 00       	jmpq   40b904 <cc_malloc_usable_size+0x4d4>
  40b639:	48 8b 84 24 c8 00 00 	mov    0xc8(%rsp),%rax
  40b640:	00 
  40b641:	48 83 e8 02          	sub    $0x2,%rax
  40b645:	66 c7 00 02 01       	movw   $0x102,(%rax)
  40b64a:	e9 b5 02 00 00       	jmpq   40b904 <cc_malloc_usable_size+0x4d4>
  40b64f:	48 8b 84 24 c8 00 00 	mov    0xc8(%rsp),%rax
  40b656:	00 
  40b657:	48 83 e8 01          	sub    $0x1,%rax
  40b65b:	c6 00 01             	movb   $0x1,(%rax)
  40b65e:	48 8b 84 24 c8 00 00 	mov    0xc8(%rsp),%rax
  40b665:	00 
  40b666:	48 83 e8 03          	sub    $0x3,%rax
  40b66a:	66 c7 00 02 02       	movw   $0x202,(%rax)
  40b66f:	e9 90 02 00 00       	jmpq   40b904 <cc_malloc_usable_size+0x4d4>
  40b674:	48 8b 84 24 c8 00 00 	mov    0xc8(%rsp),%rax
  40b67b:	00 
  40b67c:	48 83 e8 04          	sub    $0x4,%rax
  40b680:	c7 00 03 02 02 01    	movl   $0x1020203,(%rax)
  40b686:	e9 79 02 00 00       	jmpq   40b904 <cc_malloc_usable_size+0x4d4>
  40b68b:	48 8b 84 24 c8 00 00 	mov    0xc8(%rsp),%rax
  40b692:	00 
  40b693:	48 83 e8 01          	sub    $0x1,%rax
  40b697:	c6 00 01             	movb   $0x1,(%rax)
  40b69a:	48 8b 84 24 c8 00 00 	mov    0xc8(%rsp),%rax
  40b6a1:	00 
  40b6a2:	48 83 e8 05          	sub    $0x5,%rax
  40b6a6:	c7 00 03 03 02 02    	movl   $0x2020303,(%rax)
  40b6ac:	e9 53 02 00 00       	jmpq   40b904 <cc_malloc_usable_size+0x4d4>
  40b6b1:	48 8b 84 24 c8 00 00 	mov    0xc8(%rsp),%rax
  40b6b8:	00 
  40b6b9:	48 83 e8 02          	sub    $0x2,%rax
  40b6bd:	66 c7 00 02 01       	movw   $0x102,(%rax)
  40b6c2:	48 8b 84 24 c8 00 00 	mov    0xc8(%rsp),%rax
  40b6c9:	00 
  40b6ca:	48 83 e8 06          	sub    $0x6,%rax
  40b6ce:	c7 00 03 03 03 02    	movl   $0x2030303,(%rax)
  40b6d4:	e9 2b 02 00 00       	jmpq   40b904 <cc_malloc_usable_size+0x4d4>
  40b6d9:	48 8b 84 24 c8 00 00 	mov    0xc8(%rsp),%rax
  40b6e0:	00 
  40b6e1:	48 83 e8 01          	sub    $0x1,%rax
  40b6e5:	c6 00 01             	movb   $0x1,(%rax)
  40b6e8:	48 8b 84 24 c8 00 00 	mov    0xc8(%rsp),%rax
  40b6ef:	00 
  40b6f0:	48 83 e8 03          	sub    $0x3,%rax
  40b6f4:	66 c7 00 02 02       	movw   $0x202,(%rax)
  40b6f9:	48 8b 84 24 c8 00 00 	mov    0xc8(%rsp),%rax
  40b700:	00 
  40b701:	48 83 e8 07          	sub    $0x7,%rax
  40b705:	c7 00 03 03 03 03    	movl   $0x3030303,(%rax)
  40b70b:	e9 f4 01 00 00       	jmpq   40b904 <cc_malloc_usable_size+0x4d4>
  40b710:	48 8b 84 24 c8 00 00 	mov    0xc8(%rsp),%rax
  40b717:	00 
  40b718:	48 83 e8 08          	sub    $0x8,%rax
  40b71c:	48 b9 04 03 03 03 03 	movabs $0x102020303030304,%rcx
  40b723:	02 02 01 
  40b726:	48 89 08             	mov    %rcx,(%rax)
  40b729:	e9 d6 01 00 00       	jmpq   40b904 <cc_malloc_usable_size+0x4d4>
  40b72e:	48 8b 84 24 c8 00 00 	mov    0xc8(%rsp),%rax
  40b735:	00 
  40b736:	48 83 e8 01          	sub    $0x1,%rax
  40b73a:	c6 00 01             	movb   $0x1,(%rax)
  40b73d:	48 8b 84 24 c8 00 00 	mov    0xc8(%rsp),%rax
  40b744:	00 
  40b745:	48 83 e8 09          	sub    $0x9,%rax
  40b749:	48 b9 04 04 03 03 03 	movabs $0x202030303030404,%rcx
  40b750:	03 02 02 
  40b753:	48 89 08             	mov    %rcx,(%rax)
  40b756:	e9 a9 01 00 00       	jmpq   40b904 <cc_malloc_usable_size+0x4d4>
  40b75b:	48 8b 84 24 c8 00 00 	mov    0xc8(%rsp),%rax
  40b762:	00 
  40b763:	48 83 e8 02          	sub    $0x2,%rax
  40b767:	66 c7 00 02 01       	movw   $0x102,(%rax)
  40b76c:	48 8b 84 24 c8 00 00 	mov    0xc8(%rsp),%rax
  40b773:	00 
  40b774:	48 83 e8 0a          	sub    $0xa,%rax
  40b778:	48 b9 04 04 04 03 03 	movabs $0x203030303040404,%rcx
  40b77f:	03 03 02 
  40b782:	48 89 08             	mov    %rcx,(%rax)
  40b785:	e9 7a 01 00 00       	jmpq   40b904 <cc_malloc_usable_size+0x4d4>
  40b78a:	48 8b 84 24 c8 00 00 	mov    0xc8(%rsp),%rax
  40b791:	00 
  40b792:	48 83 e8 01          	sub    $0x1,%rax
  40b796:	c6 00 01             	movb   $0x1,(%rax)
  40b799:	48 8b 84 24 c8 00 00 	mov    0xc8(%rsp),%rax
  40b7a0:	00 
  40b7a1:	48 83 e8 03          	sub    $0x3,%rax
  40b7a5:	66 c7 00 02 02       	movw   $0x202,(%rax)
  40b7aa:	48 8b 84 24 c8 00 00 	mov    0xc8(%rsp),%rax
  40b7b1:	00 
  40b7b2:	48 83 e8 0b          	sub    $0xb,%rax
  40b7b6:	48 b9 04 04 04 04 03 	movabs $0x303030304040404,%rcx
  40b7bd:	03 03 03 
  40b7c0:	48 89 08             	mov    %rcx,(%rax)
  40b7c3:	e9 3c 01 00 00       	jmpq   40b904 <cc_malloc_usable_size+0x4d4>
  40b7c8:	48 8b 84 24 c8 00 00 	mov    0xc8(%rsp),%rax
  40b7cf:	00 
  40b7d0:	48 83 e8 04          	sub    $0x4,%rax
  40b7d4:	c7 00 03 02 02 01    	movl   $0x1020203,(%rax)
  40b7da:	48 8b 84 24 c8 00 00 	mov    0xc8(%rsp),%rax
  40b7e1:	00 
  40b7e2:	48 83 e8 0c          	sub    $0xc,%rax
  40b7e6:	48 b9 04 04 04 04 04 	movabs $0x303030404040404,%rcx
  40b7ed:	03 03 03 
  40b7f0:	48 89 08             	mov    %rcx,(%rax)
  40b7f3:	e9 0c 01 00 00       	jmpq   40b904 <cc_malloc_usable_size+0x4d4>
  40b7f8:	48 8b 84 24 c8 00 00 	mov    0xc8(%rsp),%rax
  40b7ff:	00 
  40b800:	48 83 e8 01          	sub    $0x1,%rax
  40b804:	c6 00 01             	movb   $0x1,(%rax)
  40b807:	48 8b 84 24 c8 00 00 	mov    0xc8(%rsp),%rax
  40b80e:	00 
  40b80f:	48 83 e8 05          	sub    $0x5,%rax
  40b813:	c7 00 03 03 02 02    	movl   $0x2020303,(%rax)
  40b819:	48 8b 84 24 c8 00 00 	mov    0xc8(%rsp),%rax
  40b820:	00 
  40b821:	48 83 e8 0d          	sub    $0xd,%rax
  40b825:	48 b9 04 04 04 04 04 	movabs $0x303040404040404,%rcx
  40b82c:	04 03 03 
  40b82f:	48 89 08             	mov    %rcx,(%rax)
  40b832:	e9 cd 00 00 00       	jmpq   40b904 <cc_malloc_usable_size+0x4d4>
  40b837:	48 8b 84 24 c8 00 00 	mov    0xc8(%rsp),%rax
  40b83e:	00 
  40b83f:	48 83 e8 02          	sub    $0x2,%rax
  40b843:	66 c7 00 02 01       	movw   $0x102,(%rax)
  40b848:	48 8b 84 24 c8 00 00 	mov    0xc8(%rsp),%rax
  40b84f:	00 
  40b850:	48 83 e8 06          	sub    $0x6,%rax
  40b854:	c7 00 03 03 03 02    	movl   $0x2030303,(%rax)
  40b85a:	48 8b 84 24 c8 00 00 	mov    0xc8(%rsp),%rax
  40b861:	00 
  40b862:	48 83 e8 0e          	sub    $0xe,%rax
  40b866:	48 b9 04 04 04 04 04 	movabs $0x304040404040404,%rcx
  40b86d:	04 04 03 
  40b870:	48 89 08             	mov    %rcx,(%rax)
  40b873:	e9 8c 00 00 00       	jmpq   40b904 <cc_malloc_usable_size+0x4d4>
  40b878:	48 8b 84 24 c8 00 00 	mov    0xc8(%rsp),%rax
  40b87f:	00 
  40b880:	48 83 e8 01          	sub    $0x1,%rax
  40b884:	c6 00 01             	movb   $0x1,(%rax)
  40b887:	48 8b 84 24 c8 00 00 	mov    0xc8(%rsp),%rax
  40b88e:	00 
  40b88f:	48 83 e8 03          	sub    $0x3,%rax
  40b893:	66 c7 00 02 02       	movw   $0x202,(%rax)
  40b898:	48 8b 84 24 c8 00 00 	mov    0xc8(%rsp),%rax
  40b89f:	00 
  40b8a0:	48 83 e8 07          	sub    $0x7,%rax
  40b8a4:	c7 00 03 03 03 03    	movl   $0x3030303,(%rax)
  40b8aa:	48 8b 84 24 c8 00 00 	mov    0xc8(%rsp),%rax
  40b8b1:	00 
  40b8b2:	48 83 e8 0f          	sub    $0xf,%rax
  40b8b6:	48 b9 04 04 04 04 04 	movabs $0x404040404040404,%rcx
  40b8bd:	04 04 04 
  40b8c0:	48 89 08             	mov    %rcx,(%rax)
  40b8c3:	e9 3c 00 00 00       	jmpq   40b904 <cc_malloc_usable_size+0x4d4>
  40b8c8:	48 8b 84 24 c8 00 00 	mov    0xc8(%rsp),%rax
  40b8cf:	00 
  40b8d0:	48 83 e8 08          	sub    $0x8,%rax
  40b8d4:	48 b9 04 03 03 03 03 	movabs $0x102020303030304,%rcx
  40b8db:	02 02 01 
  40b8de:	48 89 08             	mov    %rcx,(%rax)
  40b8e1:	48 8b 84 24 c8 00 00 	mov    0xc8(%rsp),%rax
  40b8e8:	00 
  40b8e9:	48 83 e8 10          	sub    $0x10,%rax
  40b8ed:	48 b9 05 04 04 04 04 	movabs $0x404040404040405,%rcx
  40b8f4:	04 04 04 
  40b8f7:	48 89 08             	mov    %rcx,(%rax)
  40b8fa:	e9 05 00 00 00       	jmpq   40b904 <cc_malloc_usable_size+0x4d4>
  40b8ff:	e9 00 00 00 00       	jmpq   40b904 <cc_malloc_usable_size+0x4d4>
  40b904:	c7 84 24 bc 00 00 00 	movl   $0x1,0xbc(%rsp)
  40b90b:	01 00 00 00 
  40b90f:	e9 4b 01 00 00       	jmpq   40ba5f <cc_malloc_usable_size+0x62f>
  40b914:	48 8b 84 24 c8 00 00 	mov    0xc8(%rsp),%rax
  40b91b:	00 
  40b91c:	48 83 e8 08          	sub    $0x8,%rax
  40b920:	48 b9 04 03 03 03 03 	movabs $0x102020303030304,%rcx
  40b927:	02 02 01 
  40b92a:	48 89 08             	mov    %rcx,(%rax)
  40b92d:	48 8b 84 24 c8 00 00 	mov    0xc8(%rsp),%rax
  40b934:	00 
  40b935:	48 83 e8 10          	sub    $0x10,%rax
  40b939:	48 b9 05 04 04 04 04 	movabs $0x404040404040405,%rcx
  40b940:	04 04 04 
  40b943:	48 89 08             	mov    %rcx,(%rax)
  40b946:	48 c7 84 24 b0 00 00 	movq   $0x4,0xb0(%rsp)
  40b94d:	00 04 00 00 00 
  40b952:	48 8b 84 24 c8 00 00 	mov    0xc8(%rsp),%rax
  40b959:	00 
  40b95a:	48 8b 8c 24 b0 00 00 	mov    0xb0(%rsp),%rcx
  40b961:	00 
  40b962:	ba 01 00 00 00       	mov    $0x1,%edx
  40b967:	d3 e2                	shl    %cl,%edx
  40b969:	89 d1                	mov    %edx,%ecx
  40b96b:	48 63 c9             	movslq %ecx,%rcx
  40b96e:	48 29 c8             	sub    %rcx,%rax
  40b971:	48 3b 84 24 d0 00 00 	cmp    0xd0(%rsp),%rax
  40b978:	00 
  40b979:	0f 83 1b 00 00 00    	jae    40b99a <cc_malloc_usable_size+0x56a>
  40b97f:	c7 84 24 bc 00 00 00 	movl   $0x3,0xbc(%rsp)
  40b986:	03 00 00 00 
  40b98a:	c7 84 24 bc 00 00 00 	movl   $0x0,0xbc(%rsp)
  40b991:	00 00 00 00 
  40b995:	e9 c5 00 00 00       	jmpq   40ba5f <cc_malloc_usable_size+0x62f>
  40b99a:	48 8b 84 24 c8 00 00 	mov    0xc8(%rsp),%rax
  40b9a1:	00 
  40b9a2:	48 8b 8c 24 b0 00 00 	mov    0xb0(%rsp),%rcx
  40b9a9:	00 
  40b9aa:	48 83 c1 01          	add    $0x1,%rcx
  40b9ae:	ba 01 00 00 00       	mov    $0x1,%edx
  40b9b3:	d3 e2                	shl    %cl,%edx
  40b9b5:	89 d1                	mov    %edx,%ecx
  40b9b7:	48 63 c9             	movslq %ecx,%rcx
  40b9ba:	48 29 c8             	sub    %rcx,%rax
  40b9bd:	48 83 c0 01          	add    $0x1,%rax
  40b9c1:	48 89 84 24 a8 00 00 	mov    %rax,0xa8(%rsp)
  40b9c8:	00 
  40b9c9:	48 8b 84 24 c8 00 00 	mov    0xc8(%rsp),%rax
  40b9d0:	00 
  40b9d1:	48 8b 8c 24 b0 00 00 	mov    0xb0(%rsp),%rcx
  40b9d8:	00 
  40b9d9:	ba 01 00 00 00       	mov    $0x1,%edx
  40b9de:	d3 e2                	shl    %cl,%edx
  40b9e0:	89 d1                	mov    %edx,%ecx
  40b9e2:	48 63 c9             	movslq %ecx,%rcx
  40b9e5:	48 29 c8             	sub    %rcx,%rax
  40b9e8:	48 89 84 24 a0 00 00 	mov    %rax,0xa0(%rsp)
  40b9ef:	00 
  40b9f0:	48 8b 84 24 a8 00 00 	mov    0xa8(%rsp),%rax
  40b9f7:	00 
  40b9f8:	48 3b 84 24 d0 00 00 	cmp    0xd0(%rsp),%rax
  40b9ff:	00 
  40ba00:	0f 83 10 00 00 00    	jae    40ba16 <cc_malloc_usable_size+0x5e6>
  40ba06:	48 8b 84 24 d0 00 00 	mov    0xd0(%rsp),%rax
  40ba0d:	00 
  40ba0e:	48 89 84 24 a8 00 00 	mov    %rax,0xa8(%rsp)
  40ba15:	00 
  40ba16:	48 8b bc 24 a8 00 00 	mov    0xa8(%rsp),%rdi
  40ba1d:	00 
  40ba1e:	48 8b 84 24 b0 00 00 	mov    0xb0(%rsp),%rax
  40ba25:	00 
  40ba26:	48 83 c0 01          	add    $0x1,%rax
  40ba2a:	48 8b 94 24 a0 00 00 	mov    0xa0(%rsp),%rdx
  40ba31:	00 
  40ba32:	48 2b 94 24 a8 00 00 	sub    0xa8(%rsp),%rdx
  40ba39:	00 
  40ba3a:	48 83 c2 01          	add    $0x1,%rdx
  40ba3e:	0f b6 f0             	movzbl %al,%esi
  40ba41:	e8 8a 56 ff ff       	callq  4010d0 <memset@plt>
  40ba46:	48 8b 84 24 b0 00 00 	mov    0xb0(%rsp),%rax
  40ba4d:	00 
  40ba4e:	48 83 c0 01          	add    $0x1,%rax
  40ba52:	48 89 84 24 b0 00 00 	mov    %rax,0xb0(%rsp)
  40ba59:	00 
  40ba5a:	e9 f3 fe ff ff       	jmpq   40b952 <cc_malloc_usable_size+0x522>
  40ba5f:	e9 2f 00 00 00       	jmpq   40ba93 <cc_malloc_usable_size+0x663>
  40ba64:	48 8b 84 24 98 00 00 	mov    0x98(%rsp),%rax
  40ba6b:	00 
  40ba6c:	48 c1 e8 03          	shr    $0x3,%rax
  40ba70:	48 05 00 80 ff 7f    	add    $0x7fff8000,%rax
  40ba76:	48 89 44 24 70       	mov    %rax,0x70(%rsp)
  40ba7b:	48 8b 7c 24 70       	mov    0x70(%rsp),%rdi
  40ba80:	48 8b 94 24 90 00 00 	mov    0x90(%rsp),%rdx
  40ba87:	00 
  40ba88:	48 c1 ea 03          	shr    $0x3,%rdx
  40ba8c:	31 f6                	xor    %esi,%esi
  40ba8e:	e8 3d 56 ff ff       	callq  4010d0 <memset@plt>
  40ba93:	48 8b 44 24 60       	mov    0x60(%rsp),%rax
  40ba98:	48 83 e0 07          	and    $0x7,%rax
  40ba9c:	48 83 f8 00          	cmp    $0x0,%rax
  40baa0:	0f 84 2e 00 00 00    	je     40bad4 <cc_malloc_usable_size+0x6a4>
  40baa6:	48 8b 44 24 60       	mov    0x60(%rsp),%rax
  40baab:	48 83 e0 07          	and    $0x7,%rax
  40baaf:	ba 08 00 00 00       	mov    $0x8,%edx
  40bab4:	48 29 c2             	sub    %rax,%rdx
  40bab7:	48 c1 e2 05          	shl    $0x5,%rdx
  40babb:	48 8b 44 24 50       	mov    0x50(%rsp),%rax
  40bac0:	48 c1 e8 03          	shr    $0x3,%rax
  40bac4:	0f b6 88 00 80 ff 7f 	movzbl 0x7fff8000(%rax),%ecx
  40bacb:	48 01 d1             	add    %rdx,%rcx
  40bace:	88 88 00 80 ff 7f    	mov    %cl,0x7fff8000(%rax)
  40bad4:	e9 e2 0c 00 00       	jmpq   40c7bb <cc_malloc_usable_size+0x138b>
  40bad9:	48 8b 44 24 48       	mov    0x48(%rsp),%rax
  40bade:	48 89 44 24 28       	mov    %rax,0x28(%rsp)
  40bae3:	48 8b 44 24 28       	mov    0x28(%rsp),%rax
  40bae8:	48 3b 44 24 38       	cmp    0x38(%rsp),%rax
  40baed:	0f 85 15 00 00 00    	jne    40bb08 <cc_malloc_usable_size+0x6d8>
  40baf3:	48 8b 44 24 58       	mov    0x58(%rsp),%rax
  40baf8:	48 3b 44 24 40       	cmp    0x40(%rsp),%rax
  40bafd:	0f 85 a9 00 00 00    	jne    40bbac <cc_malloc_usable_size+0x77c>
  40bb03:	e9 8d 00 00 00       	jmpq   40bb95 <cc_malloc_usable_size+0x765>
  40bb08:	48 8b 04 25 00 82 61 	mov    0x618200,%rax
  40bb0f:	00 
  40bb10:	48 8b 4c 24 28       	mov    0x28(%rsp),%rcx
  40bb15:	80 3c 08 00          	cmpb   $0x0,(%rax,%rcx,1)
  40bb19:	0f 84 40 00 00 00    	je     40bb5f <cc_malloc_usable_size+0x72f>
  40bb1f:	48 8b 44 24 28       	mov    0x28(%rsp),%rax
  40bb24:	48 3b 44 24 48       	cmp    0x48(%rsp),%rax
  40bb29:	0f 85 10 00 00 00    	jne    40bb3f <cc_malloc_usable_size+0x70f>
  40bb2f:	48 8b 44 24 58       	mov    0x58(%rsp),%rax
  40bb34:	48 3b 44 24 40       	cmp    0x40(%rsp),%rax
  40bb39:	0f 85 20 00 00 00    	jne    40bb5f <cc_malloc_usable_size+0x72f>
  40bb3f:	48 8b 7c 24 28       	mov    0x28(%rsp),%rdi
  40bb44:	48 c1 e7 08          	shl    $0x8,%rdi
  40bb48:	48 c1 ef 03          	shr    $0x3,%rdi
  40bb4c:	48 81 c7 00 80 ff 7f 	add    $0x7fff8000,%rdi
  40bb53:	31 f6                	xor    %esi,%esi
  40bb55:	ba 20 00 00 00       	mov    $0x20,%edx
  40bb5a:	e8 71 55 ff ff       	callq  4010d0 <memset@plt>
  40bb5f:	48 8b 44 24 50       	mov    0x50(%rsp),%rax
  40bb64:	48 8b 4c 24 28       	mov    0x28(%rsp),%rcx
  40bb69:	48 c1 e1 08          	shl    $0x8,%rcx
  40bb6d:	48 29 c8             	sub    %rcx,%rax
  40bb70:	89 c2                	mov    %eax,%edx
  40bb72:	48 8b 04 25 f8 81 61 	mov    0x6181f8,%rax
  40bb79:	00 
  40bb7a:	48 8b 4c 24 28       	mov    0x28(%rsp),%rcx
  40bb7f:	89 14 88             	mov    %edx,(%rax,%rcx,4)
  40bb82:	48 8b 44 24 28       	mov    0x28(%rsp),%rax
  40bb87:	48 83 c0 01          	add    $0x1,%rax
  40bb8b:	48 89 44 24 28       	mov    %rax,0x28(%rsp)
  40bb90:	e9 4e ff ff ff       	jmpq   40bae3 <cc_malloc_usable_size+0x6b3>
  40bb95:	48 8b 04 25 00 82 61 	mov    0x618200,%rax
  40bb9c:	00 
  40bb9d:	48 8b 4c 24 48       	mov    0x48(%rsp),%rcx
  40bba2:	80 3c 08 00          	cmpb   $0x0,(%rax,%rcx,1)
  40bba6:	0f 84 de 05 00 00    	je     40c18a <cc_malloc_usable_size+0xd5a>
  40bbac:	48 8b 4c 24 58       	mov    0x58(%rsp),%rcx
  40bbb1:	48 8b 44 24 40       	mov    0x40(%rsp),%rax
  40bbb6:	48 2b 44 24 58       	sub    0x58(%rsp),%rax
  40bbbb:	48 05 00 01 00 00    	add    $0x100,%rax
  40bbc1:	48 89 8c 24 88 01 00 	mov    %rcx,0x188(%rsp)
  40bbc8:	00 
  40bbc9:	48 89 84 24 80 01 00 	mov    %rax,0x180(%rsp)
  40bbd0:	00 
  40bbd1:	c6 84 24 7f 01 00 00 	movb   $0x1,0x17f(%rsp)
  40bbd8:	01 
  40bbd9:	48 8b 84 24 88 01 00 	mov    0x188(%rsp),%rax
  40bbe0:	00 
  40bbe1:	48 c1 e8 08          	shr    $0x8,%rax
  40bbe5:	48 89 84 24 70 01 00 	mov    %rax,0x170(%rsp)
  40bbec:	00 
  40bbed:	48 8b 04 25 08 82 61 	mov    0x618208,%rax
  40bbf4:	00 
  40bbf5:	48 8b 8c 24 70 01 00 	mov    0x170(%rsp),%rcx
  40bbfc:	00 
  40bbfd:	80 3c 08 00          	cmpb   $0x0,(%rax,%rcx,1)
  40bc01:	0f 85 49 00 00 00    	jne    40bc50 <cc_malloc_usable_size+0x820>
  40bc07:	48 8b 04 25 08 82 61 	mov    0x618208,%rax
  40bc0e:	00 
  40bc0f:	48 8b 8c 24 70 01 00 	mov    0x170(%rsp),%rcx
  40bc16:	00 
  40bc17:	c6 04 08 01          	movb   $0x1,(%rax,%rcx,1)
  40bc1b:	48 8b 84 24 70 01 00 	mov    0x170(%rsp),%rax
  40bc22:	00 
  40bc23:	48 c1 e0 08          	shl    $0x8,%rax
  40bc27:	48 c1 e8 03          	shr    $0x3,%rax
  40bc2b:	48 05 00 80 ff 7f    	add    $0x7fff8000,%rax
  40bc31:	48 89 84 24 68 01 00 	mov    %rax,0x168(%rsp)
  40bc38:	00 
  40bc39:	48 8b bc 24 68 01 00 	mov    0x168(%rsp),%rdi
  40bc40:	00 
  40bc41:	be ff 00 00 00       	mov    $0xff,%esi
  40bc46:	ba 20 00 00 00       	mov    $0x20,%edx
  40bc4b:	e8 80 54 ff ff       	callq  4010d0 <memset@plt>
  40bc50:	80 bc 24 7f 01 00 00 	cmpb   $0x0,0x17f(%rsp)
  40bc57:	00 
  40bc58:	0f 85 f7 04 00 00    	jne    40c155 <cc_malloc_usable_size+0xd25>
  40bc5e:	48 8b 8c 24 88 01 00 	mov    0x188(%rsp),%rcx
  40bc65:	00 
  40bc66:	48 8b 84 24 80 01 00 	mov    0x180(%rsp),%rax
  40bc6d:	00 
  40bc6e:	48 89 8c 24 d0 01 00 	mov    %rcx,0x1d0(%rsp)
  40bc75:	00 
  40bc76:	48 89 84 24 c8 01 00 	mov    %rax,0x1c8(%rsp)
  40bc7d:	00 
  40bc7e:	48 8b 84 24 d0 01 00 	mov    0x1d0(%rsp),%rax
  40bc85:	00 
  40bc86:	48 c1 e8 03          	shr    $0x3,%rax
  40bc8a:	48 05 00 80 ff 7f    	add    $0x7fff8000,%rax
  40bc90:	48 89 84 24 c0 01 00 	mov    %rax,0x1c0(%rsp)
  40bc97:	00 
  40bc98:	48 8b 84 24 d0 01 00 	mov    0x1d0(%rsp),%rax
  40bc9f:	00 
  40bca0:	48 03 84 24 c8 01 00 	add    0x1c8(%rsp),%rax
  40bca7:	00 
  40bca8:	48 83 e8 01          	sub    $0x1,%rax
  40bcac:	48 c1 e8 03          	shr    $0x3,%rax
  40bcb0:	48 05 00 80 ff 7f    	add    $0x7fff8000,%rax
  40bcb6:	48 83 c0 01          	add    $0x1,%rax
  40bcba:	48 89 84 24 b8 01 00 	mov    %rax,0x1b8(%rsp)
  40bcc1:	00 
  40bcc2:	48 81 bc 24 c8 01 00 	cmpq   $0x80,0x1c8(%rsp)
  40bcc9:	00 80 00 00 00 
  40bcce:	0f 87 31 03 00 00    	ja     40c005 <cc_malloc_usable_size+0xbd5>
  40bcd4:	48 8b 84 24 c8 01 00 	mov    0x1c8(%rsp),%rax
  40bcdb:	00 
  40bcdc:	48 83 c0 07          	add    $0x7,%rax
  40bce0:	48 c1 e8 03          	shr    $0x3,%rax
  40bce4:	48 89 84 24 b0 01 00 	mov    %rax,0x1b0(%rsp)
  40bceb:	00 
  40bcec:	48 8b 84 24 b0 01 00 	mov    0x1b0(%rsp),%rax
  40bcf3:	00 
  40bcf4:	48 83 c0 ff          	add    $0xffffffffffffffff,%rax
  40bcf8:	48 89 44 24 08       	mov    %rax,0x8(%rsp)
  40bcfd:	48 83 e8 0f          	sub    $0xf,%rax
  40bd01:	0f 87 e9 02 00 00    	ja     40bff0 <cc_malloc_usable_size+0xbc0>
  40bd07:	48 8b 44 24 08       	mov    0x8(%rsp),%rax
  40bd0c:	48 8b 04 c5 e8 51 41 	mov    0x4151e8(,%rax,8),%rax
  40bd13:	00 
  40bd14:	ff e0                	jmpq   *%rax
  40bd16:	48 8b 84 24 b8 01 00 	mov    0x1b8(%rsp),%rax
  40bd1d:	00 
  40bd1e:	48 83 e8 01          	sub    $0x1,%rax
  40bd22:	c6 00 01             	movb   $0x1,(%rax)
  40bd25:	e9 cb 02 00 00       	jmpq   40bff5 <cc_malloc_usable_size+0xbc5>
  40bd2a:	48 8b 84 24 b8 01 00 	mov    0x1b8(%rsp),%rax
  40bd31:	00 
  40bd32:	48 83 e8 02          	sub    $0x2,%rax
  40bd36:	66 c7 00 02 01       	movw   $0x102,(%rax)
  40bd3b:	e9 b5 02 00 00       	jmpq   40bff5 <cc_malloc_usable_size+0xbc5>
  40bd40:	48 8b 84 24 b8 01 00 	mov    0x1b8(%rsp),%rax
  40bd47:	00 
  40bd48:	48 83 e8 01          	sub    $0x1,%rax
  40bd4c:	c6 00 01             	movb   $0x1,(%rax)
  40bd4f:	48 8b 84 24 b8 01 00 	mov    0x1b8(%rsp),%rax
  40bd56:	00 
  40bd57:	48 83 e8 03          	sub    $0x3,%rax
  40bd5b:	66 c7 00 02 02       	movw   $0x202,(%rax)
  40bd60:	e9 90 02 00 00       	jmpq   40bff5 <cc_malloc_usable_size+0xbc5>
  40bd65:	48 8b 84 24 b8 01 00 	mov    0x1b8(%rsp),%rax
  40bd6c:	00 
  40bd6d:	48 83 e8 04          	sub    $0x4,%rax
  40bd71:	c7 00 03 02 02 01    	movl   $0x1020203,(%rax)
  40bd77:	e9 79 02 00 00       	jmpq   40bff5 <cc_malloc_usable_size+0xbc5>
  40bd7c:	48 8b 84 24 b8 01 00 	mov    0x1b8(%rsp),%rax
  40bd83:	00 
  40bd84:	48 83 e8 01          	sub    $0x1,%rax
  40bd88:	c6 00 01             	movb   $0x1,(%rax)
  40bd8b:	48 8b 84 24 b8 01 00 	mov    0x1b8(%rsp),%rax
  40bd92:	00 
  40bd93:	48 83 e8 05          	sub    $0x5,%rax
  40bd97:	c7 00 03 03 02 02    	movl   $0x2020303,(%rax)
  40bd9d:	e9 53 02 00 00       	jmpq   40bff5 <cc_malloc_usable_size+0xbc5>
  40bda2:	48 8b 84 24 b8 01 00 	mov    0x1b8(%rsp),%rax
  40bda9:	00 
  40bdaa:	48 83 e8 02          	sub    $0x2,%rax
  40bdae:	66 c7 00 02 01       	movw   $0x102,(%rax)
  40bdb3:	48 8b 84 24 b8 01 00 	mov    0x1b8(%rsp),%rax
  40bdba:	00 
  40bdbb:	48 83 e8 06          	sub    $0x6,%rax
  40bdbf:	c7 00 03 03 03 02    	movl   $0x2030303,(%rax)
  40bdc5:	e9 2b 02 00 00       	jmpq   40bff5 <cc_malloc_usable_size+0xbc5>
  40bdca:	48 8b 84 24 b8 01 00 	mov    0x1b8(%rsp),%rax
  40bdd1:	00 
  40bdd2:	48 83 e8 01          	sub    $0x1,%rax
  40bdd6:	c6 00 01             	movb   $0x1,(%rax)
  40bdd9:	48 8b 84 24 b8 01 00 	mov    0x1b8(%rsp),%rax
  40bde0:	00 
  40bde1:	48 83 e8 03          	sub    $0x3,%rax
  40bde5:	66 c7 00 02 02       	movw   $0x202,(%rax)
  40bdea:	48 8b 84 24 b8 01 00 	mov    0x1b8(%rsp),%rax
  40bdf1:	00 
  40bdf2:	48 83 e8 07          	sub    $0x7,%rax
  40bdf6:	c7 00 03 03 03 03    	movl   $0x3030303,(%rax)
  40bdfc:	e9 f4 01 00 00       	jmpq   40bff5 <cc_malloc_usable_size+0xbc5>
  40be01:	48 8b 84 24 b8 01 00 	mov    0x1b8(%rsp),%rax
  40be08:	00 
  40be09:	48 83 e8 08          	sub    $0x8,%rax
  40be0d:	48 b9 04 03 03 03 03 	movabs $0x102020303030304,%rcx
  40be14:	02 02 01 
  40be17:	48 89 08             	mov    %rcx,(%rax)
  40be1a:	e9 d6 01 00 00       	jmpq   40bff5 <cc_malloc_usable_size+0xbc5>
  40be1f:	48 8b 84 24 b8 01 00 	mov    0x1b8(%rsp),%rax
  40be26:	00 
  40be27:	48 83 e8 01          	sub    $0x1,%rax
  40be2b:	c6 00 01             	movb   $0x1,(%rax)
  40be2e:	48 8b 84 24 b8 01 00 	mov    0x1b8(%rsp),%rax
  40be35:	00 
  40be36:	48 83 e8 09          	sub    $0x9,%rax
  40be3a:	48 b9 04 04 03 03 03 	movabs $0x202030303030404,%rcx
  40be41:	03 02 02 
  40be44:	48 89 08             	mov    %rcx,(%rax)
  40be47:	e9 a9 01 00 00       	jmpq   40bff5 <cc_malloc_usable_size+0xbc5>
  40be4c:	48 8b 84 24 b8 01 00 	mov    0x1b8(%rsp),%rax
  40be53:	00 
  40be54:	48 83 e8 02          	sub    $0x2,%rax
  40be58:	66 c7 00 02 01       	movw   $0x102,(%rax)
  40be5d:	48 8b 84 24 b8 01 00 	mov    0x1b8(%rsp),%rax
  40be64:	00 
  40be65:	48 83 e8 0a          	sub    $0xa,%rax
  40be69:	48 b9 04 04 04 03 03 	movabs $0x203030303040404,%rcx
  40be70:	03 03 02 
  40be73:	48 89 08             	mov    %rcx,(%rax)
  40be76:	e9 7a 01 00 00       	jmpq   40bff5 <cc_malloc_usable_size+0xbc5>
  40be7b:	48 8b 84 24 b8 01 00 	mov    0x1b8(%rsp),%rax
  40be82:	00 
  40be83:	48 83 e8 01          	sub    $0x1,%rax
  40be87:	c6 00 01             	movb   $0x1,(%rax)
  40be8a:	48 8b 84 24 b8 01 00 	mov    0x1b8(%rsp),%rax
  40be91:	00 
  40be92:	48 83 e8 03          	sub    $0x3,%rax
  40be96:	66 c7 00 02 02       	movw   $0x202,(%rax)
  40be9b:	48 8b 84 24 b8 01 00 	mov    0x1b8(%rsp),%rax
  40bea2:	00 
  40bea3:	48 83 e8 0b          	sub    $0xb,%rax
  40bea7:	48 b9 04 04 04 04 03 	movabs $0x303030304040404,%rcx
  40beae:	03 03 03 
  40beb1:	48 89 08             	mov    %rcx,(%rax)
  40beb4:	e9 3c 01 00 00       	jmpq   40bff5 <cc_malloc_usable_size+0xbc5>
  40beb9:	48 8b 84 24 b8 01 00 	mov    0x1b8(%rsp),%rax
  40bec0:	00 
  40bec1:	48 83 e8 04          	sub    $0x4,%rax
  40bec5:	c7 00 03 02 02 01    	movl   $0x1020203,(%rax)
  40becb:	48 8b 84 24 b8 01 00 	mov    0x1b8(%rsp),%rax
  40bed2:	00 
  40bed3:	48 83 e8 0c          	sub    $0xc,%rax
  40bed7:	48 b9 04 04 04 04 04 	movabs $0x303030404040404,%rcx
  40bede:	03 03 03 
  40bee1:	48 89 08             	mov    %rcx,(%rax)
  40bee4:	e9 0c 01 00 00       	jmpq   40bff5 <cc_malloc_usable_size+0xbc5>
  40bee9:	48 8b 84 24 b8 01 00 	mov    0x1b8(%rsp),%rax
  40bef0:	00 
  40bef1:	48 83 e8 01          	sub    $0x1,%rax
  40bef5:	c6 00 01             	movb   $0x1,(%rax)
  40bef8:	48 8b 84 24 b8 01 00 	mov    0x1b8(%rsp),%rax
  40beff:	00 
  40bf00:	48 83 e8 05          	sub    $0x5,%rax
  40bf04:	c7 00 03 03 02 02    	movl   $0x2020303,(%rax)
  40bf0a:	48 8b 84 24 b8 01 00 	mov    0x1b8(%rsp),%rax
  40bf11:	00 
  40bf12:	48 83 e8 0d          	sub    $0xd,%rax
  40bf16:	48 b9 04 04 04 04 04 	movabs $0x303040404040404,%rcx
  40bf1d:	04 03 03 
  40bf20:	48 89 08             	mov    %rcx,(%rax)
  40bf23:	e9 cd 00 00 00       	jmpq   40bff5 <cc_malloc_usable_size+0xbc5>
  40bf28:	48 8b 84 24 b8 01 00 	mov    0x1b8(%rsp),%rax
  40bf2f:	00 
  40bf30:	48 83 e8 02          	sub    $0x2,%rax
  40bf34:	66 c7 00 02 01       	movw   $0x102,(%rax)
  40bf39:	48 8b 84 24 b8 01 00 	mov    0x1b8(%rsp),%rax
  40bf40:	00 
  40bf41:	48 83 e8 06          	sub    $0x6,%rax
  40bf45:	c7 00 03 03 03 02    	movl   $0x2030303,(%rax)
  40bf4b:	48 8b 84 24 b8 01 00 	mov    0x1b8(%rsp),%rax
  40bf52:	00 
  40bf53:	48 83 e8 0e          	sub    $0xe,%rax
  40bf57:	48 b9 04 04 04 04 04 	movabs $0x304040404040404,%rcx
  40bf5e:	04 04 03 
  40bf61:	48 89 08             	mov    %rcx,(%rax)
  40bf64:	e9 8c 00 00 00       	jmpq   40bff5 <cc_malloc_usable_size+0xbc5>
  40bf69:	48 8b 84 24 b8 01 00 	mov    0x1b8(%rsp),%rax
  40bf70:	00 
  40bf71:	48 83 e8 01          	sub    $0x1,%rax
  40bf75:	c6 00 01             	movb   $0x1,(%rax)
  40bf78:	48 8b 84 24 b8 01 00 	mov    0x1b8(%rsp),%rax
  40bf7f:	00 
  40bf80:	48 83 e8 03          	sub    $0x3,%rax
  40bf84:	66 c7 00 02 02       	movw   $0x202,(%rax)
  40bf89:	48 8b 84 24 b8 01 00 	mov    0x1b8(%rsp),%rax
  40bf90:	00 
  40bf91:	48 83 e8 07          	sub    $0x7,%rax
  40bf95:	c7 00 03 03 03 03    	movl   $0x3030303,(%rax)
  40bf9b:	48 8b 84 24 b8 01 00 	mov    0x1b8(%rsp),%rax
  40bfa2:	00 
  40bfa3:	48 83 e8 0f          	sub    $0xf,%rax
  40bfa7:	48 b9 04 04 04 04 04 	movabs $0x404040404040404,%rcx
  40bfae:	04 04 04 
  40bfb1:	48 89 08             	mov    %rcx,(%rax)
  40bfb4:	e9 3c 00 00 00       	jmpq   40bff5 <cc_malloc_usable_size+0xbc5>
  40bfb9:	48 8b 84 24 b8 01 00 	mov    0x1b8(%rsp),%rax
  40bfc0:	00 
  40bfc1:	48 83 e8 08          	sub    $0x8,%rax
  40bfc5:	48 b9 04 03 03 03 03 	movabs $0x102020303030304,%rcx
  40bfcc:	02 02 01 
  40bfcf:	48 89 08             	mov    %rcx,(%rax)
  40bfd2:	48 8b 84 24 b8 01 00 	mov    0x1b8(%rsp),%rax
  40bfd9:	00 
  40bfda:	48 83 e8 10          	sub    $0x10,%rax
  40bfde:	48 b9 05 04 04 04 04 	movabs $0x404040404040405,%rcx
  40bfe5:	04 04 04 
  40bfe8:	48 89 08             	mov    %rcx,(%rax)
  40bfeb:	e9 05 00 00 00       	jmpq   40bff5 <cc_malloc_usable_size+0xbc5>
  40bff0:	e9 00 00 00 00       	jmpq   40bff5 <cc_malloc_usable_size+0xbc5>
  40bff5:	c7 84 24 ac 01 00 00 	movl   $0x1,0x1ac(%rsp)
  40bffc:	01 00 00 00 
  40c000:	e9 4b 01 00 00       	jmpq   40c150 <cc_malloc_usable_size+0xd20>
  40c005:	48 8b 84 24 b8 01 00 	mov    0x1b8(%rsp),%rax
  40c00c:	00 
  40c00d:	48 83 e8 08          	sub    $0x8,%rax
  40c011:	48 b9 04 03 03 03 03 	movabs $0x102020303030304,%rcx
  40c018:	02 02 01 
  40c01b:	48 89 08             	mov    %rcx,(%rax)
  40c01e:	48 8b 84 24 b8 01 00 	mov    0x1b8(%rsp),%rax
  40c025:	00 
  40c026:	48 83 e8 10          	sub    $0x10,%rax
  40c02a:	48 b9 05 04 04 04 04 	movabs $0x404040404040405,%rcx
  40c031:	04 04 04 
  40c034:	48 89 08             	mov    %rcx,(%rax)
  40c037:	48 c7 84 24 a0 01 00 	movq   $0x4,0x1a0(%rsp)
  40c03e:	00 04 00 00 00 
  40c043:	48 8b 84 24 b8 01 00 	mov    0x1b8(%rsp),%rax
  40c04a:	00 
  40c04b:	48 8b 8c 24 a0 01 00 	mov    0x1a0(%rsp),%rcx
  40c052:	00 
  40c053:	ba 01 00 00 00       	mov    $0x1,%edx
  40c058:	d3 e2                	shl    %cl,%edx
  40c05a:	89 d1                	mov    %edx,%ecx
  40c05c:	48 63 c9             	movslq %ecx,%rcx
  40c05f:	48 29 c8             	sub    %rcx,%rax
  40c062:	48 3b 84 24 c0 01 00 	cmp    0x1c0(%rsp),%rax
  40c069:	00 
  40c06a:	0f 83 1b 00 00 00    	jae    40c08b <cc_malloc_usable_size+0xc5b>
  40c070:	c7 84 24 ac 01 00 00 	movl   $0x3,0x1ac(%rsp)
  40c077:	03 00 00 00 
  40c07b:	c7 84 24 ac 01 00 00 	movl   $0x0,0x1ac(%rsp)
  40c082:	00 00 00 00 
  40c086:	e9 c5 00 00 00       	jmpq   40c150 <cc_malloc_usable_size+0xd20>
  40c08b:	48 8b 84 24 b8 01 00 	mov    0x1b8(%rsp),%rax
  40c092:	00 
  40c093:	48 8b 8c 24 a0 01 00 	mov    0x1a0(%rsp),%rcx
  40c09a:	00 
  40c09b:	48 83 c1 01          	add    $0x1,%rcx
  40c09f:	ba 01 00 00 00       	mov    $0x1,%edx
  40c0a4:	d3 e2                	shl    %cl,%edx
  40c0a6:	89 d1                	mov    %edx,%ecx
  40c0a8:	48 63 c9             	movslq %ecx,%rcx
  40c0ab:	48 29 c8             	sub    %rcx,%rax
  40c0ae:	48 83 c0 01          	add    $0x1,%rax
  40c0b2:	48 89 84 24 98 01 00 	mov    %rax,0x198(%rsp)
  40c0b9:	00 
  40c0ba:	48 8b 84 24 b8 01 00 	mov    0x1b8(%rsp),%rax
  40c0c1:	00 
  40c0c2:	48 8b 8c 24 a0 01 00 	mov    0x1a0(%rsp),%rcx
  40c0c9:	00 
  40c0ca:	ba 01 00 00 00       	mov    $0x1,%edx
  40c0cf:	d3 e2                	shl    %cl,%edx
  40c0d1:	89 d1                	mov    %edx,%ecx
  40c0d3:	48 63 c9             	movslq %ecx,%rcx
  40c0d6:	48 29 c8             	sub    %rcx,%rax
  40c0d9:	48 89 84 24 90 01 00 	mov    %rax,0x190(%rsp)
  40c0e0:	00 
  40c0e1:	48 8b 84 24 98 01 00 	mov    0x198(%rsp),%rax
  40c0e8:	00 
  40c0e9:	48 3b 84 24 c0 01 00 	cmp    0x1c0(%rsp),%rax
  40c0f0:	00 
  40c0f1:	0f 83 10 00 00 00    	jae    40c107 <cc_malloc_usable_size+0xcd7>
  40c0f7:	48 8b 84 24 c0 01 00 	mov    0x1c0(%rsp),%rax
  40c0fe:	00 
  40c0ff:	48 89 84 24 98 01 00 	mov    %rax,0x198(%rsp)
  40c106:	00 
  40c107:	48 8b bc 24 98 01 00 	mov    0x198(%rsp),%rdi
  40c10e:	00 
  40c10f:	48 8b 84 24 a0 01 00 	mov    0x1a0(%rsp),%rax
  40c116:	00 
  40c117:	48 83 c0 01          	add    $0x1,%rax
  40c11b:	48 8b 94 24 90 01 00 	mov    0x190(%rsp),%rdx
  40c122:	00 
  40c123:	48 2b 94 24 98 01 00 	sub    0x198(%rsp),%rdx
  40c12a:	00 
  40c12b:	48 83 c2 01          	add    $0x1,%rdx
  40c12f:	0f b6 f0             	movzbl %al,%esi
  40c132:	e8 99 4f ff ff       	callq  4010d0 <memset@plt>
  40c137:	48 8b 84 24 a0 01 00 	mov    0x1a0(%rsp),%rax
  40c13e:	00 
  40c13f:	48 83 c0 01          	add    $0x1,%rax
  40c143:	48 89 84 24 a0 01 00 	mov    %rax,0x1a0(%rsp)
  40c14a:	00 
  40c14b:	e9 f3 fe ff ff       	jmpq   40c043 <cc_malloc_usable_size+0xc13>
  40c150:	e9 35 00 00 00       	jmpq   40c18a <cc_malloc_usable_size+0xd5a>
  40c155:	48 8b 84 24 88 01 00 	mov    0x188(%rsp),%rax
  40c15c:	00 
  40c15d:	48 c1 e8 03          	shr    $0x3,%rax
  40c161:	48 05 00 80 ff 7f    	add    $0x7fff8000,%rax
  40c167:	48 89 84 24 60 01 00 	mov    %rax,0x160(%rsp)
  40c16e:	00 
  40c16f:	48 8b bc 24 60 01 00 	mov    0x160(%rsp),%rdi
  40c176:	00 
  40c177:	48 8b 94 24 80 01 00 	mov    0x180(%rsp),%rdx
  40c17e:	00 
  40c17f:	48 c1 ea 03          	shr    $0x3,%rdx
  40c183:	31 f6                	xor    %esi,%esi
  40c185:	e8 46 4f ff ff       	callq  4010d0 <memset@plt>
  40c18a:	48 8b 44 24 50       	mov    0x50(%rsp),%rax
  40c18f:	48 3b 44 24 30       	cmp    0x30(%rsp),%rax
  40c194:	0f 84 1c 06 00 00    	je     40c7b6 <cc_malloc_usable_size+0x1386>
  40c19a:	48 8b 4c 24 30       	mov    0x30(%rsp),%rcx
  40c19f:	48 8b 44 24 50       	mov    0x50(%rsp),%rax
  40c1a4:	48 2b 44 24 30       	sub    0x30(%rsp),%rax
  40c1a9:	48 89 8c 24 10 01 00 	mov    %rcx,0x110(%rsp)
  40c1b0:	00 
  40c1b1:	48 89 84 24 08 01 00 	mov    %rax,0x108(%rsp)
  40c1b8:	00 
  40c1b9:	c6 84 24 07 01 00 00 	movb   $0x0,0x107(%rsp)
  40c1c0:	00 
  40c1c1:	48 8b 84 24 10 01 00 	mov    0x110(%rsp),%rax
  40c1c8:	00 
  40c1c9:	48 c1 e8 08          	shr    $0x8,%rax
  40c1cd:	48 89 84 24 f8 00 00 	mov    %rax,0xf8(%rsp)
  40c1d4:	00 
  40c1d5:	48 8b 04 25 08 82 61 	mov    0x618208,%rax
  40c1dc:	00 
  40c1dd:	48 8b 8c 24 f8 00 00 	mov    0xf8(%rsp),%rcx
  40c1e4:	00 
  40c1e5:	80 3c 08 00          	cmpb   $0x0,(%rax,%rcx,1)
  40c1e9:	0f 85 49 00 00 00    	jne    40c238 <cc_malloc_usable_size+0xe08>
  40c1ef:	48 8b 04 25 08 82 61 	mov    0x618208,%rax
  40c1f6:	00 
  40c1f7:	48 8b 8c 24 f8 00 00 	mov    0xf8(%rsp),%rcx
  40c1fe:	00 
  40c1ff:	c6 04 08 01          	movb   $0x1,(%rax,%rcx,1)
  40c203:	48 8b 84 24 f8 00 00 	mov    0xf8(%rsp),%rax
  40c20a:	00 
  40c20b:	48 c1 e0 08          	shl    $0x8,%rax
  40c20f:	48 c1 e8 03          	shr    $0x3,%rax
  40c213:	48 05 00 80 ff 7f    	add    $0x7fff8000,%rax
  40c219:	48 89 84 24 f0 00 00 	mov    %rax,0xf0(%rsp)
  40c220:	00 
  40c221:	48 8b bc 24 f0 00 00 	mov    0xf0(%rsp),%rdi
  40c228:	00 
  40c229:	be ff 00 00 00       	mov    $0xff,%esi
  40c22e:	ba 20 00 00 00       	mov    $0x20,%edx
  40c233:	e8 98 4e ff ff       	callq  4010d0 <memset@plt>
  40c238:	80 bc 24 07 01 00 00 	cmpb   $0x0,0x107(%rsp)
  40c23f:	00 
  40c240:	0f 85 f5 04 00 00    	jne    40c73b <cc_malloc_usable_size+0x130b>
  40c246:	48 8b 8c 24 10 01 00 	mov    0x110(%rsp),%rcx
  40c24d:	00 
  40c24e:	48 8b 84 24 08 01 00 	mov    0x108(%rsp),%rax
  40c255:	00 
  40c256:	48 89 8c 24 58 01 00 	mov    %rcx,0x158(%rsp)
  40c25d:	00 
  40c25e:	48 89 84 24 50 01 00 	mov    %rax,0x150(%rsp)
  40c265:	00 
  40c266:	48 8b 84 24 58 01 00 	mov    0x158(%rsp),%rax
  40c26d:	00 
  40c26e:	48 c1 e8 03          	shr    $0x3,%rax
  40c272:	48 05 00 80 ff 7f    	add    $0x7fff8000,%rax
  40c278:	48 89 84 24 48 01 00 	mov    %rax,0x148(%rsp)
  40c27f:	00 
  40c280:	48 8b 84 24 58 01 00 	mov    0x158(%rsp),%rax
  40c287:	00 
  40c288:	48 03 84 24 50 01 00 	add    0x150(%rsp),%rax
  40c28f:	00 
  40c290:	48 83 e8 01          	sub    $0x1,%rax
  40c294:	48 c1 e8 03          	shr    $0x3,%rax
  40c298:	48 05 00 80 ff 7f    	add    $0x7fff8000,%rax
  40c29e:	48 83 c0 01          	add    $0x1,%rax
  40c2a2:	48 89 84 24 40 01 00 	mov    %rax,0x140(%rsp)
  40c2a9:	00 
  40c2aa:	48 81 bc 24 50 01 00 	cmpq   $0x80,0x150(%rsp)
  40c2b1:	00 80 00 00 00 
  40c2b6:	0f 87 2f 03 00 00    	ja     40c5eb <cc_malloc_usable_size+0x11bb>
  40c2bc:	48 8b 84 24 50 01 00 	mov    0x150(%rsp),%rax
  40c2c3:	00 
  40c2c4:	48 83 c0 07          	add    $0x7,%rax
  40c2c8:	48 c1 e8 03          	shr    $0x3,%rax
  40c2cc:	48 89 84 24 38 01 00 	mov    %rax,0x138(%rsp)
  40c2d3:	00 
  40c2d4:	48 8b 84 24 38 01 00 	mov    0x138(%rsp),%rax
  40c2db:	00 
  40c2dc:	48 83 c0 ff          	add    $0xffffffffffffffff,%rax
  40c2e0:	48 89 04 24          	mov    %rax,(%rsp)
  40c2e4:	48 83 e8 0f          	sub    $0xf,%rax
  40c2e8:	0f 87 e8 02 00 00    	ja     40c5d6 <cc_malloc_usable_size+0x11a6>
  40c2ee:	48 8b 04 24          	mov    (%rsp),%rax
  40c2f2:	48 8b 04 c5 68 52 41 	mov    0x415268(,%rax,8),%rax
  40c2f9:	00 
  40c2fa:	ff e0                	jmpq   *%rax
  40c2fc:	48 8b 84 24 40 01 00 	mov    0x140(%rsp),%rax
  40c303:	00 
  40c304:	48 83 e8 01          	sub    $0x1,%rax
  40c308:	c6 00 01             	movb   $0x1,(%rax)
  40c30b:	e9 cb 02 00 00       	jmpq   40c5db <cc_malloc_usable_size+0x11ab>
  40c310:	48 8b 84 24 40 01 00 	mov    0x140(%rsp),%rax
  40c317:	00 
  40c318:	48 83 e8 02          	sub    $0x2,%rax
  40c31c:	66 c7 00 02 01       	movw   $0x102,(%rax)
  40c321:	e9 b5 02 00 00       	jmpq   40c5db <cc_malloc_usable_size+0x11ab>
  40c326:	48 8b 84 24 40 01 00 	mov    0x140(%rsp),%rax
  40c32d:	00 
  40c32e:	48 83 e8 01          	sub    $0x1,%rax
  40c332:	c6 00 01             	movb   $0x1,(%rax)
  40c335:	48 8b 84 24 40 01 00 	mov    0x140(%rsp),%rax
  40c33c:	00 
  40c33d:	48 83 e8 03          	sub    $0x3,%rax
  40c341:	66 c7 00 02 02       	movw   $0x202,(%rax)
  40c346:	e9 90 02 00 00       	jmpq   40c5db <cc_malloc_usable_size+0x11ab>
  40c34b:	48 8b 84 24 40 01 00 	mov    0x140(%rsp),%rax
  40c352:	00 
  40c353:	48 83 e8 04          	sub    $0x4,%rax
  40c357:	c7 00 03 02 02 01    	movl   $0x1020203,(%rax)
  40c35d:	e9 79 02 00 00       	jmpq   40c5db <cc_malloc_usable_size+0x11ab>
  40c362:	48 8b 84 24 40 01 00 	mov    0x140(%rsp),%rax
  40c369:	00 
  40c36a:	48 83 e8 01          	sub    $0x1,%rax
  40c36e:	c6 00 01             	movb   $0x1,(%rax)
  40c371:	48 8b 84 24 40 01 00 	mov    0x140(%rsp),%rax
  40c378:	00 
  40c379:	48 83 e8 05          	sub    $0x5,%rax
  40c37d:	c7 00 03 03 02 02    	movl   $0x2020303,(%rax)
  40c383:	e9 53 02 00 00       	jmpq   40c5db <cc_malloc_usable_size+0x11ab>
  40c388:	48 8b 84 24 40 01 00 	mov    0x140(%rsp),%rax
  40c38f:	00 
  40c390:	48 83 e8 02          	sub    $0x2,%rax
  40c394:	66 c7 00 02 01       	movw   $0x102,(%rax)
  40c399:	48 8b 84 24 40 01 00 	mov    0x140(%rsp),%rax
  40c3a0:	00 
  40c3a1:	48 83 e8 06          	sub    $0x6,%rax
  40c3a5:	c7 00 03 03 03 02    	movl   $0x2030303,(%rax)
  40c3ab:	e9 2b 02 00 00       	jmpq   40c5db <cc_malloc_usable_size+0x11ab>
  40c3b0:	48 8b 84 24 40 01 00 	mov    0x140(%rsp),%rax
  40c3b7:	00 
  40c3b8:	48 83 e8 01          	sub    $0x1,%rax
  40c3bc:	c6 00 01             	movb   $0x1,(%rax)
  40c3bf:	48 8b 84 24 40 01 00 	mov    0x140(%rsp),%rax
  40c3c6:	00 
  40c3c7:	48 83 e8 03          	sub    $0x3,%rax
  40c3cb:	66 c7 00 02 02       	movw   $0x202,(%rax)
  40c3d0:	48 8b 84 24 40 01 00 	mov    0x140(%rsp),%rax
  40c3d7:	00 
  40c3d8:	48 83 e8 07          	sub    $0x7,%rax
  40c3dc:	c7 00 03 03 03 03    	movl   $0x3030303,(%rax)
  40c3e2:	e9 f4 01 00 00       	jmpq   40c5db <cc_malloc_usable_size+0x11ab>
  40c3e7:	48 8b 84 24 40 01 00 	mov    0x140(%rsp),%rax
  40c3ee:	00 
  40c3ef:	48 83 e8 08          	sub    $0x8,%rax
  40c3f3:	48 b9 04 03 03 03 03 	movabs $0x102020303030304,%rcx
  40c3fa:	02 02 01 
  40c3fd:	48 89 08             	mov    %rcx,(%rax)
  40c400:	e9 d6 01 00 00       	jmpq   40c5db <cc_malloc_usable_size+0x11ab>
  40c405:	48 8b 84 24 40 01 00 	mov    0x140(%rsp),%rax
  40c40c:	00 
  40c40d:	48 83 e8 01          	sub    $0x1,%rax
  40c411:	c6 00 01             	movb   $0x1,(%rax)
  40c414:	48 8b 84 24 40 01 00 	mov    0x140(%rsp),%rax
  40c41b:	00 
  40c41c:	48 83 e8 09          	sub    $0x9,%rax
  40c420:	48 b9 04 04 03 03 03 	movabs $0x202030303030404,%rcx
  40c427:	03 02 02 
  40c42a:	48 89 08             	mov    %rcx,(%rax)
  40c42d:	e9 a9 01 00 00       	jmpq   40c5db <cc_malloc_usable_size+0x11ab>
  40c432:	48 8b 84 24 40 01 00 	mov    0x140(%rsp),%rax
  40c439:	00 
  40c43a:	48 83 e8 02          	sub    $0x2,%rax
  40c43e:	66 c7 00 02 01       	movw   $0x102,(%rax)
  40c443:	48 8b 84 24 40 01 00 	mov    0x140(%rsp),%rax
  40c44a:	00 
  40c44b:	48 83 e8 0a          	sub    $0xa,%rax
  40c44f:	48 b9 04 04 04 03 03 	movabs $0x203030303040404,%rcx
  40c456:	03 03 02 
  40c459:	48 89 08             	mov    %rcx,(%rax)
  40c45c:	e9 7a 01 00 00       	jmpq   40c5db <cc_malloc_usable_size+0x11ab>
  40c461:	48 8b 84 24 40 01 00 	mov    0x140(%rsp),%rax
  40c468:	00 
  40c469:	48 83 e8 01          	sub    $0x1,%rax
  40c46d:	c6 00 01             	movb   $0x1,(%rax)
  40c470:	48 8b 84 24 40 01 00 	mov    0x140(%rsp),%rax
  40c477:	00 
  40c478:	48 83 e8 03          	sub    $0x3,%rax
  40c47c:	66 c7 00 02 02       	movw   $0x202,(%rax)
  40c481:	48 8b 84 24 40 01 00 	mov    0x140(%rsp),%rax
  40c488:	00 
  40c489:	48 83 e8 0b          	sub    $0xb,%rax
  40c48d:	48 b9 04 04 04 04 03 	movabs $0x303030304040404,%rcx
  40c494:	03 03 03 
  40c497:	48 89 08             	mov    %rcx,(%rax)
  40c49a:	e9 3c 01 00 00       	jmpq   40c5db <cc_malloc_usable_size+0x11ab>
  40c49f:	48 8b 84 24 40 01 00 	mov    0x140(%rsp),%rax
  40c4a6:	00 
  40c4a7:	48 83 e8 04          	sub    $0x4,%rax
  40c4ab:	c7 00 03 02 02 01    	movl   $0x1020203,(%rax)
  40c4b1:	48 8b 84 24 40 01 00 	mov    0x140(%rsp),%rax
  40c4b8:	00 
  40c4b9:	48 83 e8 0c          	sub    $0xc,%rax
  40c4bd:	48 b9 04 04 04 04 04 	movabs $0x303030404040404,%rcx
  40c4c4:	03 03 03 
  40c4c7:	48 89 08             	mov    %rcx,(%rax)
  40c4ca:	e9 0c 01 00 00       	jmpq   40c5db <cc_malloc_usable_size+0x11ab>
  40c4cf:	48 8b 84 24 40 01 00 	mov    0x140(%rsp),%rax
  40c4d6:	00 
  40c4d7:	48 83 e8 01          	sub    $0x1,%rax
  40c4db:	c6 00 01             	movb   $0x1,(%rax)
  40c4de:	48 8b 84 24 40 01 00 	mov    0x140(%rsp),%rax
  40c4e5:	00 
  40c4e6:	48 83 e8 05          	sub    $0x5,%rax
  40c4ea:	c7 00 03 03 02 02    	movl   $0x2020303,(%rax)
  40c4f0:	48 8b 84 24 40 01 00 	mov    0x140(%rsp),%rax
  40c4f7:	00 
  40c4f8:	48 83 e8 0d          	sub    $0xd,%rax
  40c4fc:	48 b9 04 04 04 04 04 	movabs $0x303040404040404,%rcx
  40c503:	04 03 03 
  40c506:	48 89 08             	mov    %rcx,(%rax)
  40c509:	e9 cd 00 00 00       	jmpq   40c5db <cc_malloc_usable_size+0x11ab>
  40c50e:	48 8b 84 24 40 01 00 	mov    0x140(%rsp),%rax
  40c515:	00 
  40c516:	48 83 e8 02          	sub    $0x2,%rax
  40c51a:	66 c7 00 02 01       	movw   $0x102,(%rax)
  40c51f:	48 8b 84 24 40 01 00 	mov    0x140(%rsp),%rax
  40c526:	00 
  40c527:	48 83 e8 06          	sub    $0x6,%rax
  40c52b:	c7 00 03 03 03 02    	movl   $0x2030303,(%rax)
  40c531:	48 8b 84 24 40 01 00 	mov    0x140(%rsp),%rax
  40c538:	00 
  40c539:	48 83 e8 0e          	sub    $0xe,%rax
  40c53d:	48 b9 04 04 04 04 04 	movabs $0x304040404040404,%rcx
  40c544:	04 04 03 
  40c547:	48 89 08             	mov    %rcx,(%rax)
  40c54a:	e9 8c 00 00 00       	jmpq   40c5db <cc_malloc_usable_size+0x11ab>
  40c54f:	48 8b 84 24 40 01 00 	mov    0x140(%rsp),%rax
  40c556:	00 
  40c557:	48 83 e8 01          	sub    $0x1,%rax
  40c55b:	c6 00 01             	movb   $0x1,(%rax)
  40c55e:	48 8b 84 24 40 01 00 	mov    0x140(%rsp),%rax
  40c565:	00 
  40c566:	48 83 e8 03          	sub    $0x3,%rax
  40c56a:	66 c7 00 02 02       	movw   $0x202,(%rax)
  40c56f:	48 8b 84 24 40 01 00 	mov    0x140(%rsp),%rax
  40c576:	00 
  40c577:	48 83 e8 07          	sub    $0x7,%rax
  40c57b:	c7 00 03 03 03 03    	movl   $0x3030303,(%rax)
  40c581:	48 8b 84 24 40 01 00 	mov    0x140(%rsp),%rax
  40c588:	00 
  40c589:	48 83 e8 0f          	sub    $0xf,%rax
  40c58d:	48 b9 04 04 04 04 04 	movabs $0x404040404040404,%rcx
  40c594:	04 04 04 
  40c597:	48 89 08             	mov    %rcx,(%rax)
  40c59a:	e9 3c 00 00 00       	jmpq   40c5db <cc_malloc_usable_size+0x11ab>
  40c59f:	48 8b 84 24 40 01 00 	mov    0x140(%rsp),%rax
  40c5a6:	00 
  40c5a7:	48 83 e8 08          	sub    $0x8,%rax
  40c5ab:	48 b9 04 03 03 03 03 	movabs $0x102020303030304,%rcx
  40c5b2:	02 02 01 
  40c5b5:	48 89 08             	mov    %rcx,(%rax)
  40c5b8:	48 8b 84 24 40 01 00 	mov    0x140(%rsp),%rax
  40c5bf:	00 
  40c5c0:	48 83 e8 10          	sub    $0x10,%rax
  40c5c4:	48 b9 05 04 04 04 04 	movabs $0x404040404040405,%rcx
  40c5cb:	04 04 04 
  40c5ce:	48 89 08             	mov    %rcx,(%rax)
  40c5d1:	e9 05 00 00 00       	jmpq   40c5db <cc_malloc_usable_size+0x11ab>
  40c5d6:	e9 00 00 00 00       	jmpq   40c5db <cc_malloc_usable_size+0x11ab>
  40c5db:	c7 84 24 34 01 00 00 	movl   $0x1,0x134(%rsp)
  40c5e2:	01 00 00 00 
  40c5e6:	e9 4b 01 00 00       	jmpq   40c736 <cc_malloc_usable_size+0x1306>
  40c5eb:	48 8b 84 24 40 01 00 	mov    0x140(%rsp),%rax
  40c5f2:	00 
  40c5f3:	48 83 e8 08          	sub    $0x8,%rax
  40c5f7:	48 b9 04 03 03 03 03 	movabs $0x102020303030304,%rcx
  40c5fe:	02 02 01 
  40c601:	48 89 08             	mov    %rcx,(%rax)
  40c604:	48 8b 84 24 40 01 00 	mov    0x140(%rsp),%rax
  40c60b:	00 
  40c60c:	48 83 e8 10          	sub    $0x10,%rax
  40c610:	48 b9 05 04 04 04 04 	movabs $0x404040404040405,%rcx
  40c617:	04 04 04 
  40c61a:	48 89 08             	mov    %rcx,(%rax)
  40c61d:	48 c7 84 24 28 01 00 	movq   $0x4,0x128(%rsp)
  40c624:	00 04 00 00 00 
  40c629:	48 8b 84 24 40 01 00 	mov    0x140(%rsp),%rax
  40c630:	00 
  40c631:	48 8b 8c 24 28 01 00 	mov    0x128(%rsp),%rcx
  40c638:	00 
  40c639:	ba 01 00 00 00       	mov    $0x1,%edx
  40c63e:	d3 e2                	shl    %cl,%edx
  40c640:	89 d1                	mov    %edx,%ecx
  40c642:	48 63 c9             	movslq %ecx,%rcx
  40c645:	48 29 c8             	sub    %rcx,%rax
  40c648:	48 3b 84 24 48 01 00 	cmp    0x148(%rsp),%rax
  40c64f:	00 
  40c650:	0f 83 1b 00 00 00    	jae    40c671 <cc_malloc_usable_size+0x1241>
  40c656:	c7 84 24 34 01 00 00 	movl   $0x3,0x134(%rsp)
  40c65d:	03 00 00 00 
  40c661:	c7 84 24 34 01 00 00 	movl   $0x0,0x134(%rsp)
  40c668:	00 00 00 00 
  40c66c:	e9 c5 00 00 00       	jmpq   40c736 <cc_malloc_usable_size+0x1306>
  40c671:	48 8b 84 24 40 01 00 	mov    0x140(%rsp),%rax
  40c678:	00 
  40c679:	48 8b 8c 24 28 01 00 	mov    0x128(%rsp),%rcx
  40c680:	00 
  40c681:	48 83 c1 01          	add    $0x1,%rcx
  40c685:	ba 01 00 00 00       	mov    $0x1,%edx
  40c68a:	d3 e2                	shl    %cl,%edx
  40c68c:	89 d1                	mov    %edx,%ecx
  40c68e:	48 63 c9             	movslq %ecx,%rcx
  40c691:	48 29 c8             	sub    %rcx,%rax
  40c694:	48 83 c0 01          	add    $0x1,%rax
  40c698:	48 89 84 24 20 01 00 	mov    %rax,0x120(%rsp)
  40c69f:	00 
  40c6a0:	48 8b 84 24 40 01 00 	mov    0x140(%rsp),%rax
  40c6a7:	00 
  40c6a8:	48 8b 8c 24 28 01 00 	mov    0x128(%rsp),%rcx
  40c6af:	00 
  40c6b0:	ba 01 00 00 00       	mov    $0x1,%edx
  40c6b5:	d3 e2                	shl    %cl,%edx
  40c6b7:	89 d1                	mov    %edx,%ecx
  40c6b9:	48 63 c9             	movslq %ecx,%rcx
  40c6bc:	48 29 c8             	sub    %rcx,%rax
  40c6bf:	48 89 84 24 18 01 00 	mov    %rax,0x118(%rsp)
  40c6c6:	00 
  40c6c7:	48 8b 84 24 20 01 00 	mov    0x120(%rsp),%rax
  40c6ce:	00 
  40c6cf:	48 3b 84 24 48 01 00 	cmp    0x148(%rsp),%rax
  40c6d6:	00 
  40c6d7:	0f 83 10 00 00 00    	jae    40c6ed <cc_malloc_usable_size+0x12bd>
  40c6dd:	48 8b 84 24 48 01 00 	mov    0x148(%rsp),%rax
  40c6e4:	00 
  40c6e5:	48 89 84 24 20 01 00 	mov    %rax,0x120(%rsp)
  40c6ec:	00 
  40c6ed:	48 8b bc 24 20 01 00 	mov    0x120(%rsp),%rdi
  40c6f4:	00 
  40c6f5:	48 8b 84 24 28 01 00 	mov    0x128(%rsp),%rax
  40c6fc:	00 
  40c6fd:	48 83 c0 01          	add    $0x1,%rax
  40c701:	48 8b 94 24 18 01 00 	mov    0x118(%rsp),%rdx
  40c708:	00 
  40c709:	48 2b 94 24 20 01 00 	sub    0x120(%rsp),%rdx
  40c710:	00 
  40c711:	48 83 c2 01          	add    $0x1,%rdx
  40c715:	0f b6 f0             	movzbl %al,%esi
  40c718:	e8 b3 49 ff ff       	callq  4010d0 <memset@plt>
  40c71d:	48 8b 84 24 28 01 00 	mov    0x128(%rsp),%rax
  40c724:	00 
  40c725:	48 83 c0 01          	add    $0x1,%rax
  40c729:	48 89 84 24 28 01 00 	mov    %rax,0x128(%rsp)
  40c730:	00 
  40c731:	e9 f3 fe ff ff       	jmpq   40c629 <cc_malloc_usable_size+0x11f9>
  40c736:	e9 35 00 00 00       	jmpq   40c770 <cc_malloc_usable_size+0x1340>
  40c73b:	48 8b 84 24 10 01 00 	mov    0x110(%rsp),%rax
  40c742:	00 
  40c743:	48 c1 e8 03          	shr    $0x3,%rax
  40c747:	48 05 00 80 ff 7f    	add    $0x7fff8000,%rax
  40c74d:	48 89 84 24 e8 00 00 	mov    %rax,0xe8(%rsp)
  40c754:	00 
  40c755:	48 8b bc 24 e8 00 00 	mov    0xe8(%rsp),%rdi
  40c75c:	00 
  40c75d:	48 8b 94 24 08 01 00 	mov    0x108(%rsp),%rdx
  40c764:	00 
  40c765:	48 c1 ea 03          	shr    $0x3,%rdx
  40c769:	31 f6                	xor    %esi,%esi
  40c76b:	e8 60 49 ff ff       	callq  4010d0 <memset@plt>
  40c770:	48 8b 44 24 60       	mov    0x60(%rsp),%rax
  40c775:	48 83 e0 07          	and    $0x7,%rax
  40c779:	48 83 f8 00          	cmp    $0x0,%rax
  40c77d:	0f 84 2e 00 00 00    	je     40c7b1 <cc_malloc_usable_size+0x1381>
  40c783:	48 8b 44 24 60       	mov    0x60(%rsp),%rax
  40c788:	48 83 e0 07          	and    $0x7,%rax
  40c78c:	ba 08 00 00 00       	mov    $0x8,%edx
  40c791:	48 29 c2             	sub    %rax,%rdx
  40c794:	48 c1 e2 05          	shl    $0x5,%rdx
  40c798:	48 8b 44 24 50       	mov    0x50(%rsp),%rax
  40c79d:	48 c1 e8 03          	shr    $0x3,%rax
  40c7a1:	0f b6 88 00 80 ff 7f 	movzbl 0x7fff8000(%rax),%ecx
  40c7a8:	48 01 d1             	add    %rdx,%rcx
  40c7ab:	88 88 00 80 ff 7f    	mov    %cl,0x7fff8000(%rax)
  40c7b1:	e9 00 00 00 00       	jmpq   40c7b6 <cc_malloc_usable_size+0x1386>
  40c7b6:	e9 00 00 00 00       	jmpq   40c7bb <cc_malloc_usable_size+0x138b>
  40c7bb:	48 8b 44 24 18       	mov    0x18(%rsp),%rax
  40c7c0:	48 81 c4 d8 01 00 00 	add    $0x1d8,%rsp
  40c7c7:	c3                   	retq   
  40c7c8:	0f 1f 84 00 00 00 00 	nopl   0x0(%rax,%rax,1)
  40c7cf:	00 

000000000040c7d0 <__cocheck__globalInit>:
  40c7d0:	c3                   	retq   
  40c7d1:	66 2e 0f 1f 84 00 00 	nopw   %cs:0x0(%rax,%rax,1)
  40c7d8:	00 00 00 
  40c7db:	0f 1f 44 00 00       	nopl   0x0(%rax,%rax,1)

000000000040c7e0 <__cocheck__globalRegister>:
  40c7e0:	48 81 ec d8 01 00 00 	sub    $0x1d8,%rsp
  40c7e7:	48 89 7c 24 20       	mov    %rdi,0x20(%rsp)
  40c7ec:	48 89 74 24 18       	mov    %rsi,0x18(%rsp)
  40c7f1:	48 8b 4c 24 20       	mov    0x20(%rsp),%rcx
  40c7f6:	48 8b 44 24 18       	mov    0x18(%rsp),%rax
  40c7fb:	48 89 4c 24 68       	mov    %rcx,0x68(%rsp)
  40c800:	48 89 44 24 60       	mov    %rax,0x60(%rsp)
  40c805:	48 8b 44 24 68       	mov    0x68(%rsp),%rax
  40c80a:	48 89 44 24 58       	mov    %rax,0x58(%rsp)
  40c80f:	48 8b 44 24 58       	mov    0x58(%rsp),%rax
  40c814:	48 03 44 24 60       	add    0x60(%rsp),%rax
  40c819:	48 89 44 24 50       	mov    %rax,0x50(%rsp)
  40c81e:	48 8b 44 24 58       	mov    0x58(%rsp),%rax
  40c823:	48 c1 e8 08          	shr    $0x8,%rax
  40c827:	48 89 44 24 48       	mov    %rax,0x48(%rsp)
  40c82c:	48 8b 44 24 48       	mov    0x48(%rsp),%rax
  40c831:	48 c1 e0 08          	shl    $0x8,%rax
  40c835:	48 89 44 24 40       	mov    %rax,0x40(%rsp)
  40c83a:	48 8b 44 24 50       	mov    0x50(%rsp),%rax
  40c83f:	48 c1 e8 08          	shr    $0x8,%rax
  40c843:	48 89 44 24 38       	mov    %rax,0x38(%rsp)
  40c848:	48 8b 44 24 38       	mov    0x38(%rsp),%rax
  40c84d:	48 c1 e0 08          	shl    $0x8,%rax
  40c851:	48 89 44 24 30       	mov    %rax,0x30(%rsp)
  40c856:	48 8b 44 24 48       	mov    0x48(%rsp),%rax
  40c85b:	48 3b 44 24 38       	cmp    0x38(%rsp),%rax
  40c860:	0f 85 0d 06 00 00    	jne    40ce73 <__cocheck__globalRegister+0x693>
  40c866:	48 8b 4c 24 68       	mov    0x68(%rsp),%rcx
  40c86b:	48 8b 44 24 60       	mov    0x60(%rsp),%rax
  40c870:	48 89 8c 24 98 00 00 	mov    %rcx,0x98(%rsp)
  40c877:	00 
  40c878:	48 89 84 24 90 00 00 	mov    %rax,0x90(%rsp)
  40c87f:	00 
  40c880:	c6 84 24 8f 00 00 00 	movb   $0x0,0x8f(%rsp)
  40c887:	00 
  40c888:	48 8b 84 24 98 00 00 	mov    0x98(%rsp),%rax
  40c88f:	00 
  40c890:	48 c1 e8 08          	shr    $0x8,%rax
  40c894:	48 89 84 24 80 00 00 	mov    %rax,0x80(%rsp)
  40c89b:	00 
  40c89c:	48 8b 04 25 08 82 61 	mov    0x618208,%rax
  40c8a3:	00 
  40c8a4:	48 8b 8c 24 80 00 00 	mov    0x80(%rsp),%rcx
  40c8ab:	00 
  40c8ac:	80 3c 08 00          	cmpb   $0x0,(%rax,%rcx,1)
  40c8b0:	0f 85 43 00 00 00    	jne    40c8f9 <__cocheck__globalRegister+0x119>
  40c8b6:	48 8b 04 25 08 82 61 	mov    0x618208,%rax
  40c8bd:	00 
  40c8be:	48 8b 8c 24 80 00 00 	mov    0x80(%rsp),%rcx
  40c8c5:	00 
  40c8c6:	c6 04 08 01          	movb   $0x1,(%rax,%rcx,1)
  40c8ca:	48 8b 84 24 80 00 00 	mov    0x80(%rsp),%rax
  40c8d1:	00 
  40c8d2:	48 c1 e0 08          	shl    $0x8,%rax
  40c8d6:	48 c1 e8 03          	shr    $0x3,%rax
  40c8da:	48 05 00 80 ff 7f    	add    $0x7fff8000,%rax
  40c8e0:	48 89 44 24 78       	mov    %rax,0x78(%rsp)
  40c8e5:	48 8b 7c 24 78       	mov    0x78(%rsp),%rdi
  40c8ea:	be ff 00 00 00       	mov    $0xff,%esi
  40c8ef:	ba 20 00 00 00       	mov    $0x20,%edx
  40c8f4:	e8 d7 47 ff ff       	callq  4010d0 <memset@plt>
  40c8f9:	80 bc 24 8f 00 00 00 	cmpb   $0x0,0x8f(%rsp)
  40c900:	00 
  40c901:	0f 85 f7 04 00 00    	jne    40cdfe <__cocheck__globalRegister+0x61e>
  40c907:	48 8b 8c 24 98 00 00 	mov    0x98(%rsp),%rcx
  40c90e:	00 
  40c90f:	48 8b 84 24 90 00 00 	mov    0x90(%rsp),%rax
  40c916:	00 
  40c917:	48 89 8c 24 e0 00 00 	mov    %rcx,0xe0(%rsp)
  40c91e:	00 
  40c91f:	48 89 84 24 d8 00 00 	mov    %rax,0xd8(%rsp)
  40c926:	00 
  40c927:	48 8b 84 24 e0 00 00 	mov    0xe0(%rsp),%rax
  40c92e:	00 
  40c92f:	48 c1 e8 03          	shr    $0x3,%rax
  40c933:	48 05 00 80 ff 7f    	add    $0x7fff8000,%rax
  40c939:	48 89 84 24 d0 00 00 	mov    %rax,0xd0(%rsp)
  40c940:	00 
  40c941:	48 8b 84 24 e0 00 00 	mov    0xe0(%rsp),%rax
  40c948:	00 
  40c949:	48 03 84 24 d8 00 00 	add    0xd8(%rsp),%rax
  40c950:	00 
  40c951:	48 83 e8 01          	sub    $0x1,%rax
  40c955:	48 c1 e8 03          	shr    $0x3,%rax
  40c959:	48 05 00 80 ff 7f    	add    $0x7fff8000,%rax
  40c95f:	48 83 c0 01          	add    $0x1,%rax
  40c963:	48 89 84 24 c8 00 00 	mov    %rax,0xc8(%rsp)
  40c96a:	00 
  40c96b:	48 81 bc 24 d8 00 00 	cmpq   $0x80,0xd8(%rsp)
  40c972:	00 80 00 00 00 
  40c977:	0f 87 31 03 00 00    	ja     40ccae <__cocheck__globalRegister+0x4ce>
  40c97d:	48 8b 84 24 d8 00 00 	mov    0xd8(%rsp),%rax
  40c984:	00 
  40c985:	48 83 c0 07          	add    $0x7,%rax
  40c989:	48 c1 e8 03          	shr    $0x3,%rax
  40c98d:	48 89 84 24 c0 00 00 	mov    %rax,0xc0(%rsp)
  40c994:	00 
  40c995:	48 8b 84 24 c0 00 00 	mov    0xc0(%rsp),%rax
  40c99c:	00 
  40c99d:	48 83 c0 ff          	add    $0xffffffffffffffff,%rax
  40c9a1:	48 89 44 24 10       	mov    %rax,0x10(%rsp)
  40c9a6:	48 83 e8 0f          	sub    $0xf,%rax
  40c9aa:	0f 87 e9 02 00 00    	ja     40cc99 <__cocheck__globalRegister+0x4b9>
  40c9b0:	48 8b 44 24 10       	mov    0x10(%rsp),%rax
  40c9b5:	48 8b 04 c5 68 54 41 	mov    0x415468(,%rax,8),%rax
  40c9bc:	00 
  40c9bd:	ff e0                	jmpq   *%rax
  40c9bf:	48 8b 84 24 c8 00 00 	mov    0xc8(%rsp),%rax
  40c9c6:	00 
  40c9c7:	48 83 e8 01          	sub    $0x1,%rax
  40c9cb:	c6 00 01             	movb   $0x1,(%rax)
  40c9ce:	e9 cb 02 00 00       	jmpq   40cc9e <__cocheck__globalRegister+0x4be>
  40c9d3:	48 8b 84 24 c8 00 00 	mov    0xc8(%rsp),%rax
  40c9da:	00 
  40c9db:	48 83 e8 02          	sub    $0x2,%rax
  40c9df:	66 c7 00 02 01       	movw   $0x102,(%rax)
  40c9e4:	e9 b5 02 00 00       	jmpq   40cc9e <__cocheck__globalRegister+0x4be>
  40c9e9:	48 8b 84 24 c8 00 00 	mov    0xc8(%rsp),%rax
  40c9f0:	00 
  40c9f1:	48 83 e8 01          	sub    $0x1,%rax
  40c9f5:	c6 00 01             	movb   $0x1,(%rax)
  40c9f8:	48 8b 84 24 c8 00 00 	mov    0xc8(%rsp),%rax
  40c9ff:	00 
  40ca00:	48 83 e8 03          	sub    $0x3,%rax
  40ca04:	66 c7 00 02 02       	movw   $0x202,(%rax)
  40ca09:	e9 90 02 00 00       	jmpq   40cc9e <__cocheck__globalRegister+0x4be>
  40ca0e:	48 8b 84 24 c8 00 00 	mov    0xc8(%rsp),%rax
  40ca15:	00 
  40ca16:	48 83 e8 04          	sub    $0x4,%rax
  40ca1a:	c7 00 03 02 02 01    	movl   $0x1020203,(%rax)
  40ca20:	e9 79 02 00 00       	jmpq   40cc9e <__cocheck__globalRegister+0x4be>
  40ca25:	48 8b 84 24 c8 00 00 	mov    0xc8(%rsp),%rax
  40ca2c:	00 
  40ca2d:	48 83 e8 01          	sub    $0x1,%rax
  40ca31:	c6 00 01             	movb   $0x1,(%rax)
  40ca34:	48 8b 84 24 c8 00 00 	mov    0xc8(%rsp),%rax
  40ca3b:	00 
  40ca3c:	48 83 e8 05          	sub    $0x5,%rax
  40ca40:	c7 00 03 03 02 02    	movl   $0x2020303,(%rax)
  40ca46:	e9 53 02 00 00       	jmpq   40cc9e <__cocheck__globalRegister+0x4be>
  40ca4b:	48 8b 84 24 c8 00 00 	mov    0xc8(%rsp),%rax
  40ca52:	00 
  40ca53:	48 83 e8 02          	sub    $0x2,%rax
  40ca57:	66 c7 00 02 01       	movw   $0x102,(%rax)
  40ca5c:	48 8b 84 24 c8 00 00 	mov    0xc8(%rsp),%rax
  40ca63:	00 
  40ca64:	48 83 e8 06          	sub    $0x6,%rax
  40ca68:	c7 00 03 03 03 02    	movl   $0x2030303,(%rax)
  40ca6e:	e9 2b 02 00 00       	jmpq   40cc9e <__cocheck__globalRegister+0x4be>
  40ca73:	48 8b 84 24 c8 00 00 	mov    0xc8(%rsp),%rax
  40ca7a:	00 
  40ca7b:	48 83 e8 01          	sub    $0x1,%rax
  40ca7f:	c6 00 01             	movb   $0x1,(%rax)
  40ca82:	48 8b 84 24 c8 00 00 	mov    0xc8(%rsp),%rax
  40ca89:	00 
  40ca8a:	48 83 e8 03          	sub    $0x3,%rax
  40ca8e:	66 c7 00 02 02       	movw   $0x202,(%rax)
  40ca93:	48 8b 84 24 c8 00 00 	mov    0xc8(%rsp),%rax
  40ca9a:	00 
  40ca9b:	48 83 e8 07          	sub    $0x7,%rax
  40ca9f:	c7 00 03 03 03 03    	movl   $0x3030303,(%rax)
  40caa5:	e9 f4 01 00 00       	jmpq   40cc9e <__cocheck__globalRegister+0x4be>
  40caaa:	48 8b 84 24 c8 00 00 	mov    0xc8(%rsp),%rax
  40cab1:	00 
  40cab2:	48 83 e8 08          	sub    $0x8,%rax
  40cab6:	48 b9 04 03 03 03 03 	movabs $0x102020303030304,%rcx
  40cabd:	02 02 01 
  40cac0:	48 89 08             	mov    %rcx,(%rax)
  40cac3:	e9 d6 01 00 00       	jmpq   40cc9e <__cocheck__globalRegister+0x4be>
  40cac8:	48 8b 84 24 c8 00 00 	mov    0xc8(%rsp),%rax
  40cacf:	00 
  40cad0:	48 83 e8 01          	sub    $0x1,%rax
  40cad4:	c6 00 01             	movb   $0x1,(%rax)
  40cad7:	48 8b 84 24 c8 00 00 	mov    0xc8(%rsp),%rax
  40cade:	00 
  40cadf:	48 83 e8 09          	sub    $0x9,%rax
  40cae3:	48 b9 04 04 03 03 03 	movabs $0x202030303030404,%rcx
  40caea:	03 02 02 
  40caed:	48 89 08             	mov    %rcx,(%rax)
  40caf0:	e9 a9 01 00 00       	jmpq   40cc9e <__cocheck__globalRegister+0x4be>
  40caf5:	48 8b 84 24 c8 00 00 	mov    0xc8(%rsp),%rax
  40cafc:	00 
  40cafd:	48 83 e8 02          	sub    $0x2,%rax
  40cb01:	66 c7 00 02 01       	movw   $0x102,(%rax)
  40cb06:	48 8b 84 24 c8 00 00 	mov    0xc8(%rsp),%rax
  40cb0d:	00 
  40cb0e:	48 83 e8 0a          	sub    $0xa,%rax
  40cb12:	48 b9 04 04 04 03 03 	movabs $0x203030303040404,%rcx
  40cb19:	03 03 02 
  40cb1c:	48 89 08             	mov    %rcx,(%rax)
  40cb1f:	e9 7a 01 00 00       	jmpq   40cc9e <__cocheck__globalRegister+0x4be>
  40cb24:	48 8b 84 24 c8 00 00 	mov    0xc8(%rsp),%rax
  40cb2b:	00 
  40cb2c:	48 83 e8 01          	sub    $0x1,%rax
  40cb30:	c6 00 01             	movb   $0x1,(%rax)
  40cb33:	48 8b 84 24 c8 00 00 	mov    0xc8(%rsp),%rax
  40cb3a:	00 
  40cb3b:	48 83 e8 03          	sub    $0x3,%rax
  40cb3f:	66 c7 00 02 02       	movw   $0x202,(%rax)
  40cb44:	48 8b 84 24 c8 00 00 	mov    0xc8(%rsp),%rax
  40cb4b:	00 
  40cb4c:	48 83 e8 0b          	sub    $0xb,%rax
  40cb50:	48 b9 04 04 04 04 03 	movabs $0x303030304040404,%rcx
  40cb57:	03 03 03 
  40cb5a:	48 89 08             	mov    %rcx,(%rax)
  40cb5d:	e9 3c 01 00 00       	jmpq   40cc9e <__cocheck__globalRegister+0x4be>
  40cb62:	48 8b 84 24 c8 00 00 	mov    0xc8(%rsp),%rax
  40cb69:	00 
  40cb6a:	48 83 e8 04          	sub    $0x4,%rax
  40cb6e:	c7 00 03 02 02 01    	movl   $0x1020203,(%rax)
  40cb74:	48 8b 84 24 c8 00 00 	mov    0xc8(%rsp),%rax
  40cb7b:	00 
  40cb7c:	48 83 e8 0c          	sub    $0xc,%rax
  40cb80:	48 b9 04 04 04 04 04 	movabs $0x303030404040404,%rcx
  40cb87:	03 03 03 
  40cb8a:	48 89 08             	mov    %rcx,(%rax)
  40cb8d:	e9 0c 01 00 00       	jmpq   40cc9e <__cocheck__globalRegister+0x4be>
  40cb92:	48 8b 84 24 c8 00 00 	mov    0xc8(%rsp),%rax
  40cb99:	00 
  40cb9a:	48 83 e8 01          	sub    $0x1,%rax
  40cb9e:	c6 00 01             	movb   $0x1,(%rax)
  40cba1:	48 8b 84 24 c8 00 00 	mov    0xc8(%rsp),%rax
  40cba8:	00 
  40cba9:	48 83 e8 05          	sub    $0x5,%rax
  40cbad:	c7 00 03 03 02 02    	movl   $0x2020303,(%rax)
  40cbb3:	48 8b 84 24 c8 00 00 	mov    0xc8(%rsp),%rax
  40cbba:	00 
  40cbbb:	48 83 e8 0d          	sub    $0xd,%rax
  40cbbf:	48 b9 04 04 04 04 04 	movabs $0x303040404040404,%rcx
  40cbc6:	04 03 03 
  40cbc9:	48 89 08             	mov    %rcx,(%rax)
  40cbcc:	e9 cd 00 00 00       	jmpq   40cc9e <__cocheck__globalRegister+0x4be>
  40cbd1:	48 8b 84 24 c8 00 00 	mov    0xc8(%rsp),%rax
  40cbd8:	00 
  40cbd9:	48 83 e8 02          	sub    $0x2,%rax
  40cbdd:	66 c7 00 02 01       	movw   $0x102,(%rax)
  40cbe2:	48 8b 84 24 c8 00 00 	mov    0xc8(%rsp),%rax
  40cbe9:	00 
  40cbea:	48 83 e8 06          	sub    $0x6,%rax
  40cbee:	c7 00 03 03 03 02    	movl   $0x2030303,(%rax)
  40cbf4:	48 8b 84 24 c8 00 00 	mov    0xc8(%rsp),%rax
  40cbfb:	00 
  40cbfc:	48 83 e8 0e          	sub    $0xe,%rax
  40cc00:	48 b9 04 04 04 04 04 	movabs $0x304040404040404,%rcx
  40cc07:	04 04 03 
  40cc0a:	48 89 08             	mov    %rcx,(%rax)
  40cc0d:	e9 8c 00 00 00       	jmpq   40cc9e <__cocheck__globalRegister+0x4be>
  40cc12:	48 8b 84 24 c8 00 00 	mov    0xc8(%rsp),%rax
  40cc19:	00 
  40cc1a:	48 83 e8 01          	sub    $0x1,%rax
  40cc1e:	c6 00 01             	movb   $0x1,(%rax)
  40cc21:	48 8b 84 24 c8 00 00 	mov    0xc8(%rsp),%rax
  40cc28:	00 
  40cc29:	48 83 e8 03          	sub    $0x3,%rax
  40cc2d:	66 c7 00 02 02       	movw   $0x202,(%rax)
  40cc32:	48 8b 84 24 c8 00 00 	mov    0xc8(%rsp),%rax
  40cc39:	00 
  40cc3a:	48 83 e8 07          	sub    $0x7,%rax
  40cc3e:	c7 00 03 03 03 03    	movl   $0x3030303,(%rax)
  40cc44:	48 8b 84 24 c8 00 00 	mov    0xc8(%rsp),%rax
  40cc4b:	00 
  40cc4c:	48 83 e8 0f          	sub    $0xf,%rax
  40cc50:	48 b9 04 04 04 04 04 	movabs $0x404040404040404,%rcx
  40cc57:	04 04 04 
  40cc5a:	48 89 08             	mov    %rcx,(%rax)
  40cc5d:	e9 3c 00 00 00       	jmpq   40cc9e <__cocheck__globalRegister+0x4be>
  40cc62:	48 8b 84 24 c8 00 00 	mov    0xc8(%rsp),%rax
  40cc69:	00 
  40cc6a:	48 83 e8 08          	sub    $0x8,%rax
  40cc6e:	48 b9 04 03 03 03 03 	movabs $0x102020303030304,%rcx
  40cc75:	02 02 01 
  40cc78:	48 89 08             	mov    %rcx,(%rax)
  40cc7b:	48 8b 84 24 c8 00 00 	mov    0xc8(%rsp),%rax
  40cc82:	00 
  40cc83:	48 83 e8 10          	sub    $0x10,%rax
  40cc87:	48 b9 05 04 04 04 04 	movabs $0x404040404040405,%rcx
  40cc8e:	04 04 04 
  40cc91:	48 89 08             	mov    %rcx,(%rax)
  40cc94:	e9 05 00 00 00       	jmpq   40cc9e <__cocheck__globalRegister+0x4be>
  40cc99:	e9 00 00 00 00       	jmpq   40cc9e <__cocheck__globalRegister+0x4be>
  40cc9e:	c7 84 24 bc 00 00 00 	movl   $0x1,0xbc(%rsp)
  40cca5:	01 00 00 00 
  40cca9:	e9 4b 01 00 00       	jmpq   40cdf9 <__cocheck__globalRegister+0x619>
  40ccae:	48 8b 84 24 c8 00 00 	mov    0xc8(%rsp),%rax
  40ccb5:	00 
  40ccb6:	48 83 e8 08          	sub    $0x8,%rax
  40ccba:	48 b9 04 03 03 03 03 	movabs $0x102020303030304,%rcx
  40ccc1:	02 02 01 
  40ccc4:	48 89 08             	mov    %rcx,(%rax)
  40ccc7:	48 8b 84 24 c8 00 00 	mov    0xc8(%rsp),%rax
  40ccce:	00 
  40cccf:	48 83 e8 10          	sub    $0x10,%rax
  40ccd3:	48 b9 05 04 04 04 04 	movabs $0x404040404040405,%rcx
  40ccda:	04 04 04 
  40ccdd:	48 89 08             	mov    %rcx,(%rax)
  40cce0:	48 c7 84 24 b0 00 00 	movq   $0x4,0xb0(%rsp)
  40cce7:	00 04 00 00 00 
  40ccec:	48 8b 84 24 c8 00 00 	mov    0xc8(%rsp),%rax
  40ccf3:	00 
  40ccf4:	48 8b 8c 24 b0 00 00 	mov    0xb0(%rsp),%rcx
  40ccfb:	00 
  40ccfc:	ba 01 00 00 00       	mov    $0x1,%edx
  40cd01:	d3 e2                	shl    %cl,%edx
  40cd03:	89 d1                	mov    %edx,%ecx
  40cd05:	48 63 c9             	movslq %ecx,%rcx
  40cd08:	48 29 c8             	sub    %rcx,%rax
  40cd0b:	48 3b 84 24 d0 00 00 	cmp    0xd0(%rsp),%rax
  40cd12:	00 
  40cd13:	0f 83 1b 00 00 00    	jae    40cd34 <__cocheck__globalRegister+0x554>
  40cd19:	c7 84 24 bc 00 00 00 	movl   $0x3,0xbc(%rsp)
  40cd20:	03 00 00 00 
  40cd24:	c7 84 24 bc 00 00 00 	movl   $0x0,0xbc(%rsp)
  40cd2b:	00 00 00 00 
  40cd2f:	e9 c5 00 00 00       	jmpq   40cdf9 <__cocheck__globalRegister+0x619>
  40cd34:	48 8b 84 24 c8 00 00 	mov    0xc8(%rsp),%rax
  40cd3b:	00 
  40cd3c:	48 8b 8c 24 b0 00 00 	mov    0xb0(%rsp),%rcx
  40cd43:	00 
  40cd44:	48 83 c1 01          	add    $0x1,%rcx
  40cd48:	ba 01 00 00 00       	mov    $0x1,%edx
  40cd4d:	d3 e2                	shl    %cl,%edx
  40cd4f:	89 d1                	mov    %edx,%ecx
  40cd51:	48 63 c9             	movslq %ecx,%rcx
  40cd54:	48 29 c8             	sub    %rcx,%rax
  40cd57:	48 83 c0 01          	add    $0x1,%rax
  40cd5b:	48 89 84 24 a8 00 00 	mov    %rax,0xa8(%rsp)
  40cd62:	00 
  40cd63:	48 8b 84 24 c8 00 00 	mov    0xc8(%rsp),%rax
  40cd6a:	00 
  40cd6b:	48 8b 8c 24 b0 00 00 	mov    0xb0(%rsp),%rcx
  40cd72:	00 
  40cd73:	ba 01 00 00 00       	mov    $0x1,%edx
  40cd78:	d3 e2                	shl    %cl,%edx
  40cd7a:	89 d1                	mov    %edx,%ecx
  40cd7c:	48 63 c9             	movslq %ecx,%rcx
  40cd7f:	48 29 c8             	sub    %rcx,%rax
  40cd82:	48 89 84 24 a0 00 00 	mov    %rax,0xa0(%rsp)
  40cd89:	00 
  40cd8a:	48 8b 84 24 a8 00 00 	mov    0xa8(%rsp),%rax
  40cd91:	00 
  40cd92:	48 3b 84 24 d0 00 00 	cmp    0xd0(%rsp),%rax
  40cd99:	00 
  40cd9a:	0f 83 10 00 00 00    	jae    40cdb0 <__cocheck__globalRegister+0x5d0>
  40cda0:	48 8b 84 24 d0 00 00 	mov    0xd0(%rsp),%rax
  40cda7:	00 
  40cda8:	48 89 84 24 a8 00 00 	mov    %rax,0xa8(%rsp)
  40cdaf:	00 
  40cdb0:	48 8b bc 24 a8 00 00 	mov    0xa8(%rsp),%rdi
  40cdb7:	00 
  40cdb8:	48 8b 84 24 b0 00 00 	mov    0xb0(%rsp),%rax
  40cdbf:	00 
  40cdc0:	48 83 c0 01          	add    $0x1,%rax
  40cdc4:	48 8b 94 24 a0 00 00 	mov    0xa0(%rsp),%rdx
  40cdcb:	00 
  40cdcc:	48 2b 94 24 a8 00 00 	sub    0xa8(%rsp),%rdx
  40cdd3:	00 
  40cdd4:	48 83 c2 01          	add    $0x1,%rdx
  40cdd8:	0f b6 f0             	movzbl %al,%esi
  40cddb:	e8 f0 42 ff ff       	callq  4010d0 <memset@plt>
  40cde0:	48 8b 84 24 b0 00 00 	mov    0xb0(%rsp),%rax
  40cde7:	00 
  40cde8:	48 83 c0 01          	add    $0x1,%rax
  40cdec:	48 89 84 24 b0 00 00 	mov    %rax,0xb0(%rsp)
  40cdf3:	00 
  40cdf4:	e9 f3 fe ff ff       	jmpq   40ccec <__cocheck__globalRegister+0x50c>
  40cdf9:	e9 2f 00 00 00       	jmpq   40ce2d <__cocheck__globalRegister+0x64d>
  40cdfe:	48 8b 84 24 98 00 00 	mov    0x98(%rsp),%rax
  40ce05:	00 
  40ce06:	48 c1 e8 03          	shr    $0x3,%rax
  40ce0a:	48 05 00 80 ff 7f    	add    $0x7fff8000,%rax
  40ce10:	48 89 44 24 70       	mov    %rax,0x70(%rsp)
  40ce15:	48 8b 7c 24 70       	mov    0x70(%rsp),%rdi
  40ce1a:	48 8b 94 24 90 00 00 	mov    0x90(%rsp),%rdx
  40ce21:	00 
  40ce22:	48 c1 ea 03          	shr    $0x3,%rdx
  40ce26:	31 f6                	xor    %esi,%esi
  40ce28:	e8 a3 42 ff ff       	callq  4010d0 <memset@plt>
  40ce2d:	48 8b 44 24 60       	mov    0x60(%rsp),%rax
  40ce32:	48 83 e0 07          	and    $0x7,%rax
  40ce36:	48 83 f8 00          	cmp    $0x0,%rax
  40ce3a:	0f 84 2e 00 00 00    	je     40ce6e <__cocheck__globalRegister+0x68e>
  40ce40:	48 8b 44 24 60       	mov    0x60(%rsp),%rax
  40ce45:	48 83 e0 07          	and    $0x7,%rax
  40ce49:	ba 08 00 00 00       	mov    $0x8,%edx
  40ce4e:	48 29 c2             	sub    %rax,%rdx
  40ce51:	48 c1 e2 05          	shl    $0x5,%rdx
  40ce55:	48 8b 44 24 50       	mov    0x50(%rsp),%rax
  40ce5a:	48 c1 e8 03          	shr    $0x3,%rax
  40ce5e:	0f b6 88 00 80 ff 7f 	movzbl 0x7fff8000(%rax),%ecx
  40ce65:	48 01 d1             	add    %rdx,%rcx
  40ce68:	88 88 00 80 ff 7f    	mov    %cl,0x7fff8000(%rax)
  40ce6e:	e9 e2 0c 00 00       	jmpq   40db55 <__cocheck__globalRegister+0x1375>
  40ce73:	48 8b 44 24 48       	mov    0x48(%rsp),%rax
  40ce78:	48 89 44 24 28       	mov    %rax,0x28(%rsp)
  40ce7d:	48 8b 44 24 28       	mov    0x28(%rsp),%rax
  40ce82:	48 3b 44 24 38       	cmp    0x38(%rsp),%rax
  40ce87:	0f 85 15 00 00 00    	jne    40cea2 <__cocheck__globalRegister+0x6c2>
  40ce8d:	48 8b 44 24 58       	mov    0x58(%rsp),%rax
  40ce92:	48 3b 44 24 40       	cmp    0x40(%rsp),%rax
  40ce97:	0f 85 a9 00 00 00    	jne    40cf46 <__cocheck__globalRegister+0x766>
  40ce9d:	e9 8d 00 00 00       	jmpq   40cf2f <__cocheck__globalRegister+0x74f>
  40cea2:	48 8b 04 25 00 82 61 	mov    0x618200,%rax
  40cea9:	00 
  40ceaa:	48 8b 4c 24 28       	mov    0x28(%rsp),%rcx
  40ceaf:	80 3c 08 00          	cmpb   $0x0,(%rax,%rcx,1)
  40ceb3:	0f 84 40 00 00 00    	je     40cef9 <__cocheck__globalRegister+0x719>
  40ceb9:	48 8b 44 24 28       	mov    0x28(%rsp),%rax
  40cebe:	48 3b 44 24 48       	cmp    0x48(%rsp),%rax
  40cec3:	0f 85 10 00 00 00    	jne    40ced9 <__cocheck__globalRegister+0x6f9>
  40cec9:	48 8b 44 24 58       	mov    0x58(%rsp),%rax
  40cece:	48 3b 44 24 40       	cmp    0x40(%rsp),%rax
  40ced3:	0f 85 20 00 00 00    	jne    40cef9 <__cocheck__globalRegister+0x719>
  40ced9:	48 8b 7c 24 28       	mov    0x28(%rsp),%rdi
  40cede:	48 c1 e7 08          	shl    $0x8,%rdi
  40cee2:	48 c1 ef 03          	shr    $0x3,%rdi
  40cee6:	48 81 c7 00 80 ff 7f 	add    $0x7fff8000,%rdi
  40ceed:	31 f6                	xor    %esi,%esi
  40ceef:	ba 20 00 00 00       	mov    $0x20,%edx
  40cef4:	e8 d7 41 ff ff       	callq  4010d0 <memset@plt>
  40cef9:	48 8b 44 24 50       	mov    0x50(%rsp),%rax
  40cefe:	48 8b 4c 24 28       	mov    0x28(%rsp),%rcx
  40cf03:	48 c1 e1 08          	shl    $0x8,%rcx
  40cf07:	48 29 c8             	sub    %rcx,%rax
  40cf0a:	89 c2                	mov    %eax,%edx
  40cf0c:	48 8b 04 25 f8 81 61 	mov    0x6181f8,%rax
  40cf13:	00 
  40cf14:	48 8b 4c 24 28       	mov    0x28(%rsp),%rcx
  40cf19:	89 14 88             	mov    %edx,(%rax,%rcx,4)
  40cf1c:	48 8b 44 24 28       	mov    0x28(%rsp),%rax
  40cf21:	48 83 c0 01          	add    $0x1,%rax
  40cf25:	48 89 44 24 28       	mov    %rax,0x28(%rsp)
  40cf2a:	e9 4e ff ff ff       	jmpq   40ce7d <__cocheck__globalRegister+0x69d>
  40cf2f:	48 8b 04 25 00 82 61 	mov    0x618200,%rax
  40cf36:	00 
  40cf37:	48 8b 4c 24 48       	mov    0x48(%rsp),%rcx
  40cf3c:	80 3c 08 00          	cmpb   $0x0,(%rax,%rcx,1)
  40cf40:	0f 84 de 05 00 00    	je     40d524 <__cocheck__globalRegister+0xd44>
  40cf46:	48 8b 4c 24 58       	mov    0x58(%rsp),%rcx
  40cf4b:	48 8b 44 24 40       	mov    0x40(%rsp),%rax
  40cf50:	48 2b 44 24 58       	sub    0x58(%rsp),%rax
  40cf55:	48 05 00 01 00 00    	add    $0x100,%rax
  40cf5b:	48 89 8c 24 88 01 00 	mov    %rcx,0x188(%rsp)
  40cf62:	00 
  40cf63:	48 89 84 24 80 01 00 	mov    %rax,0x180(%rsp)
  40cf6a:	00 
  40cf6b:	c6 84 24 7f 01 00 00 	movb   $0x1,0x17f(%rsp)
  40cf72:	01 
  40cf73:	48 8b 84 24 88 01 00 	mov    0x188(%rsp),%rax
  40cf7a:	00 
  40cf7b:	48 c1 e8 08          	shr    $0x8,%rax
  40cf7f:	48 89 84 24 70 01 00 	mov    %rax,0x170(%rsp)
  40cf86:	00 
  40cf87:	48 8b 04 25 08 82 61 	mov    0x618208,%rax
  40cf8e:	00 
  40cf8f:	48 8b 8c 24 70 01 00 	mov    0x170(%rsp),%rcx
  40cf96:	00 
  40cf97:	80 3c 08 00          	cmpb   $0x0,(%rax,%rcx,1)
  40cf9b:	0f 85 49 00 00 00    	jne    40cfea <__cocheck__globalRegister+0x80a>
  40cfa1:	48 8b 04 25 08 82 61 	mov    0x618208,%rax
  40cfa8:	00 
  40cfa9:	48 8b 8c 24 70 01 00 	mov    0x170(%rsp),%rcx
  40cfb0:	00 
  40cfb1:	c6 04 08 01          	movb   $0x1,(%rax,%rcx,1)
  40cfb5:	48 8b 84 24 70 01 00 	mov    0x170(%rsp),%rax
  40cfbc:	00 
  40cfbd:	48 c1 e0 08          	shl    $0x8,%rax
  40cfc1:	48 c1 e8 03          	shr    $0x3,%rax
  40cfc5:	48 05 00 80 ff 7f    	add    $0x7fff8000,%rax
  40cfcb:	48 89 84 24 68 01 00 	mov    %rax,0x168(%rsp)
  40cfd2:	00 
  40cfd3:	48 8b bc 24 68 01 00 	mov    0x168(%rsp),%rdi
  40cfda:	00 
  40cfdb:	be ff 00 00 00       	mov    $0xff,%esi
  40cfe0:	ba 20 00 00 00       	mov    $0x20,%edx
  40cfe5:	e8 e6 40 ff ff       	callq  4010d0 <memset@plt>
  40cfea:	80 bc 24 7f 01 00 00 	cmpb   $0x0,0x17f(%rsp)
  40cff1:	00 
  40cff2:	0f 85 f7 04 00 00    	jne    40d4ef <__cocheck__globalRegister+0xd0f>
  40cff8:	48 8b 8c 24 88 01 00 	mov    0x188(%rsp),%rcx
  40cfff:	00 
  40d000:	48 8b 84 24 80 01 00 	mov    0x180(%rsp),%rax
  40d007:	00 
  40d008:	48 89 8c 24 d0 01 00 	mov    %rcx,0x1d0(%rsp)
  40d00f:	00 
  40d010:	48 89 84 24 c8 01 00 	mov    %rax,0x1c8(%rsp)
  40d017:	00 
  40d018:	48 8b 84 24 d0 01 00 	mov    0x1d0(%rsp),%rax
  40d01f:	00 
  40d020:	48 c1 e8 03          	shr    $0x3,%rax
  40d024:	48 05 00 80 ff 7f    	add    $0x7fff8000,%rax
  40d02a:	48 89 84 24 c0 01 00 	mov    %rax,0x1c0(%rsp)
  40d031:	00 
  40d032:	48 8b 84 24 d0 01 00 	mov    0x1d0(%rsp),%rax
  40d039:	00 
  40d03a:	48 03 84 24 c8 01 00 	add    0x1c8(%rsp),%rax
  40d041:	00 
  40d042:	48 83 e8 01          	sub    $0x1,%rax
  40d046:	48 c1 e8 03          	shr    $0x3,%rax
  40d04a:	48 05 00 80 ff 7f    	add    $0x7fff8000,%rax
  40d050:	48 83 c0 01          	add    $0x1,%rax
  40d054:	48 89 84 24 b8 01 00 	mov    %rax,0x1b8(%rsp)
  40d05b:	00 
  40d05c:	48 81 bc 24 c8 01 00 	cmpq   $0x80,0x1c8(%rsp)
  40d063:	00 80 00 00 00 
  40d068:	0f 87 31 03 00 00    	ja     40d39f <__cocheck__globalRegister+0xbbf>
  40d06e:	48 8b 84 24 c8 01 00 	mov    0x1c8(%rsp),%rax
  40d075:	00 
  40d076:	48 83 c0 07          	add    $0x7,%rax
  40d07a:	48 c1 e8 03          	shr    $0x3,%rax
  40d07e:	48 89 84 24 b0 01 00 	mov    %rax,0x1b0(%rsp)
  40d085:	00 
  40d086:	48 8b 84 24 b0 01 00 	mov    0x1b0(%rsp),%rax
  40d08d:	00 
  40d08e:	48 83 c0 ff          	add    $0xffffffffffffffff,%rax
  40d092:	48 89 44 24 08       	mov    %rax,0x8(%rsp)
  40d097:	48 83 e8 0f          	sub    $0xf,%rax
  40d09b:	0f 87 e9 02 00 00    	ja     40d38a <__cocheck__globalRegister+0xbaa>
  40d0a1:	48 8b 44 24 08       	mov    0x8(%rsp),%rax
  40d0a6:	48 8b 04 c5 68 53 41 	mov    0x415368(,%rax,8),%rax
  40d0ad:	00 
  40d0ae:	ff e0                	jmpq   *%rax
  40d0b0:	48 8b 84 24 b8 01 00 	mov    0x1b8(%rsp),%rax
  40d0b7:	00 
  40d0b8:	48 83 e8 01          	sub    $0x1,%rax
  40d0bc:	c6 00 01             	movb   $0x1,(%rax)
  40d0bf:	e9 cb 02 00 00       	jmpq   40d38f <__cocheck__globalRegister+0xbaf>
  40d0c4:	48 8b 84 24 b8 01 00 	mov    0x1b8(%rsp),%rax
  40d0cb:	00 
  40d0cc:	48 83 e8 02          	sub    $0x2,%rax
  40d0d0:	66 c7 00 02 01       	movw   $0x102,(%rax)
  40d0d5:	e9 b5 02 00 00       	jmpq   40d38f <__cocheck__globalRegister+0xbaf>
  40d0da:	48 8b 84 24 b8 01 00 	mov    0x1b8(%rsp),%rax
  40d0e1:	00 
  40d0e2:	48 83 e8 01          	sub    $0x1,%rax
  40d0e6:	c6 00 01             	movb   $0x1,(%rax)
  40d0e9:	48 8b 84 24 b8 01 00 	mov    0x1b8(%rsp),%rax
  40d0f0:	00 
  40d0f1:	48 83 e8 03          	sub    $0x3,%rax
  40d0f5:	66 c7 00 02 02       	movw   $0x202,(%rax)
  40d0fa:	e9 90 02 00 00       	jmpq   40d38f <__cocheck__globalRegister+0xbaf>
  40d0ff:	48 8b 84 24 b8 01 00 	mov    0x1b8(%rsp),%rax
  40d106:	00 
  40d107:	48 83 e8 04          	sub    $0x4,%rax
  40d10b:	c7 00 03 02 02 01    	movl   $0x1020203,(%rax)
  40d111:	e9 79 02 00 00       	jmpq   40d38f <__cocheck__globalRegister+0xbaf>
  40d116:	48 8b 84 24 b8 01 00 	mov    0x1b8(%rsp),%rax
  40d11d:	00 
  40d11e:	48 83 e8 01          	sub    $0x1,%rax
  40d122:	c6 00 01             	movb   $0x1,(%rax)
  40d125:	48 8b 84 24 b8 01 00 	mov    0x1b8(%rsp),%rax
  40d12c:	00 
  40d12d:	48 83 e8 05          	sub    $0x5,%rax
  40d131:	c7 00 03 03 02 02    	movl   $0x2020303,(%rax)
  40d137:	e9 53 02 00 00       	jmpq   40d38f <__cocheck__globalRegister+0xbaf>
  40d13c:	48 8b 84 24 b8 01 00 	mov    0x1b8(%rsp),%rax
  40d143:	00 
  40d144:	48 83 e8 02          	sub    $0x2,%rax
  40d148:	66 c7 00 02 01       	movw   $0x102,(%rax)
  40d14d:	48 8b 84 24 b8 01 00 	mov    0x1b8(%rsp),%rax
  40d154:	00 
  40d155:	48 83 e8 06          	sub    $0x6,%rax
  40d159:	c7 00 03 03 03 02    	movl   $0x2030303,(%rax)
  40d15f:	e9 2b 02 00 00       	jmpq   40d38f <__cocheck__globalRegister+0xbaf>
  40d164:	48 8b 84 24 b8 01 00 	mov    0x1b8(%rsp),%rax
  40d16b:	00 
  40d16c:	48 83 e8 01          	sub    $0x1,%rax
  40d170:	c6 00 01             	movb   $0x1,(%rax)
  40d173:	48 8b 84 24 b8 01 00 	mov    0x1b8(%rsp),%rax
  40d17a:	00 
  40d17b:	48 83 e8 03          	sub    $0x3,%rax
  40d17f:	66 c7 00 02 02       	movw   $0x202,(%rax)
  40d184:	48 8b 84 24 b8 01 00 	mov    0x1b8(%rsp),%rax
  40d18b:	00 
  40d18c:	48 83 e8 07          	sub    $0x7,%rax
  40d190:	c7 00 03 03 03 03    	movl   $0x3030303,(%rax)
  40d196:	e9 f4 01 00 00       	jmpq   40d38f <__cocheck__globalRegister+0xbaf>
  40d19b:	48 8b 84 24 b8 01 00 	mov    0x1b8(%rsp),%rax
  40d1a2:	00 
  40d1a3:	48 83 e8 08          	sub    $0x8,%rax
  40d1a7:	48 b9 04 03 03 03 03 	movabs $0x102020303030304,%rcx
  40d1ae:	02 02 01 
  40d1b1:	48 89 08             	mov    %rcx,(%rax)
  40d1b4:	e9 d6 01 00 00       	jmpq   40d38f <__cocheck__globalRegister+0xbaf>
  40d1b9:	48 8b 84 24 b8 01 00 	mov    0x1b8(%rsp),%rax
  40d1c0:	00 
  40d1c1:	48 83 e8 01          	sub    $0x1,%rax
  40d1c5:	c6 00 01             	movb   $0x1,(%rax)
  40d1c8:	48 8b 84 24 b8 01 00 	mov    0x1b8(%rsp),%rax
  40d1cf:	00 
  40d1d0:	48 83 e8 09          	sub    $0x9,%rax
  40d1d4:	48 b9 04 04 03 03 03 	movabs $0x202030303030404,%rcx
  40d1db:	03 02 02 
  40d1de:	48 89 08             	mov    %rcx,(%rax)
  40d1e1:	e9 a9 01 00 00       	jmpq   40d38f <__cocheck__globalRegister+0xbaf>
  40d1e6:	48 8b 84 24 b8 01 00 	mov    0x1b8(%rsp),%rax
  40d1ed:	00 
  40d1ee:	48 83 e8 02          	sub    $0x2,%rax
  40d1f2:	66 c7 00 02 01       	movw   $0x102,(%rax)
  40d1f7:	48 8b 84 24 b8 01 00 	mov    0x1b8(%rsp),%rax
  40d1fe:	00 
  40d1ff:	48 83 e8 0a          	sub    $0xa,%rax
  40d203:	48 b9 04 04 04 03 03 	movabs $0x203030303040404,%rcx
  40d20a:	03 03 02 
  40d20d:	48 89 08             	mov    %rcx,(%rax)
  40d210:	e9 7a 01 00 00       	jmpq   40d38f <__cocheck__globalRegister+0xbaf>
  40d215:	48 8b 84 24 b8 01 00 	mov    0x1b8(%rsp),%rax
  40d21c:	00 
  40d21d:	48 83 e8 01          	sub    $0x1,%rax
  40d221:	c6 00 01             	movb   $0x1,(%rax)
  40d224:	48 8b 84 24 b8 01 00 	mov    0x1b8(%rsp),%rax
  40d22b:	00 
  40d22c:	48 83 e8 03          	sub    $0x3,%rax
  40d230:	66 c7 00 02 02       	movw   $0x202,(%rax)
  40d235:	48 8b 84 24 b8 01 00 	mov    0x1b8(%rsp),%rax
  40d23c:	00 
  40d23d:	48 83 e8 0b          	sub    $0xb,%rax
  40d241:	48 b9 04 04 04 04 03 	movabs $0x303030304040404,%rcx
  40d248:	03 03 03 
  40d24b:	48 89 08             	mov    %rcx,(%rax)
  40d24e:	e9 3c 01 00 00       	jmpq   40d38f <__cocheck__globalRegister+0xbaf>
  40d253:	48 8b 84 24 b8 01 00 	mov    0x1b8(%rsp),%rax
  40d25a:	00 
  40d25b:	48 83 e8 04          	sub    $0x4,%rax
  40d25f:	c7 00 03 02 02 01    	movl   $0x1020203,(%rax)
  40d265:	48 8b 84 24 b8 01 00 	mov    0x1b8(%rsp),%rax
  40d26c:	00 
  40d26d:	48 83 e8 0c          	sub    $0xc,%rax
  40d271:	48 b9 04 04 04 04 04 	movabs $0x303030404040404,%rcx
  40d278:	03 03 03 
  40d27b:	48 89 08             	mov    %rcx,(%rax)
  40d27e:	e9 0c 01 00 00       	jmpq   40d38f <__cocheck__globalRegister+0xbaf>
  40d283:	48 8b 84 24 b8 01 00 	mov    0x1b8(%rsp),%rax
  40d28a:	00 
  40d28b:	48 83 e8 01          	sub    $0x1,%rax
  40d28f:	c6 00 01             	movb   $0x1,(%rax)
  40d292:	48 8b 84 24 b8 01 00 	mov    0x1b8(%rsp),%rax
  40d299:	00 
  40d29a:	48 83 e8 05          	sub    $0x5,%rax
  40d29e:	c7 00 03 03 02 02    	movl   $0x2020303,(%rax)
  40d2a4:	48 8b 84 24 b8 01 00 	mov    0x1b8(%rsp),%rax
  40d2ab:	00 
  40d2ac:	48 83 e8 0d          	sub    $0xd,%rax
  40d2b0:	48 b9 04 04 04 04 04 	movabs $0x303040404040404,%rcx
  40d2b7:	04 03 03 
  40d2ba:	48 89 08             	mov    %rcx,(%rax)
  40d2bd:	e9 cd 00 00 00       	jmpq   40d38f <__cocheck__globalRegister+0xbaf>
  40d2c2:	48 8b 84 24 b8 01 00 	mov    0x1b8(%rsp),%rax
  40d2c9:	00 
  40d2ca:	48 83 e8 02          	sub    $0x2,%rax
  40d2ce:	66 c7 00 02 01       	movw   $0x102,(%rax)
  40d2d3:	48 8b 84 24 b8 01 00 	mov    0x1b8(%rsp),%rax
  40d2da:	00 
  40d2db:	48 83 e8 06          	sub    $0x6,%rax
  40d2df:	c7 00 03 03 03 02    	movl   $0x2030303,(%rax)
  40d2e5:	48 8b 84 24 b8 01 00 	mov    0x1b8(%rsp),%rax
  40d2ec:	00 
  40d2ed:	48 83 e8 0e          	sub    $0xe,%rax
  40d2f1:	48 b9 04 04 04 04 04 	movabs $0x304040404040404,%rcx
  40d2f8:	04 04 03 
  40d2fb:	48 89 08             	mov    %rcx,(%rax)
  40d2fe:	e9 8c 00 00 00       	jmpq   40d38f <__cocheck__globalRegister+0xbaf>
  40d303:	48 8b 84 24 b8 01 00 	mov    0x1b8(%rsp),%rax
  40d30a:	00 
  40d30b:	48 83 e8 01          	sub    $0x1,%rax
  40d30f:	c6 00 01             	movb   $0x1,(%rax)
  40d312:	48 8b 84 24 b8 01 00 	mov    0x1b8(%rsp),%rax
  40d319:	00 
  40d31a:	48 83 e8 03          	sub    $0x3,%rax
  40d31e:	66 c7 00 02 02       	movw   $0x202,(%rax)
  40d323:	48 8b 84 24 b8 01 00 	mov    0x1b8(%rsp),%rax
  40d32a:	00 
  40d32b:	48 83 e8 07          	sub    $0x7,%rax
  40d32f:	c7 00 03 03 03 03    	movl   $0x3030303,(%rax)
  40d335:	48 8b 84 24 b8 01 00 	mov    0x1b8(%rsp),%rax
  40d33c:	00 
  40d33d:	48 83 e8 0f          	sub    $0xf,%rax
  40d341:	48 b9 04 04 04 04 04 	movabs $0x404040404040404,%rcx
  40d348:	04 04 04 
  40d34b:	48 89 08             	mov    %rcx,(%rax)
  40d34e:	e9 3c 00 00 00       	jmpq   40d38f <__cocheck__globalRegister+0xbaf>
  40d353:	48 8b 84 24 b8 01 00 	mov    0x1b8(%rsp),%rax
  40d35a:	00 
  40d35b:	48 83 e8 08          	sub    $0x8,%rax
  40d35f:	48 b9 04 03 03 03 03 	movabs $0x102020303030304,%rcx
  40d366:	02 02 01 
  40d369:	48 89 08             	mov    %rcx,(%rax)
  40d36c:	48 8b 84 24 b8 01 00 	mov    0x1b8(%rsp),%rax
  40d373:	00 
  40d374:	48 83 e8 10          	sub    $0x10,%rax
  40d378:	48 b9 05 04 04 04 04 	movabs $0x404040404040405,%rcx
  40d37f:	04 04 04 
  40d382:	48 89 08             	mov    %rcx,(%rax)
  40d385:	e9 05 00 00 00       	jmpq   40d38f <__cocheck__globalRegister+0xbaf>
  40d38a:	e9 00 00 00 00       	jmpq   40d38f <__cocheck__globalRegister+0xbaf>
  40d38f:	c7 84 24 ac 01 00 00 	movl   $0x1,0x1ac(%rsp)
  40d396:	01 00 00 00 
  40d39a:	e9 4b 01 00 00       	jmpq   40d4ea <__cocheck__globalRegister+0xd0a>
  40d39f:	48 8b 84 24 b8 01 00 	mov    0x1b8(%rsp),%rax
  40d3a6:	00 
  40d3a7:	48 83 e8 08          	sub    $0x8,%rax
  40d3ab:	48 b9 04 03 03 03 03 	movabs $0x102020303030304,%rcx
  40d3b2:	02 02 01 
  40d3b5:	48 89 08             	mov    %rcx,(%rax)
  40d3b8:	48 8b 84 24 b8 01 00 	mov    0x1b8(%rsp),%rax
  40d3bf:	00 
  40d3c0:	48 83 e8 10          	sub    $0x10,%rax
  40d3c4:	48 b9 05 04 04 04 04 	movabs $0x404040404040405,%rcx
  40d3cb:	04 04 04 
  40d3ce:	48 89 08             	mov    %rcx,(%rax)
  40d3d1:	48 c7 84 24 a0 01 00 	movq   $0x4,0x1a0(%rsp)
  40d3d8:	00 04 00 00 00 
  40d3dd:	48 8b 84 24 b8 01 00 	mov    0x1b8(%rsp),%rax
  40d3e4:	00 
  40d3e5:	48 8b 8c 24 a0 01 00 	mov    0x1a0(%rsp),%rcx
  40d3ec:	00 
  40d3ed:	ba 01 00 00 00       	mov    $0x1,%edx
  40d3f2:	d3 e2                	shl    %cl,%edx
  40d3f4:	89 d1                	mov    %edx,%ecx
  40d3f6:	48 63 c9             	movslq %ecx,%rcx
  40d3f9:	48 29 c8             	sub    %rcx,%rax
  40d3fc:	48 3b 84 24 c0 01 00 	cmp    0x1c0(%rsp),%rax
  40d403:	00 
  40d404:	0f 83 1b 00 00 00    	jae    40d425 <__cocheck__globalRegister+0xc45>
  40d40a:	c7 84 24 ac 01 00 00 	movl   $0x3,0x1ac(%rsp)
  40d411:	03 00 00 00 
  40d415:	c7 84 24 ac 01 00 00 	movl   $0x0,0x1ac(%rsp)
  40d41c:	00 00 00 00 
  40d420:	e9 c5 00 00 00       	jmpq   40d4ea <__cocheck__globalRegister+0xd0a>
  40d425:	48 8b 84 24 b8 01 00 	mov    0x1b8(%rsp),%rax
  40d42c:	00 
  40d42d:	48 8b 8c 24 a0 01 00 	mov    0x1a0(%rsp),%rcx
  40d434:	00 
  40d435:	48 83 c1 01          	add    $0x1,%rcx
  40d439:	ba 01 00 00 00       	mov    $0x1,%edx
  40d43e:	d3 e2                	shl    %cl,%edx
  40d440:	89 d1                	mov    %edx,%ecx
  40d442:	48 63 c9             	movslq %ecx,%rcx
  40d445:	48 29 c8             	sub    %rcx,%rax
  40d448:	48 83 c0 01          	add    $0x1,%rax
  40d44c:	48 89 84 24 98 01 00 	mov    %rax,0x198(%rsp)
  40d453:	00 
  40d454:	48 8b 84 24 b8 01 00 	mov    0x1b8(%rsp),%rax
  40d45b:	00 
  40d45c:	48 8b 8c 24 a0 01 00 	mov    0x1a0(%rsp),%rcx
  40d463:	00 
  40d464:	ba 01 00 00 00       	mov    $0x1,%edx
  40d469:	d3 e2                	shl    %cl,%edx
  40d46b:	89 d1                	mov    %edx,%ecx
  40d46d:	48 63 c9             	movslq %ecx,%rcx
  40d470:	48 29 c8             	sub    %rcx,%rax
  40d473:	48 89 84 24 90 01 00 	mov    %rax,0x190(%rsp)
  40d47a:	00 
  40d47b:	48 8b 84 24 98 01 00 	mov    0x198(%rsp),%rax
  40d482:	00 
  40d483:	48 3b 84 24 c0 01 00 	cmp    0x1c0(%rsp),%rax
  40d48a:	00 
  40d48b:	0f 83 10 00 00 00    	jae    40d4a1 <__cocheck__globalRegister+0xcc1>
  40d491:	48 8b 84 24 c0 01 00 	mov    0x1c0(%rsp),%rax
  40d498:	00 
  40d499:	48 89 84 24 98 01 00 	mov    %rax,0x198(%rsp)
  40d4a0:	00 
  40d4a1:	48 8b bc 24 98 01 00 	mov    0x198(%rsp),%rdi
  40d4a8:	00 
  40d4a9:	48 8b 84 24 a0 01 00 	mov    0x1a0(%rsp),%rax
  40d4b0:	00 
  40d4b1:	48 83 c0 01          	add    $0x1,%rax
  40d4b5:	48 8b 94 24 90 01 00 	mov    0x190(%rsp),%rdx
  40d4bc:	00 
  40d4bd:	48 2b 94 24 98 01 00 	sub    0x198(%rsp),%rdx
  40d4c4:	00 
  40d4c5:	48 83 c2 01          	add    $0x1,%rdx
  40d4c9:	0f b6 f0             	movzbl %al,%esi
  40d4cc:	e8 ff 3b ff ff       	callq  4010d0 <memset@plt>
  40d4d1:	48 8b 84 24 a0 01 00 	mov    0x1a0(%rsp),%rax
  40d4d8:	00 
  40d4d9:	48 83 c0 01          	add    $0x1,%rax
  40d4dd:	48 89 84 24 a0 01 00 	mov    %rax,0x1a0(%rsp)
  40d4e4:	00 
  40d4e5:	e9 f3 fe ff ff       	jmpq   40d3dd <__cocheck__globalRegister+0xbfd>
  40d4ea:	e9 35 00 00 00       	jmpq   40d524 <__cocheck__globalRegister+0xd44>
  40d4ef:	48 8b 84 24 88 01 00 	mov    0x188(%rsp),%rax
  40d4f6:	00 
  40d4f7:	48 c1 e8 03          	shr    $0x3,%rax
  40d4fb:	48 05 00 80 ff 7f    	add    $0x7fff8000,%rax
  40d501:	48 89 84 24 60 01 00 	mov    %rax,0x160(%rsp)
  40d508:	00 
  40d509:	48 8b bc 24 60 01 00 	mov    0x160(%rsp),%rdi
  40d510:	00 
  40d511:	48 8b 94 24 80 01 00 	mov    0x180(%rsp),%rdx
  40d518:	00 
  40d519:	48 c1 ea 03          	shr    $0x3,%rdx
  40d51d:	31 f6                	xor    %esi,%esi
  40d51f:	e8 ac 3b ff ff       	callq  4010d0 <memset@plt>
  40d524:	48 8b 44 24 50       	mov    0x50(%rsp),%rax
  40d529:	48 3b 44 24 30       	cmp    0x30(%rsp),%rax
  40d52e:	0f 84 1c 06 00 00    	je     40db50 <__cocheck__globalRegister+0x1370>
  40d534:	48 8b 4c 24 30       	mov    0x30(%rsp),%rcx
  40d539:	48 8b 44 24 50       	mov    0x50(%rsp),%rax
  40d53e:	48 2b 44 24 30       	sub    0x30(%rsp),%rax
  40d543:	48 89 8c 24 10 01 00 	mov    %rcx,0x110(%rsp)
  40d54a:	00 
  40d54b:	48 89 84 24 08 01 00 	mov    %rax,0x108(%rsp)
  40d552:	00 
  40d553:	c6 84 24 07 01 00 00 	movb   $0x0,0x107(%rsp)
  40d55a:	00 
  40d55b:	48 8b 84 24 10 01 00 	mov    0x110(%rsp),%rax
  40d562:	00 
  40d563:	48 c1 e8 08          	shr    $0x8,%rax
  40d567:	48 89 84 24 f8 00 00 	mov    %rax,0xf8(%rsp)
  40d56e:	00 
  40d56f:	48 8b 04 25 08 82 61 	mov    0x618208,%rax
  40d576:	00 
  40d577:	48 8b 8c 24 f8 00 00 	mov    0xf8(%rsp),%rcx
  40d57e:	00 
  40d57f:	80 3c 08 00          	cmpb   $0x0,(%rax,%rcx,1)
  40d583:	0f 85 49 00 00 00    	jne    40d5d2 <__cocheck__globalRegister+0xdf2>
  40d589:	48 8b 04 25 08 82 61 	mov    0x618208,%rax
  40d590:	00 
  40d591:	48 8b 8c 24 f8 00 00 	mov    0xf8(%rsp),%rcx
  40d598:	00 
  40d599:	c6 04 08 01          	movb   $0x1,(%rax,%rcx,1)
  40d59d:	48 8b 84 24 f8 00 00 	mov    0xf8(%rsp),%rax
  40d5a4:	00 
  40d5a5:	48 c1 e0 08          	shl    $0x8,%rax
  40d5a9:	48 c1 e8 03          	shr    $0x3,%rax
  40d5ad:	48 05 00 80 ff 7f    	add    $0x7fff8000,%rax
  40d5b3:	48 89 84 24 f0 00 00 	mov    %rax,0xf0(%rsp)
  40d5ba:	00 
  40d5bb:	48 8b bc 24 f0 00 00 	mov    0xf0(%rsp),%rdi
  40d5c2:	00 
  40d5c3:	be ff 00 00 00       	mov    $0xff,%esi
  40d5c8:	ba 20 00 00 00       	mov    $0x20,%edx
  40d5cd:	e8 fe 3a ff ff       	callq  4010d0 <memset@plt>
  40d5d2:	80 bc 24 07 01 00 00 	cmpb   $0x0,0x107(%rsp)
  40d5d9:	00 
  40d5da:	0f 85 f5 04 00 00    	jne    40dad5 <__cocheck__globalRegister+0x12f5>
  40d5e0:	48 8b 8c 24 10 01 00 	mov    0x110(%rsp),%rcx
  40d5e7:	00 
  40d5e8:	48 8b 84 24 08 01 00 	mov    0x108(%rsp),%rax
  40d5ef:	00 
  40d5f0:	48 89 8c 24 58 01 00 	mov    %rcx,0x158(%rsp)
  40d5f7:	00 
  40d5f8:	48 89 84 24 50 01 00 	mov    %rax,0x150(%rsp)
  40d5ff:	00 
  40d600:	48 8b 84 24 58 01 00 	mov    0x158(%rsp),%rax
  40d607:	00 
  40d608:	48 c1 e8 03          	shr    $0x3,%rax
  40d60c:	48 05 00 80 ff 7f    	add    $0x7fff8000,%rax
  40d612:	48 89 84 24 48 01 00 	mov    %rax,0x148(%rsp)
  40d619:	00 
  40d61a:	48 8b 84 24 58 01 00 	mov    0x158(%rsp),%rax
  40d621:	00 
  40d622:	48 03 84 24 50 01 00 	add    0x150(%rsp),%rax
  40d629:	00 
  40d62a:	48 83 e8 01          	sub    $0x1,%rax
  40d62e:	48 c1 e8 03          	shr    $0x3,%rax
  40d632:	48 05 00 80 ff 7f    	add    $0x7fff8000,%rax
  40d638:	48 83 c0 01          	add    $0x1,%rax
  40d63c:	48 89 84 24 40 01 00 	mov    %rax,0x140(%rsp)
  40d643:	00 
  40d644:	48 81 bc 24 50 01 00 	cmpq   $0x80,0x150(%rsp)
  40d64b:	00 80 00 00 00 
  40d650:	0f 87 2f 03 00 00    	ja     40d985 <__cocheck__globalRegister+0x11a5>
  40d656:	48 8b 84 24 50 01 00 	mov    0x150(%rsp),%rax
  40d65d:	00 
  40d65e:	48 83 c0 07          	add    $0x7,%rax
  40d662:	48 c1 e8 03          	shr    $0x3,%rax
  40d666:	48 89 84 24 38 01 00 	mov    %rax,0x138(%rsp)
  40d66d:	00 
  40d66e:	48 8b 84 24 38 01 00 	mov    0x138(%rsp),%rax
  40d675:	00 
  40d676:	48 83 c0 ff          	add    $0xffffffffffffffff,%rax
  40d67a:	48 89 04 24          	mov    %rax,(%rsp)
  40d67e:	48 83 e8 0f          	sub    $0xf,%rax
  40d682:	0f 87 e8 02 00 00    	ja     40d970 <__cocheck__globalRegister+0x1190>
  40d688:	48 8b 04 24          	mov    (%rsp),%rax
  40d68c:	48 8b 04 c5 e8 53 41 	mov    0x4153e8(,%rax,8),%rax
  40d693:	00 
  40d694:	ff e0                	jmpq   *%rax
  40d696:	48 8b 84 24 40 01 00 	mov    0x140(%rsp),%rax
  40d69d:	00 
  40d69e:	48 83 e8 01          	sub    $0x1,%rax
  40d6a2:	c6 00 01             	movb   $0x1,(%rax)
  40d6a5:	e9 cb 02 00 00       	jmpq   40d975 <__cocheck__globalRegister+0x1195>
  40d6aa:	48 8b 84 24 40 01 00 	mov    0x140(%rsp),%rax
  40d6b1:	00 
  40d6b2:	48 83 e8 02          	sub    $0x2,%rax
  40d6b6:	66 c7 00 02 01       	movw   $0x102,(%rax)
  40d6bb:	e9 b5 02 00 00       	jmpq   40d975 <__cocheck__globalRegister+0x1195>
  40d6c0:	48 8b 84 24 40 01 00 	mov    0x140(%rsp),%rax
  40d6c7:	00 
  40d6c8:	48 83 e8 01          	sub    $0x1,%rax
  40d6cc:	c6 00 01             	movb   $0x1,(%rax)
  40d6cf:	48 8b 84 24 40 01 00 	mov    0x140(%rsp),%rax
  40d6d6:	00 
  40d6d7:	48 83 e8 03          	sub    $0x3,%rax
  40d6db:	66 c7 00 02 02       	movw   $0x202,(%rax)
  40d6e0:	e9 90 02 00 00       	jmpq   40d975 <__cocheck__globalRegister+0x1195>
  40d6e5:	48 8b 84 24 40 01 00 	mov    0x140(%rsp),%rax
  40d6ec:	00 
  40d6ed:	48 83 e8 04          	sub    $0x4,%rax
  40d6f1:	c7 00 03 02 02 01    	movl   $0x1020203,(%rax)
  40d6f7:	e9 79 02 00 00       	jmpq   40d975 <__cocheck__globalRegister+0x1195>
  40d6fc:	48 8b 84 24 40 01 00 	mov    0x140(%rsp),%rax
  40d703:	00 
  40d704:	48 83 e8 01          	sub    $0x1,%rax
  40d708:	c6 00 01             	movb   $0x1,(%rax)
  40d70b:	48 8b 84 24 40 01 00 	mov    0x140(%rsp),%rax
  40d712:	00 
  40d713:	48 83 e8 05          	sub    $0x5,%rax
  40d717:	c7 00 03 03 02 02    	movl   $0x2020303,(%rax)
  40d71d:	e9 53 02 00 00       	jmpq   40d975 <__cocheck__globalRegister+0x1195>
  40d722:	48 8b 84 24 40 01 00 	mov    0x140(%rsp),%rax
  40d729:	00 
  40d72a:	48 83 e8 02          	sub    $0x2,%rax
  40d72e:	66 c7 00 02 01       	movw   $0x102,(%rax)
  40d733:	48 8b 84 24 40 01 00 	mov    0x140(%rsp),%rax
  40d73a:	00 
  40d73b:	48 83 e8 06          	sub    $0x6,%rax
  40d73f:	c7 00 03 03 03 02    	movl   $0x2030303,(%rax)
  40d745:	e9 2b 02 00 00       	jmpq   40d975 <__cocheck__globalRegister+0x1195>
  40d74a:	48 8b 84 24 40 01 00 	mov    0x140(%rsp),%rax
  40d751:	00 
  40d752:	48 83 e8 01          	sub    $0x1,%rax
  40d756:	c6 00 01             	movb   $0x1,(%rax)
  40d759:	48 8b 84 24 40 01 00 	mov    0x140(%rsp),%rax
  40d760:	00 
  40d761:	48 83 e8 03          	sub    $0x3,%rax
  40d765:	66 c7 00 02 02       	movw   $0x202,(%rax)
  40d76a:	48 8b 84 24 40 01 00 	mov    0x140(%rsp),%rax
  40d771:	00 
  40d772:	48 83 e8 07          	sub    $0x7,%rax
  40d776:	c7 00 03 03 03 03    	movl   $0x3030303,(%rax)
  40d77c:	e9 f4 01 00 00       	jmpq   40d975 <__cocheck__globalRegister+0x1195>
  40d781:	48 8b 84 24 40 01 00 	mov    0x140(%rsp),%rax
  40d788:	00 
  40d789:	48 83 e8 08          	sub    $0x8,%rax
  40d78d:	48 b9 04 03 03 03 03 	movabs $0x102020303030304,%rcx
  40d794:	02 02 01 
  40d797:	48 89 08             	mov    %rcx,(%rax)
  40d79a:	e9 d6 01 00 00       	jmpq   40d975 <__cocheck__globalRegister+0x1195>
  40d79f:	48 8b 84 24 40 01 00 	mov    0x140(%rsp),%rax
  40d7a6:	00 
  40d7a7:	48 83 e8 01          	sub    $0x1,%rax
  40d7ab:	c6 00 01             	movb   $0x1,(%rax)
  40d7ae:	48 8b 84 24 40 01 00 	mov    0x140(%rsp),%rax
  40d7b5:	00 
  40d7b6:	48 83 e8 09          	sub    $0x9,%rax
  40d7ba:	48 b9 04 04 03 03 03 	movabs $0x202030303030404,%rcx
  40d7c1:	03 02 02 
  40d7c4:	48 89 08             	mov    %rcx,(%rax)
  40d7c7:	e9 a9 01 00 00       	jmpq   40d975 <__cocheck__globalRegister+0x1195>
  40d7cc:	48 8b 84 24 40 01 00 	mov    0x140(%rsp),%rax
  40d7d3:	00 
  40d7d4:	48 83 e8 02          	sub    $0x2,%rax
  40d7d8:	66 c7 00 02 01       	movw   $0x102,(%rax)
  40d7dd:	48 8b 84 24 40 01 00 	mov    0x140(%rsp),%rax
  40d7e4:	00 
  40d7e5:	48 83 e8 0a          	sub    $0xa,%rax
  40d7e9:	48 b9 04 04 04 03 03 	movabs $0x203030303040404,%rcx
  40d7f0:	03 03 02 
  40d7f3:	48 89 08             	mov    %rcx,(%rax)
  40d7f6:	e9 7a 01 00 00       	jmpq   40d975 <__cocheck__globalRegister+0x1195>
  40d7fb:	48 8b 84 24 40 01 00 	mov    0x140(%rsp),%rax
  40d802:	00 
  40d803:	48 83 e8 01          	sub    $0x1,%rax
  40d807:	c6 00 01             	movb   $0x1,(%rax)
  40d80a:	48 8b 84 24 40 01 00 	mov    0x140(%rsp),%rax
  40d811:	00 
  40d812:	48 83 e8 03          	sub    $0x3,%rax
  40d816:	66 c7 00 02 02       	movw   $0x202,(%rax)
  40d81b:	48 8b 84 24 40 01 00 	mov    0x140(%rsp),%rax
  40d822:	00 
  40d823:	48 83 e8 0b          	sub    $0xb,%rax
  40d827:	48 b9 04 04 04 04 03 	movabs $0x303030304040404,%rcx
  40d82e:	03 03 03 
  40d831:	48 89 08             	mov    %rcx,(%rax)
  40d834:	e9 3c 01 00 00       	jmpq   40d975 <__cocheck__globalRegister+0x1195>
  40d839:	48 8b 84 24 40 01 00 	mov    0x140(%rsp),%rax
  40d840:	00 
  40d841:	48 83 e8 04          	sub    $0x4,%rax
  40d845:	c7 00 03 02 02 01    	movl   $0x1020203,(%rax)
  40d84b:	48 8b 84 24 40 01 00 	mov    0x140(%rsp),%rax
  40d852:	00 
  40d853:	48 83 e8 0c          	sub    $0xc,%rax
  40d857:	48 b9 04 04 04 04 04 	movabs $0x303030404040404,%rcx
  40d85e:	03 03 03 
  40d861:	48 89 08             	mov    %rcx,(%rax)
  40d864:	e9 0c 01 00 00       	jmpq   40d975 <__cocheck__globalRegister+0x1195>
  40d869:	48 8b 84 24 40 01 00 	mov    0x140(%rsp),%rax
  40d870:	00 
  40d871:	48 83 e8 01          	sub    $0x1,%rax
  40d875:	c6 00 01             	movb   $0x1,(%rax)
  40d878:	48 8b 84 24 40 01 00 	mov    0x140(%rsp),%rax
  40d87f:	00 
  40d880:	48 83 e8 05          	sub    $0x5,%rax
  40d884:	c7 00 03 03 02 02    	movl   $0x2020303,(%rax)
  40d88a:	48 8b 84 24 40 01 00 	mov    0x140(%rsp),%rax
  40d891:	00 
  40d892:	48 83 e8 0d          	sub    $0xd,%rax
  40d896:	48 b9 04 04 04 04 04 	movabs $0x303040404040404,%rcx
  40d89d:	04 03 03 
  40d8a0:	48 89 08             	mov    %rcx,(%rax)
  40d8a3:	e9 cd 00 00 00       	jmpq   40d975 <__cocheck__globalRegister+0x1195>
  40d8a8:	48 8b 84 24 40 01 00 	mov    0x140(%rsp),%rax
  40d8af:	00 
  40d8b0:	48 83 e8 02          	sub    $0x2,%rax
  40d8b4:	66 c7 00 02 01       	movw   $0x102,(%rax)
  40d8b9:	48 8b 84 24 40 01 00 	mov    0x140(%rsp),%rax
  40d8c0:	00 
  40d8c1:	48 83 e8 06          	sub    $0x6,%rax
  40d8c5:	c7 00 03 03 03 02    	movl   $0x2030303,(%rax)
  40d8cb:	48 8b 84 24 40 01 00 	mov    0x140(%rsp),%rax
  40d8d2:	00 
  40d8d3:	48 83 e8 0e          	sub    $0xe,%rax
  40d8d7:	48 b9 04 04 04 04 04 	movabs $0x304040404040404,%rcx
  40d8de:	04 04 03 
  40d8e1:	48 89 08             	mov    %rcx,(%rax)
  40d8e4:	e9 8c 00 00 00       	jmpq   40d975 <__cocheck__globalRegister+0x1195>
  40d8e9:	48 8b 84 24 40 01 00 	mov    0x140(%rsp),%rax
  40d8f0:	00 
  40d8f1:	48 83 e8 01          	sub    $0x1,%rax
  40d8f5:	c6 00 01             	movb   $0x1,(%rax)
  40d8f8:	48 8b 84 24 40 01 00 	mov    0x140(%rsp),%rax
  40d8ff:	00 
  40d900:	48 83 e8 03          	sub    $0x3,%rax
  40d904:	66 c7 00 02 02       	movw   $0x202,(%rax)
  40d909:	48 8b 84 24 40 01 00 	mov    0x140(%rsp),%rax
  40d910:	00 
  40d911:	48 83 e8 07          	sub    $0x7,%rax
  40d915:	c7 00 03 03 03 03    	movl   $0x3030303,(%rax)
  40d91b:	48 8b 84 24 40 01 00 	mov    0x140(%rsp),%rax
  40d922:	00 
  40d923:	48 83 e8 0f          	sub    $0xf,%rax
  40d927:	48 b9 04 04 04 04 04 	movabs $0x404040404040404,%rcx
  40d92e:	04 04 04 
  40d931:	48 89 08             	mov    %rcx,(%rax)
  40d934:	e9 3c 00 00 00       	jmpq   40d975 <__cocheck__globalRegister+0x1195>
  40d939:	48 8b 84 24 40 01 00 	mov    0x140(%rsp),%rax
  40d940:	00 
  40d941:	48 83 e8 08          	sub    $0x8,%rax
  40d945:	48 b9 04 03 03 03 03 	movabs $0x102020303030304,%rcx
  40d94c:	02 02 01 
  40d94f:	48 89 08             	mov    %rcx,(%rax)
  40d952:	48 8b 84 24 40 01 00 	mov    0x140(%rsp),%rax
  40d959:	00 
  40d95a:	48 83 e8 10          	sub    $0x10,%rax
  40d95e:	48 b9 05 04 04 04 04 	movabs $0x404040404040405,%rcx
  40d965:	04 04 04 
  40d968:	48 89 08             	mov    %rcx,(%rax)
  40d96b:	e9 05 00 00 00       	jmpq   40d975 <__cocheck__globalRegister+0x1195>
  40d970:	e9 00 00 00 00       	jmpq   40d975 <__cocheck__globalRegister+0x1195>
  40d975:	c7 84 24 34 01 00 00 	movl   $0x1,0x134(%rsp)
  40d97c:	01 00 00 00 
  40d980:	e9 4b 01 00 00       	jmpq   40dad0 <__cocheck__globalRegister+0x12f0>
  40d985:	48 8b 84 24 40 01 00 	mov    0x140(%rsp),%rax
  40d98c:	00 
  40d98d:	48 83 e8 08          	sub    $0x8,%rax
  40d991:	48 b9 04 03 03 03 03 	movabs $0x102020303030304,%rcx
  40d998:	02 02 01 
  40d99b:	48 89 08             	mov    %rcx,(%rax)
  40d99e:	48 8b 84 24 40 01 00 	mov    0x140(%rsp),%rax
  40d9a5:	00 
  40d9a6:	48 83 e8 10          	sub    $0x10,%rax
  40d9aa:	48 b9 05 04 04 04 04 	movabs $0x404040404040405,%rcx
  40d9b1:	04 04 04 
  40d9b4:	48 89 08             	mov    %rcx,(%rax)
  40d9b7:	48 c7 84 24 28 01 00 	movq   $0x4,0x128(%rsp)
  40d9be:	00 04 00 00 00 
  40d9c3:	48 8b 84 24 40 01 00 	mov    0x140(%rsp),%rax
  40d9ca:	00 
  40d9cb:	48 8b 8c 24 28 01 00 	mov    0x128(%rsp),%rcx
  40d9d2:	00 
  40d9d3:	ba 01 00 00 00       	mov    $0x1,%edx
  40d9d8:	d3 e2                	shl    %cl,%edx
  40d9da:	89 d1                	mov    %edx,%ecx
  40d9dc:	48 63 c9             	movslq %ecx,%rcx
  40d9df:	48 29 c8             	sub    %rcx,%rax
  40d9e2:	48 3b 84 24 48 01 00 	cmp    0x148(%rsp),%rax
  40d9e9:	00 
  40d9ea:	0f 83 1b 00 00 00    	jae    40da0b <__cocheck__globalRegister+0x122b>
  40d9f0:	c7 84 24 34 01 00 00 	movl   $0x3,0x134(%rsp)
  40d9f7:	03 00 00 00 
  40d9fb:	c7 84 24 34 01 00 00 	movl   $0x0,0x134(%rsp)
  40da02:	00 00 00 00 
  40da06:	e9 c5 00 00 00       	jmpq   40dad0 <__cocheck__globalRegister+0x12f0>
  40da0b:	48 8b 84 24 40 01 00 	mov    0x140(%rsp),%rax
  40da12:	00 
  40da13:	48 8b 8c 24 28 01 00 	mov    0x128(%rsp),%rcx
  40da1a:	00 
  40da1b:	48 83 c1 01          	add    $0x1,%rcx
  40da1f:	ba 01 00 00 00       	mov    $0x1,%edx
  40da24:	d3 e2                	shl    %cl,%edx
  40da26:	89 d1                	mov    %edx,%ecx
  40da28:	48 63 c9             	movslq %ecx,%rcx
  40da2b:	48 29 c8             	sub    %rcx,%rax
  40da2e:	48 83 c0 01          	add    $0x1,%rax
  40da32:	48 89 84 24 20 01 00 	mov    %rax,0x120(%rsp)
  40da39:	00 
  40da3a:	48 8b 84 24 40 01 00 	mov    0x140(%rsp),%rax
  40da41:	00 
  40da42:	48 8b 8c 24 28 01 00 	mov    0x128(%rsp),%rcx
  40da49:	00 
  40da4a:	ba 01 00 00 00       	mov    $0x1,%edx
  40da4f:	d3 e2                	shl    %cl,%edx
  40da51:	89 d1                	mov    %edx,%ecx
  40da53:	48 63 c9             	movslq %ecx,%rcx
  40da56:	48 29 c8             	sub    %rcx,%rax
  40da59:	48 89 84 24 18 01 00 	mov    %rax,0x118(%rsp)
  40da60:	00 
  40da61:	48 8b 84 24 20 01 00 	mov    0x120(%rsp),%rax
  40da68:	00 
  40da69:	48 3b 84 24 48 01 00 	cmp    0x148(%rsp),%rax
  40da70:	00 
  40da71:	0f 83 10 00 00 00    	jae    40da87 <__cocheck__globalRegister+0x12a7>
  40da77:	48 8b 84 24 48 01 00 	mov    0x148(%rsp),%rax
  40da7e:	00 
  40da7f:	48 89 84 24 20 01 00 	mov    %rax,0x120(%rsp)
  40da86:	00 
  40da87:	48 8b bc 24 20 01 00 	mov    0x120(%rsp),%rdi
  40da8e:	00 
  40da8f:	48 8b 84 24 28 01 00 	mov    0x128(%rsp),%rax
  40da96:	00 
  40da97:	48 83 c0 01          	add    $0x1,%rax
  40da9b:	48 8b 94 24 18 01 00 	mov    0x118(%rsp),%rdx
  40daa2:	00 
  40daa3:	48 2b 94 24 20 01 00 	sub    0x120(%rsp),%rdx
  40daaa:	00 
  40daab:	48 83 c2 01          	add    $0x1,%rdx
  40daaf:	0f b6 f0             	movzbl %al,%esi
  40dab2:	e8 19 36 ff ff       	callq  4010d0 <memset@plt>
  40dab7:	48 8b 84 24 28 01 00 	mov    0x128(%rsp),%rax
  40dabe:	00 
  40dabf:	48 83 c0 01          	add    $0x1,%rax
  40dac3:	48 89 84 24 28 01 00 	mov    %rax,0x128(%rsp)
  40daca:	00 
  40dacb:	e9 f3 fe ff ff       	jmpq   40d9c3 <__cocheck__globalRegister+0x11e3>
  40dad0:	e9 35 00 00 00       	jmpq   40db0a <__cocheck__globalRegister+0x132a>
  40dad5:	48 8b 84 24 10 01 00 	mov    0x110(%rsp),%rax
  40dadc:	00 
  40dadd:	48 c1 e8 03          	shr    $0x3,%rax
  40dae1:	48 05 00 80 ff 7f    	add    $0x7fff8000,%rax
  40dae7:	48 89 84 24 e8 00 00 	mov    %rax,0xe8(%rsp)
  40daee:	00 
  40daef:	48 8b bc 24 e8 00 00 	mov    0xe8(%rsp),%rdi
  40daf6:	00 
  40daf7:	48 8b 94 24 08 01 00 	mov    0x108(%rsp),%rdx
  40dafe:	00 
  40daff:	48 c1 ea 03          	shr    $0x3,%rdx
  40db03:	31 f6                	xor    %esi,%esi
  40db05:	e8 c6 35 ff ff       	callq  4010d0 <memset@plt>
  40db0a:	48 8b 44 24 60       	mov    0x60(%rsp),%rax
  40db0f:	48 83 e0 07          	and    $0x7,%rax
  40db13:	48 83 f8 00          	cmp    $0x0,%rax
  40db17:	0f 84 2e 00 00 00    	je     40db4b <__cocheck__globalRegister+0x136b>
  40db1d:	48 8b 44 24 60       	mov    0x60(%rsp),%rax
  40db22:	48 83 e0 07          	and    $0x7,%rax
  40db26:	ba 08 00 00 00       	mov    $0x8,%edx
  40db2b:	48 29 c2             	sub    %rax,%rdx
  40db2e:	48 c1 e2 05          	shl    $0x5,%rdx
  40db32:	48 8b 44 24 50       	mov    0x50(%rsp),%rax
  40db37:	48 c1 e8 03          	shr    $0x3,%rax
  40db3b:	0f b6 88 00 80 ff 7f 	movzbl 0x7fff8000(%rax),%ecx
  40db42:	48 01 d1             	add    %rdx,%rcx
  40db45:	88 88 00 80 ff 7f    	mov    %cl,0x7fff8000(%rax)
  40db4b:	e9 00 00 00 00       	jmpq   40db50 <__cocheck__globalRegister+0x1370>
  40db50:	e9 00 00 00 00       	jmpq   40db55 <__cocheck__globalRegister+0x1375>
  40db55:	48 81 c4 d8 01 00 00 	add    $0x1d8,%rsp
  40db5c:	c3                   	retq   
  40db5d:	0f 1f 00             	nopl   (%rax)

000000000040db60 <__cocheck__poison_environment>:
  40db60:	48 81 ec c8 03 00 00 	sub    $0x3c8,%rsp
  40db67:	89 7c 24 64          	mov    %edi,0x64(%rsp)
  40db6b:	48 89 74 24 58       	mov    %rsi,0x58(%rsp)
  40db70:	48 89 54 24 50       	mov    %rdx,0x50(%rsp)
  40db75:	48 8b 44 24 58       	mov    0x58(%rsp),%rax
  40db7a:	48 8b 00             	mov    (%rax),%rax
  40db7d:	48 89 44 24 48       	mov    %rax,0x48(%rsp)
  40db82:	48 8b 44 24 48       	mov    0x48(%rsp),%rax
  40db87:	48 c1 e8 03          	shr    $0x3,%rax
  40db8b:	48 c1 e0 03          	shl    $0x3,%rax
  40db8f:	48 89 44 24 48       	mov    %rax,0x48(%rsp)
  40db94:	48 8b 44 24 50       	mov    0x50(%rsp),%rax
  40db99:	48 89 44 24 40       	mov    %rax,0x40(%rsp)
  40db9e:	48 8b 44 24 40       	mov    0x40(%rsp),%rax
  40dba3:	48 83 38 00          	cmpq   $0x0,(%rax)
  40dba7:	0f 84 18 00 00 00    	je     40dbc5 <__cocheck__poison_environment+0x65>
  40dbad:	e9 00 00 00 00       	jmpq   40dbb2 <__cocheck__poison_environment+0x52>
  40dbb2:	48 8b 44 24 40       	mov    0x40(%rsp),%rax
  40dbb7:	48 83 c0 08          	add    $0x8,%rax
  40dbbb:	48 89 44 24 40       	mov    %rax,0x40(%rsp)
  40dbc0:	e9 d9 ff ff ff       	jmpq   40db9e <__cocheck__poison_environment+0x3e>
  40dbc5:	48 8b 44 24 40       	mov    0x40(%rsp),%rax
  40dbca:	48 83 c0 f8          	add    $0xfffffffffffffff8,%rax
  40dbce:	48 89 44 24 40       	mov    %rax,0x40(%rsp)
  40dbd3:	48 8b 44 24 40       	mov    0x40(%rsp),%rax
  40dbd8:	48 8b 00             	mov    (%rax),%rax
  40dbdb:	48 89 44 24 30       	mov    %rax,0x30(%rsp)
  40dbe0:	48 8b 44 24 40       	mov    0x40(%rsp),%rax
  40dbe5:	48 8b 38             	mov    (%rax),%rdi
  40dbe8:	e8 b3 34 ff ff       	callq  4010a0 <strlen@plt>
  40dbed:	48 89 c1             	mov    %rax,%rcx
  40dbf0:	48 8b 44 24 30       	mov    0x30(%rsp),%rax
  40dbf5:	48 01 c8             	add    %rcx,%rax
  40dbf8:	48 89 44 24 38       	mov    %rax,0x38(%rsp)
  40dbfd:	48 8b 4c 24 48       	mov    0x48(%rsp),%rcx
  40dc02:	48 8b 44 24 38       	mov    0x38(%rsp),%rax
  40dc07:	48 2b 44 24 48       	sub    0x48(%rsp),%rax
  40dc0c:	48 83 c0 01          	add    $0x1,%rax
  40dc10:	48 89 8c 24 a8 00 00 	mov    %rcx,0xa8(%rsp)
  40dc17:	00 
  40dc18:	48 89 84 24 a0 00 00 	mov    %rax,0xa0(%rsp)
  40dc1f:	00 
  40dc20:	48 8b 84 24 a8 00 00 	mov    0xa8(%rsp),%rax
  40dc27:	00 
  40dc28:	48 89 84 24 98 00 00 	mov    %rax,0x98(%rsp)
  40dc2f:	00 
  40dc30:	48 8b 84 24 98 00 00 	mov    0x98(%rsp),%rax
  40dc37:	00 
  40dc38:	48 03 84 24 a0 00 00 	add    0xa0(%rsp),%rax
  40dc3f:	00 
  40dc40:	48 89 84 24 90 00 00 	mov    %rax,0x90(%rsp)
  40dc47:	00 
  40dc48:	48 8b 84 24 98 00 00 	mov    0x98(%rsp),%rax
  40dc4f:	00 
  40dc50:	48 c1 e8 08          	shr    $0x8,%rax
  40dc54:	48 89 84 24 88 00 00 	mov    %rax,0x88(%rsp)
  40dc5b:	00 
  40dc5c:	48 8b 84 24 88 00 00 	mov    0x88(%rsp),%rax
  40dc63:	00 
  40dc64:	48 c1 e0 08          	shl    $0x8,%rax
  40dc68:	48 89 84 24 80 00 00 	mov    %rax,0x80(%rsp)
  40dc6f:	00 
  40dc70:	48 8b 84 24 90 00 00 	mov    0x90(%rsp),%rax
  40dc77:	00 
  40dc78:	48 c1 e8 08          	shr    $0x8,%rax
  40dc7c:	48 89 44 24 78       	mov    %rax,0x78(%rsp)
  40dc81:	48 8b 44 24 78       	mov    0x78(%rsp),%rax
  40dc86:	48 c1 e0 08          	shl    $0x8,%rax
  40dc8a:	48 89 44 24 70       	mov    %rax,0x70(%rsp)
  40dc8f:	48 8b 84 24 88 00 00 	mov    0x88(%rsp),%rax
  40dc96:	00 
  40dc97:	48 3b 44 24 78       	cmp    0x78(%rsp),%rax
  40dc9c:	0f 85 28 06 00 00    	jne    40e2ca <__cocheck__poison_environment+0x76a>
  40dca2:	48 8b 8c 24 a8 00 00 	mov    0xa8(%rsp),%rcx
  40dca9:	00 
  40dcaa:	48 8b 84 24 a0 00 00 	mov    0xa0(%rsp),%rax
  40dcb1:	00 
  40dcb2:	48 89 8c 24 d8 00 00 	mov    %rcx,0xd8(%rsp)
  40dcb9:	00 
  40dcba:	48 89 84 24 d0 00 00 	mov    %rax,0xd0(%rsp)
  40dcc1:	00 
  40dcc2:	c6 84 24 cf 00 00 00 	movb   $0x0,0xcf(%rsp)
  40dcc9:	00 
  40dcca:	48 8b 84 24 d8 00 00 	mov    0xd8(%rsp),%rax
  40dcd1:	00 
  40dcd2:	48 c1 e8 08          	shr    $0x8,%rax
  40dcd6:	48 89 84 24 c0 00 00 	mov    %rax,0xc0(%rsp)
  40dcdd:	00 
  40dcde:	48 8b 04 25 08 82 61 	mov    0x618208,%rax
  40dce5:	00 
  40dce6:	48 8b 8c 24 c0 00 00 	mov    0xc0(%rsp),%rcx
  40dced:	00 
  40dcee:	80 3c 08 00          	cmpb   $0x0,(%rax,%rcx,1)
  40dcf2:	0f 85 49 00 00 00    	jne    40dd41 <__cocheck__poison_environment+0x1e1>
  40dcf8:	48 8b 04 25 08 82 61 	mov    0x618208,%rax
  40dcff:	00 
  40dd00:	48 8b 8c 24 c0 00 00 	mov    0xc0(%rsp),%rcx
  40dd07:	00 
  40dd08:	c6 04 08 01          	movb   $0x1,(%rax,%rcx,1)
  40dd0c:	48 8b 84 24 c0 00 00 	mov    0xc0(%rsp),%rax
  40dd13:	00 
  40dd14:	48 c1 e0 08          	shl    $0x8,%rax
  40dd18:	48 c1 e8 03          	shr    $0x3,%rax
  40dd1c:	48 05 00 80 ff 7f    	add    $0x7fff8000,%rax
  40dd22:	48 89 84 24 b8 00 00 	mov    %rax,0xb8(%rsp)
  40dd29:	00 
  40dd2a:	48 8b bc 24 b8 00 00 	mov    0xb8(%rsp),%rdi
  40dd31:	00 
  40dd32:	be ff 00 00 00       	mov    $0xff,%esi
  40dd37:	ba 20 00 00 00       	mov    $0x20,%edx
  40dd3c:	e8 8f 33 ff ff       	callq  4010d0 <memset@plt>
  40dd41:	80 bc 24 cf 00 00 00 	cmpb   $0x0,0xcf(%rsp)
  40dd48:	00 
  40dd49:	0f 85 f7 04 00 00    	jne    40e246 <__cocheck__poison_environment+0x6e6>
  40dd4f:	48 8b 8c 24 d8 00 00 	mov    0xd8(%rsp),%rcx
  40dd56:	00 
  40dd57:	48 8b 84 24 d0 00 00 	mov    0xd0(%rsp),%rax
  40dd5e:	00 
  40dd5f:	48 89 8c 24 20 01 00 	mov    %rcx,0x120(%rsp)
  40dd66:	00 
  40dd67:	48 89 84 24 18 01 00 	mov    %rax,0x118(%rsp)
  40dd6e:	00 
  40dd6f:	48 8b 84 24 20 01 00 	mov    0x120(%rsp),%rax
  40dd76:	00 
  40dd77:	48 c1 e8 03          	shr    $0x3,%rax
  40dd7b:	48 05 00 80 ff 7f    	add    $0x7fff8000,%rax
  40dd81:	48 89 84 24 10 01 00 	mov    %rax,0x110(%rsp)
  40dd88:	00 
  40dd89:	48 8b 84 24 20 01 00 	mov    0x120(%rsp),%rax
  40dd90:	00 
  40dd91:	48 03 84 24 18 01 00 	add    0x118(%rsp),%rax
  40dd98:	00 
  40dd99:	48 83 e8 01          	sub    $0x1,%rax
  40dd9d:	48 c1 e8 03          	shr    $0x3,%rax
  40dda1:	48 05 00 80 ff 7f    	add    $0x7fff8000,%rax
  40dda7:	48 83 c0 01          	add    $0x1,%rax
  40ddab:	48 89 84 24 08 01 00 	mov    %rax,0x108(%rsp)
  40ddb2:	00 
  40ddb3:	48 81 bc 24 18 01 00 	cmpq   $0x80,0x118(%rsp)
  40ddba:	00 80 00 00 00 
  40ddbf:	0f 87 31 03 00 00    	ja     40e0f6 <__cocheck__poison_environment+0x596>
  40ddc5:	48 8b 84 24 18 01 00 	mov    0x118(%rsp),%rax
  40ddcc:	00 
  40ddcd:	48 83 c0 07          	add    $0x7,%rax
  40ddd1:	48 c1 e8 03          	shr    $0x3,%rax
  40ddd5:	48 89 84 24 00 01 00 	mov    %rax,0x100(%rsp)
  40dddc:	00 
  40dddd:	48 8b 84 24 00 01 00 	mov    0x100(%rsp),%rax
  40dde4:	00 
  40dde5:	48 83 c0 ff          	add    $0xffffffffffffffff,%rax
  40dde9:	48 89 44 24 28       	mov    %rax,0x28(%rsp)
  40ddee:	48 83 e8 0f          	sub    $0xf,%rax
  40ddf2:	0f 87 e9 02 00 00    	ja     40e0e1 <__cocheck__poison_environment+0x581>
  40ddf8:	48 8b 44 24 28       	mov    0x28(%rsp),%rax
  40ddfd:	48 8b 04 c5 e8 55 41 	mov    0x4155e8(,%rax,8),%rax
  40de04:	00 
  40de05:	ff e0                	jmpq   *%rax
  40de07:	48 8b 84 24 08 01 00 	mov    0x108(%rsp),%rax
  40de0e:	00 
  40de0f:	48 83 e8 01          	sub    $0x1,%rax
  40de13:	c6 00 01             	movb   $0x1,(%rax)
  40de16:	e9 cb 02 00 00       	jmpq   40e0e6 <__cocheck__poison_environment+0x586>
  40de1b:	48 8b 84 24 08 01 00 	mov    0x108(%rsp),%rax
  40de22:	00 
  40de23:	48 83 e8 02          	sub    $0x2,%rax
  40de27:	66 c7 00 02 01       	movw   $0x102,(%rax)
  40de2c:	e9 b5 02 00 00       	jmpq   40e0e6 <__cocheck__poison_environment+0x586>
  40de31:	48 8b 84 24 08 01 00 	mov    0x108(%rsp),%rax
  40de38:	00 
  40de39:	48 83 e8 01          	sub    $0x1,%rax
  40de3d:	c6 00 01             	movb   $0x1,(%rax)
  40de40:	48 8b 84 24 08 01 00 	mov    0x108(%rsp),%rax
  40de47:	00 
  40de48:	48 83 e8 03          	sub    $0x3,%rax
  40de4c:	66 c7 00 02 02       	movw   $0x202,(%rax)
  40de51:	e9 90 02 00 00       	jmpq   40e0e6 <__cocheck__poison_environment+0x586>
  40de56:	48 8b 84 24 08 01 00 	mov    0x108(%rsp),%rax
  40de5d:	00 
  40de5e:	48 83 e8 04          	sub    $0x4,%rax
  40de62:	c7 00 03 02 02 01    	movl   $0x1020203,(%rax)
  40de68:	e9 79 02 00 00       	jmpq   40e0e6 <__cocheck__poison_environment+0x586>
  40de6d:	48 8b 84 24 08 01 00 	mov    0x108(%rsp),%rax
  40de74:	00 
  40de75:	48 83 e8 01          	sub    $0x1,%rax
  40de79:	c6 00 01             	movb   $0x1,(%rax)
  40de7c:	48 8b 84 24 08 01 00 	mov    0x108(%rsp),%rax
  40de83:	00 
  40de84:	48 83 e8 05          	sub    $0x5,%rax
  40de88:	c7 00 03 03 02 02    	movl   $0x2020303,(%rax)
  40de8e:	e9 53 02 00 00       	jmpq   40e0e6 <__cocheck__poison_environment+0x586>
  40de93:	48 8b 84 24 08 01 00 	mov    0x108(%rsp),%rax
  40de9a:	00 
  40de9b:	48 83 e8 02          	sub    $0x2,%rax
  40de9f:	66 c7 00 02 01       	movw   $0x102,(%rax)
  40dea4:	48 8b 84 24 08 01 00 	mov    0x108(%rsp),%rax
  40deab:	00 
  40deac:	48 83 e8 06          	sub    $0x6,%rax
  40deb0:	c7 00 03 03 03 02    	movl   $0x2030303,(%rax)
  40deb6:	e9 2b 02 00 00       	jmpq   40e0e6 <__cocheck__poison_environment+0x586>
  40debb:	48 8b 84 24 08 01 00 	mov    0x108(%rsp),%rax
  40dec2:	00 
  40dec3:	48 83 e8 01          	sub    $0x1,%rax
  40dec7:	c6 00 01             	movb   $0x1,(%rax)
  40deca:	48 8b 84 24 08 01 00 	mov    0x108(%rsp),%rax
  40ded1:	00 
  40ded2:	48 83 e8 03          	sub    $0x3,%rax
  40ded6:	66 c7 00 02 02       	movw   $0x202,(%rax)
  40dedb:	48 8b 84 24 08 01 00 	mov    0x108(%rsp),%rax
  40dee2:	00 
  40dee3:	48 83 e8 07          	sub    $0x7,%rax
  40dee7:	c7 00 03 03 03 03    	movl   $0x3030303,(%rax)
  40deed:	e9 f4 01 00 00       	jmpq   40e0e6 <__cocheck__poison_environment+0x586>
  40def2:	48 8b 84 24 08 01 00 	mov    0x108(%rsp),%rax
  40def9:	00 
  40defa:	48 83 e8 08          	sub    $0x8,%rax
  40defe:	48 b9 04 03 03 03 03 	movabs $0x102020303030304,%rcx
  40df05:	02 02 01 
  40df08:	48 89 08             	mov    %rcx,(%rax)
  40df0b:	e9 d6 01 00 00       	jmpq   40e0e6 <__cocheck__poison_environment+0x586>
  40df10:	48 8b 84 24 08 01 00 	mov    0x108(%rsp),%rax
  40df17:	00 
  40df18:	48 83 e8 01          	sub    $0x1,%rax
  40df1c:	c6 00 01             	movb   $0x1,(%rax)
  40df1f:	48 8b 84 24 08 01 00 	mov    0x108(%rsp),%rax
  40df26:	00 
  40df27:	48 83 e8 09          	sub    $0x9,%rax
  40df2b:	48 b9 04 04 03 03 03 	movabs $0x202030303030404,%rcx
  40df32:	03 02 02 
  40df35:	48 89 08             	mov    %rcx,(%rax)
  40df38:	e9 a9 01 00 00       	jmpq   40e0e6 <__cocheck__poison_environment+0x586>
  40df3d:	48 8b 84 24 08 01 00 	mov    0x108(%rsp),%rax
  40df44:	00 
  40df45:	48 83 e8 02          	sub    $0x2,%rax
  40df49:	66 c7 00 02 01       	movw   $0x102,(%rax)
  40df4e:	48 8b 84 24 08 01 00 	mov    0x108(%rsp),%rax
  40df55:	00 
  40df56:	48 83 e8 0a          	sub    $0xa,%rax
  40df5a:	48 b9 04 04 04 03 03 	movabs $0x203030303040404,%rcx
  40df61:	03 03 02 
  40df64:	48 89 08             	mov    %rcx,(%rax)
  40df67:	e9 7a 01 00 00       	jmpq   40e0e6 <__cocheck__poison_environment+0x586>
  40df6c:	48 8b 84 24 08 01 00 	mov    0x108(%rsp),%rax
  40df73:	00 
  40df74:	48 83 e8 01          	sub    $0x1,%rax
  40df78:	c6 00 01             	movb   $0x1,(%rax)
  40df7b:	48 8b 84 24 08 01 00 	mov    0x108(%rsp),%rax
  40df82:	00 
  40df83:	48 83 e8 03          	sub    $0x3,%rax
  40df87:	66 c7 00 02 02       	movw   $0x202,(%rax)
  40df8c:	48 8b 84 24 08 01 00 	mov    0x108(%rsp),%rax
  40df93:	00 
  40df94:	48 83 e8 0b          	sub    $0xb,%rax
  40df98:	48 b9 04 04 04 04 03 	movabs $0x303030304040404,%rcx
  40df9f:	03 03 03 
  40dfa2:	48 89 08             	mov    %rcx,(%rax)
  40dfa5:	e9 3c 01 00 00       	jmpq   40e0e6 <__cocheck__poison_environment+0x586>
  40dfaa:	48 8b 84 24 08 01 00 	mov    0x108(%rsp),%rax
  40dfb1:	00 
  40dfb2:	48 83 e8 04          	sub    $0x4,%rax
  40dfb6:	c7 00 03 02 02 01    	movl   $0x1020203,(%rax)
  40dfbc:	48 8b 84 24 08 01 00 	mov    0x108(%rsp),%rax
  40dfc3:	00 
  40dfc4:	48 83 e8 0c          	sub    $0xc,%rax
  40dfc8:	48 b9 04 04 04 04 04 	movabs $0x303030404040404,%rcx
  40dfcf:	03 03 03 
  40dfd2:	48 89 08             	mov    %rcx,(%rax)
  40dfd5:	e9 0c 01 00 00       	jmpq   40e0e6 <__cocheck__poison_environment+0x586>
  40dfda:	48 8b 84 24 08 01 00 	mov    0x108(%rsp),%rax
  40dfe1:	00 
  40dfe2:	48 83 e8 01          	sub    $0x1,%rax
  40dfe6:	c6 00 01             	movb   $0x1,(%rax)
  40dfe9:	48 8b 84 24 08 01 00 	mov    0x108(%rsp),%rax
  40dff0:	00 
  40dff1:	48 83 e8 05          	sub    $0x5,%rax
  40dff5:	c7 00 03 03 02 02    	movl   $0x2020303,(%rax)
  40dffb:	48 8b 84 24 08 01 00 	mov    0x108(%rsp),%rax
  40e002:	00 
  40e003:	48 83 e8 0d          	sub    $0xd,%rax
  40e007:	48 b9 04 04 04 04 04 	movabs $0x303040404040404,%rcx
  40e00e:	04 03 03 
  40e011:	48 89 08             	mov    %rcx,(%rax)
  40e014:	e9 cd 00 00 00       	jmpq   40e0e6 <__cocheck__poison_environment+0x586>
  40e019:	48 8b 84 24 08 01 00 	mov    0x108(%rsp),%rax
  40e020:	00 
  40e021:	48 83 e8 02          	sub    $0x2,%rax
  40e025:	66 c7 00 02 01       	movw   $0x102,(%rax)
  40e02a:	48 8b 84 24 08 01 00 	mov    0x108(%rsp),%rax
  40e031:	00 
  40e032:	48 83 e8 06          	sub    $0x6,%rax
  40e036:	c7 00 03 03 03 02    	movl   $0x2030303,(%rax)
  40e03c:	48 8b 84 24 08 01 00 	mov    0x108(%rsp),%rax
  40e043:	00 
  40e044:	48 83 e8 0e          	sub    $0xe,%rax
  40e048:	48 b9 04 04 04 04 04 	movabs $0x304040404040404,%rcx
  40e04f:	04 04 03 
  40e052:	48 89 08             	mov    %rcx,(%rax)
  40e055:	e9 8c 00 00 00       	jmpq   40e0e6 <__cocheck__poison_environment+0x586>
  40e05a:	48 8b 84 24 08 01 00 	mov    0x108(%rsp),%rax
  40e061:	00 
  40e062:	48 83 e8 01          	sub    $0x1,%rax
  40e066:	c6 00 01             	movb   $0x1,(%rax)
  40e069:	48 8b 84 24 08 01 00 	mov    0x108(%rsp),%rax
  40e070:	00 
  40e071:	48 83 e8 03          	sub    $0x3,%rax
  40e075:	66 c7 00 02 02       	movw   $0x202,(%rax)
  40e07a:	48 8b 84 24 08 01 00 	mov    0x108(%rsp),%rax
  40e081:	00 
  40e082:	48 83 e8 07          	sub    $0x7,%rax
  40e086:	c7 00 03 03 03 03    	movl   $0x3030303,(%rax)
  40e08c:	48 8b 84 24 08 01 00 	mov    0x108(%rsp),%rax
  40e093:	00 
  40e094:	48 83 e8 0f          	sub    $0xf,%rax
  40e098:	48 b9 04 04 04 04 04 	movabs $0x404040404040404,%rcx
  40e09f:	04 04 04 
  40e0a2:	48 89 08             	mov    %rcx,(%rax)
  40e0a5:	e9 3c 00 00 00       	jmpq   40e0e6 <__cocheck__poison_environment+0x586>
  40e0aa:	48 8b 84 24 08 01 00 	mov    0x108(%rsp),%rax
  40e0b1:	00 
  40e0b2:	48 83 e8 08          	sub    $0x8,%rax
  40e0b6:	48 b9 04 03 03 03 03 	movabs $0x102020303030304,%rcx
  40e0bd:	02 02 01 
  40e0c0:	48 89 08             	mov    %rcx,(%rax)
  40e0c3:	48 8b 84 24 08 01 00 	mov    0x108(%rsp),%rax
  40e0ca:	00 
  40e0cb:	48 83 e8 10          	sub    $0x10,%rax
  40e0cf:	48 b9 05 04 04 04 04 	movabs $0x404040404040405,%rcx
  40e0d6:	04 04 04 
  40e0d9:	48 89 08             	mov    %rcx,(%rax)
  40e0dc:	e9 05 00 00 00       	jmpq   40e0e6 <__cocheck__poison_environment+0x586>
  40e0e1:	e9 00 00 00 00       	jmpq   40e0e6 <__cocheck__poison_environment+0x586>
  40e0e6:	c7 84 24 fc 00 00 00 	movl   $0x1,0xfc(%rsp)
  40e0ed:	01 00 00 00 
  40e0f1:	e9 4b 01 00 00       	jmpq   40e241 <__cocheck__poison_environment+0x6e1>
  40e0f6:	48 8b 84 24 08 01 00 	mov    0x108(%rsp),%rax
  40e0fd:	00 
  40e0fe:	48 83 e8 08          	sub    $0x8,%rax
  40e102:	48 b9 04 03 03 03 03 	movabs $0x102020303030304,%rcx
  40e109:	02 02 01 
  40e10c:	48 89 08             	mov    %rcx,(%rax)
  40e10f:	48 8b 84 24 08 01 00 	mov    0x108(%rsp),%rax
  40e116:	00 
  40e117:	48 83 e8 10          	sub    $0x10,%rax
  40e11b:	48 b9 05 04 04 04 04 	movabs $0x404040404040405,%rcx
  40e122:	04 04 04 
  40e125:	48 89 08             	mov    %rcx,(%rax)
  40e128:	48 c7 84 24 f0 00 00 	movq   $0x4,0xf0(%rsp)
  40e12f:	00 04 00 00 00 
  40e134:	48 8b 84 24 08 01 00 	mov    0x108(%rsp),%rax
  40e13b:	00 
  40e13c:	48 8b 8c 24 f0 00 00 	mov    0xf0(%rsp),%rcx
  40e143:	00 
  40e144:	ba 01 00 00 00       	mov    $0x1,%edx
  40e149:	d3 e2                	shl    %cl,%edx
  40e14b:	89 d1                	mov    %edx,%ecx
  40e14d:	48 63 c9             	movslq %ecx,%rcx
  40e150:	48 29 c8             	sub    %rcx,%rax
  40e153:	48 3b 84 24 10 01 00 	cmp    0x110(%rsp),%rax
  40e15a:	00 
  40e15b:	0f 83 1b 00 00 00    	jae    40e17c <__cocheck__poison_environment+0x61c>
  40e161:	c7 84 24 fc 00 00 00 	movl   $0x3,0xfc(%rsp)
  40e168:	03 00 00 00 
  40e16c:	c7 84 24 fc 00 00 00 	movl   $0x0,0xfc(%rsp)
  40e173:	00 00 00 00 
  40e177:	e9 c5 00 00 00       	jmpq   40e241 <__cocheck__poison_environment+0x6e1>
  40e17c:	48 8b 84 24 08 01 00 	mov    0x108(%rsp),%rax
  40e183:	00 
  40e184:	48 8b 8c 24 f0 00 00 	mov    0xf0(%rsp),%rcx
  40e18b:	00 
  40e18c:	48 83 c1 01          	add    $0x1,%rcx
  40e190:	ba 01 00 00 00       	mov    $0x1,%edx
  40e195:	d3 e2                	shl    %cl,%edx
  40e197:	89 d1                	mov    %edx,%ecx
  40e199:	48 63 c9             	movslq %ecx,%rcx
  40e19c:	48 29 c8             	sub    %rcx,%rax
  40e19f:	48 83 c0 01          	add    $0x1,%rax
  40e1a3:	48 89 84 24 e8 00 00 	mov    %rax,0xe8(%rsp)
  40e1aa:	00 
  40e1ab:	48 8b 84 24 08 01 00 	mov    0x108(%rsp),%rax
  40e1b2:	00 
  40e1b3:	48 8b 8c 24 f0 00 00 	mov    0xf0(%rsp),%rcx
  40e1ba:	00 
  40e1bb:	ba 01 00 00 00       	mov    $0x1,%edx
  40e1c0:	d3 e2                	shl    %cl,%edx
  40e1c2:	89 d1                	mov    %edx,%ecx
  40e1c4:	48 63 c9             	movslq %ecx,%rcx
  40e1c7:	48 29 c8             	sub    %rcx,%rax
  40e1ca:	48 89 84 24 e0 00 00 	mov    %rax,0xe0(%rsp)
  40e1d1:	00 
  40e1d2:	48 8b 84 24 e8 00 00 	mov    0xe8(%rsp),%rax
  40e1d9:	00 
  40e1da:	48 3b 84 24 10 01 00 	cmp    0x110(%rsp),%rax
  40e1e1:	00 
  40e1e2:	0f 83 10 00 00 00    	jae    40e1f8 <__cocheck__poison_environment+0x698>
  40e1e8:	48 8b 84 24 10 01 00 	mov    0x110(%rsp),%rax
  40e1ef:	00 
  40e1f0:	48 89 84 24 e8 00 00 	mov    %rax,0xe8(%rsp)
  40e1f7:	00 
  40e1f8:	48 8b bc 24 e8 00 00 	mov    0xe8(%rsp),%rdi
  40e1ff:	00 
  40e200:	48 8b 84 24 f0 00 00 	mov    0xf0(%rsp),%rax
  40e207:	00 
  40e208:	48 83 c0 01          	add    $0x1,%rax
  40e20c:	48 8b 94 24 e0 00 00 	mov    0xe0(%rsp),%rdx
  40e213:	00 
  40e214:	48 2b 94 24 e8 00 00 	sub    0xe8(%rsp),%rdx
  40e21b:	00 
  40e21c:	48 83 c2 01          	add    $0x1,%rdx
  40e220:	0f b6 f0             	movzbl %al,%esi
  40e223:	e8 a8 2e ff ff       	callq  4010d0 <memset@plt>
  40e228:	48 8b 84 24 f0 00 00 	mov    0xf0(%rsp),%rax
  40e22f:	00 
  40e230:	48 83 c0 01          	add    $0x1,%rax
  40e234:	48 89 84 24 f0 00 00 	mov    %rax,0xf0(%rsp)
  40e23b:	00 
  40e23c:	e9 f3 fe ff ff       	jmpq   40e134 <__cocheck__poison_environment+0x5d4>
  40e241:	e9 35 00 00 00       	jmpq   40e27b <__cocheck__poison_environment+0x71b>
  40e246:	48 8b 84 24 d8 00 00 	mov    0xd8(%rsp),%rax
  40e24d:	00 
  40e24e:	48 c1 e8 03          	shr    $0x3,%rax
  40e252:	48 05 00 80 ff 7f    	add    $0x7fff8000,%rax
  40e258:	48 89 84 24 b0 00 00 	mov    %rax,0xb0(%rsp)
  40e25f:	00 
  40e260:	48 8b bc 24 b0 00 00 	mov    0xb0(%rsp),%rdi
  40e267:	00 
  40e268:	48 8b 94 24 d0 00 00 	mov    0xd0(%rsp),%rdx
  40e26f:	00 
  40e270:	48 c1 ea 03          	shr    $0x3,%rdx
  40e274:	31 f6                	xor    %esi,%esi
  40e276:	e8 55 2e ff ff       	callq  4010d0 <memset@plt>
  40e27b:	48 8b 84 24 a0 00 00 	mov    0xa0(%rsp),%rax
  40e282:	00 
  40e283:	48 83 e0 07          	and    $0x7,%rax
  40e287:	48 83 f8 00          	cmp    $0x0,%rax
  40e28b:	0f 84 34 00 00 00    	je     40e2c5 <__cocheck__poison_environment+0x765>
  40e291:	48 8b 84 24 a0 00 00 	mov    0xa0(%rsp),%rax
  40e298:	00 
  40e299:	48 83 e0 07          	and    $0x7,%rax
  40e29d:	ba 08 00 00 00       	mov    $0x8,%edx
  40e2a2:	48 29 c2             	sub    %rax,%rdx
  40e2a5:	48 c1 e2 05          	shl    $0x5,%rdx
  40e2a9:	48 8b 84 24 90 00 00 	mov    0x90(%rsp),%rax
  40e2b0:	00 
  40e2b1:	48 c1 e8 03          	shr    $0x3,%rax
  40e2b5:	0f b6 88 00 80 ff 7f 	movzbl 0x7fff8000(%rax),%ecx
  40e2bc:	48 01 d1             	add    %rdx,%rcx
  40e2bf:	88 88 00 80 ff 7f    	mov    %cl,0x7fff8000(%rax)
  40e2c5:	e9 14 0d 00 00       	jmpq   40efde <__cocheck__poison_environment+0x147e>
  40e2ca:	48 8b 84 24 88 00 00 	mov    0x88(%rsp),%rax
  40e2d1:	00 
  40e2d2:	48 89 44 24 68       	mov    %rax,0x68(%rsp)
  40e2d7:	48 8b 44 24 68       	mov    0x68(%rsp),%rax
  40e2dc:	48 3b 44 24 78       	cmp    0x78(%rsp),%rax
  40e2e1:	0f 85 1b 00 00 00    	jne    40e302 <__cocheck__poison_environment+0x7a2>
  40e2e7:	48 8b 84 24 98 00 00 	mov    0x98(%rsp),%rax
  40e2ee:	00 
  40e2ef:	48 3b 84 24 80 00 00 	cmp    0x80(%rsp),%rax
  40e2f6:	00 
  40e2f7:	0f 85 b8 00 00 00    	jne    40e3b5 <__cocheck__poison_environment+0x855>
  40e2fd:	e9 99 00 00 00       	jmpq   40e39b <__cocheck__poison_environment+0x83b>
  40e302:	48 8b 04 25 00 82 61 	mov    0x618200,%rax
  40e309:	00 
  40e30a:	48 8b 4c 24 68       	mov    0x68(%rsp),%rcx
  40e30f:	80 3c 08 00          	cmpb   $0x0,(%rax,%rcx,1)
  40e313:	0f 84 49 00 00 00    	je     40e362 <__cocheck__poison_environment+0x802>
  40e319:	48 8b 44 24 68       	mov    0x68(%rsp),%rax
  40e31e:	48 3b 84 24 88 00 00 	cmp    0x88(%rsp),%rax
  40e325:	00 
  40e326:	0f 85 16 00 00 00    	jne    40e342 <__cocheck__poison_environment+0x7e2>
  40e32c:	48 8b 84 24 98 00 00 	mov    0x98(%rsp),%rax
  40e333:	00 
  40e334:	48 3b 84 24 80 00 00 	cmp    0x80(%rsp),%rax
  40e33b:	00 
  40e33c:	0f 85 20 00 00 00    	jne    40e362 <__cocheck__poison_environment+0x802>
  40e342:	48 8b 7c 24 68       	mov    0x68(%rsp),%rdi
  40e347:	48 c1 e7 08          	shl    $0x8,%rdi
  40e34b:	48 c1 ef 03          	shr    $0x3,%rdi
  40e34f:	48 81 c7 00 80 ff 7f 	add    $0x7fff8000,%rdi
  40e356:	31 f6                	xor    %esi,%esi
  40e358:	ba 20 00 00 00       	mov    $0x20,%edx
  40e35d:	e8 6e 2d ff ff       	callq  4010d0 <memset@plt>
  40e362:	48 8b 84 24 90 00 00 	mov    0x90(%rsp),%rax
  40e369:	00 
  40e36a:	48 8b 4c 24 68       	mov    0x68(%rsp),%rcx
  40e36f:	48 c1 e1 08          	shl    $0x8,%rcx
  40e373:	48 29 c8             	sub    %rcx,%rax
  40e376:	89 c2                	mov    %eax,%edx
  40e378:	48 8b 04 25 f8 81 61 	mov    0x6181f8,%rax
  40e37f:	00 
  40e380:	48 8b 4c 24 68       	mov    0x68(%rsp),%rcx
  40e385:	89 14 88             	mov    %edx,(%rax,%rcx,4)
  40e388:	48 8b 44 24 68       	mov    0x68(%rsp),%rax
  40e38d:	48 83 c0 01          	add    $0x1,%rax
  40e391:	48 89 44 24 68       	mov    %rax,0x68(%rsp)
  40e396:	e9 3c ff ff ff       	jmpq   40e2d7 <__cocheck__poison_environment+0x777>
  40e39b:	48 8b 04 25 00 82 61 	mov    0x618200,%rax
  40e3a2:	00 
  40e3a3:	48 8b 8c 24 88 00 00 	mov    0x88(%rsp),%rcx
  40e3aa:	00 
  40e3ab:	80 3c 08 00          	cmpb   $0x0,(%rax,%rcx,1)
  40e3af:	0f 84 e7 05 00 00    	je     40e99c <__cocheck__poison_environment+0xe3c>
  40e3b5:	48 8b 8c 24 98 00 00 	mov    0x98(%rsp),%rcx
  40e3bc:	00 
  40e3bd:	48 8b 84 24 80 00 00 	mov    0x80(%rsp),%rax
  40e3c4:	00 
  40e3c5:	48 2b 84 24 98 00 00 	sub    0x98(%rsp),%rax
  40e3cc:	00 
  40e3cd:	48 05 00 01 00 00    	add    $0x100,%rax
  40e3d3:	48 89 8c 24 c8 01 00 	mov    %rcx,0x1c8(%rsp)
  40e3da:	00 
  40e3db:	48 89 84 24 c0 01 00 	mov    %rax,0x1c0(%rsp)
  40e3e2:	00 
  40e3e3:	c6 84 24 bf 01 00 00 	movb   $0x1,0x1bf(%rsp)
  40e3ea:	01 
  40e3eb:	48 8b 84 24 c8 01 00 	mov    0x1c8(%rsp),%rax
  40e3f2:	00 
  40e3f3:	48 c1 e8 08          	shr    $0x8,%rax
  40e3f7:	48 89 84 24 b0 01 00 	mov    %rax,0x1b0(%rsp)
  40e3fe:	00 
  40e3ff:	48 8b 04 25 08 82 61 	mov    0x618208,%rax
  40e406:	00 
  40e407:	48 8b 8c 24 b0 01 00 	mov    0x1b0(%rsp),%rcx
  40e40e:	00 
  40e40f:	80 3c 08 00          	cmpb   $0x0,(%rax,%rcx,1)
  40e413:	0f 85 49 00 00 00    	jne    40e462 <__cocheck__poison_environment+0x902>
  40e419:	48 8b 04 25 08 82 61 	mov    0x618208,%rax
  40e420:	00 
  40e421:	48 8b 8c 24 b0 01 00 	mov    0x1b0(%rsp),%rcx
  40e428:	00 
  40e429:	c6 04 08 01          	movb   $0x1,(%rax,%rcx,1)
  40e42d:	48 8b 84 24 b0 01 00 	mov    0x1b0(%rsp),%rax
  40e434:	00 
  40e435:	48 c1 e0 08          	shl    $0x8,%rax
  40e439:	48 c1 e8 03          	shr    $0x3,%rax
  40e43d:	48 05 00 80 ff 7f    	add    $0x7fff8000,%rax
  40e443:	48 89 84 24 a8 01 00 	mov    %rax,0x1a8(%rsp)
  40e44a:	00 
  40e44b:	48 8b bc 24 a8 01 00 	mov    0x1a8(%rsp),%rdi
  40e452:	00 
  40e453:	be ff 00 00 00       	mov    $0xff,%esi
  40e458:	ba 20 00 00 00       	mov    $0x20,%edx
  40e45d:	e8 6e 2c ff ff       	callq  4010d0 <memset@plt>
  40e462:	80 bc 24 bf 01 00 00 	cmpb   $0x0,0x1bf(%rsp)
  40e469:	00 
  40e46a:	0f 85 f7 04 00 00    	jne    40e967 <__cocheck__poison_environment+0xe07>
  40e470:	48 8b 8c 24 c8 01 00 	mov    0x1c8(%rsp),%rcx
  40e477:	00 
  40e478:	48 8b 84 24 c0 01 00 	mov    0x1c0(%rsp),%rax
  40e47f:	00 
  40e480:	48 89 8c 24 10 02 00 	mov    %rcx,0x210(%rsp)
  40e487:	00 
  40e488:	48 89 84 24 08 02 00 	mov    %rax,0x208(%rsp)
  40e48f:	00 
  40e490:	48 8b 84 24 10 02 00 	mov    0x210(%rsp),%rax
  40e497:	00 
  40e498:	48 c1 e8 03          	shr    $0x3,%rax
  40e49c:	48 05 00 80 ff 7f    	add    $0x7fff8000,%rax
  40e4a2:	48 89 84 24 00 02 00 	mov    %rax,0x200(%rsp)
  40e4a9:	00 
  40e4aa:	48 8b 84 24 10 02 00 	mov    0x210(%rsp),%rax
  40e4b1:	00 
  40e4b2:	48 03 84 24 08 02 00 	add    0x208(%rsp),%rax
  40e4b9:	00 
  40e4ba:	48 83 e8 01          	sub    $0x1,%rax
  40e4be:	48 c1 e8 03          	shr    $0x3,%rax
  40e4c2:	48 05 00 80 ff 7f    	add    $0x7fff8000,%rax
  40e4c8:	48 83 c0 01          	add    $0x1,%rax
  40e4cc:	48 89 84 24 f8 01 00 	mov    %rax,0x1f8(%rsp)
  40e4d3:	00 
  40e4d4:	48 81 bc 24 08 02 00 	cmpq   $0x80,0x208(%rsp)
  40e4db:	00 80 00 00 00 
  40e4e0:	0f 87 31 03 00 00    	ja     40e817 <__cocheck__poison_environment+0xcb7>
  40e4e6:	48 8b 84 24 08 02 00 	mov    0x208(%rsp),%rax
  40e4ed:	00 
  40e4ee:	48 83 c0 07          	add    $0x7,%rax
  40e4f2:	48 c1 e8 03          	shr    $0x3,%rax
  40e4f6:	48 89 84 24 f0 01 00 	mov    %rax,0x1f0(%rsp)
  40e4fd:	00 
  40e4fe:	48 8b 84 24 f0 01 00 	mov    0x1f0(%rsp),%rax
  40e505:	00 
  40e506:	48 83 c0 ff          	add    $0xffffffffffffffff,%rax
  40e50a:	48 89 44 24 20       	mov    %rax,0x20(%rsp)
  40e50f:	48 83 e8 0f          	sub    $0xf,%rax
  40e513:	0f 87 e9 02 00 00    	ja     40e802 <__cocheck__poison_environment+0xca2>
  40e519:	48 8b 44 24 20       	mov    0x20(%rsp),%rax
  40e51e:	48 8b 04 c5 e8 54 41 	mov    0x4154e8(,%rax,8),%rax
  40e525:	00 
  40e526:	ff e0                	jmpq   *%rax
  40e528:	48 8b 84 24 f8 01 00 	mov    0x1f8(%rsp),%rax
  40e52f:	00 
  40e530:	48 83 e8 01          	sub    $0x1,%rax
  40e534:	c6 00 01             	movb   $0x1,(%rax)
  40e537:	e9 cb 02 00 00       	jmpq   40e807 <__cocheck__poison_environment+0xca7>
  40e53c:	48 8b 84 24 f8 01 00 	mov    0x1f8(%rsp),%rax
  40e543:	00 
  40e544:	48 83 e8 02          	sub    $0x2,%rax
  40e548:	66 c7 00 02 01       	movw   $0x102,(%rax)
  40e54d:	e9 b5 02 00 00       	jmpq   40e807 <__cocheck__poison_environment+0xca7>
  40e552:	48 8b 84 24 f8 01 00 	mov    0x1f8(%rsp),%rax
  40e559:	00 
  40e55a:	48 83 e8 01          	sub    $0x1,%rax
  40e55e:	c6 00 01             	movb   $0x1,(%rax)
  40e561:	48 8b 84 24 f8 01 00 	mov    0x1f8(%rsp),%rax
  40e568:	00 
  40e569:	48 83 e8 03          	sub    $0x3,%rax
  40e56d:	66 c7 00 02 02       	movw   $0x202,(%rax)
  40e572:	e9 90 02 00 00       	jmpq   40e807 <__cocheck__poison_environment+0xca7>
  40e577:	48 8b 84 24 f8 01 00 	mov    0x1f8(%rsp),%rax
  40e57e:	00 
  40e57f:	48 83 e8 04          	sub    $0x4,%rax
  40e583:	c7 00 03 02 02 01    	movl   $0x1020203,(%rax)
  40e589:	e9 79 02 00 00       	jmpq   40e807 <__cocheck__poison_environment+0xca7>
  40e58e:	48 8b 84 24 f8 01 00 	mov    0x1f8(%rsp),%rax
  40e595:	00 
  40e596:	48 83 e8 01          	sub    $0x1,%rax
  40e59a:	c6 00 01             	movb   $0x1,(%rax)
  40e59d:	48 8b 84 24 f8 01 00 	mov    0x1f8(%rsp),%rax
  40e5a4:	00 
  40e5a5:	48 83 e8 05          	sub    $0x5,%rax
  40e5a9:	c7 00 03 03 02 02    	movl   $0x2020303,(%rax)
  40e5af:	e9 53 02 00 00       	jmpq   40e807 <__cocheck__poison_environment+0xca7>
  40e5b4:	48 8b 84 24 f8 01 00 	mov    0x1f8(%rsp),%rax
  40e5bb:	00 
  40e5bc:	48 83 e8 02          	sub    $0x2,%rax
  40e5c0:	66 c7 00 02 01       	movw   $0x102,(%rax)
  40e5c5:	48 8b 84 24 f8 01 00 	mov    0x1f8(%rsp),%rax
  40e5cc:	00 
  40e5cd:	48 83 e8 06          	sub    $0x6,%rax
  40e5d1:	c7 00 03 03 03 02    	movl   $0x2030303,(%rax)
  40e5d7:	e9 2b 02 00 00       	jmpq   40e807 <__cocheck__poison_environment+0xca7>
  40e5dc:	48 8b 84 24 f8 01 00 	mov    0x1f8(%rsp),%rax
  40e5e3:	00 
  40e5e4:	48 83 e8 01          	sub    $0x1,%rax
  40e5e8:	c6 00 01             	movb   $0x1,(%rax)
  40e5eb:	48 8b 84 24 f8 01 00 	mov    0x1f8(%rsp),%rax
  40e5f2:	00 
  40e5f3:	48 83 e8 03          	sub    $0x3,%rax
  40e5f7:	66 c7 00 02 02       	movw   $0x202,(%rax)
  40e5fc:	48 8b 84 24 f8 01 00 	mov    0x1f8(%rsp),%rax
  40e603:	00 
  40e604:	48 83 e8 07          	sub    $0x7,%rax
  40e608:	c7 00 03 03 03 03    	movl   $0x3030303,(%rax)
  40e60e:	e9 f4 01 00 00       	jmpq   40e807 <__cocheck__poison_environment+0xca7>
  40e613:	48 8b 84 24 f8 01 00 	mov    0x1f8(%rsp),%rax
  40e61a:	00 
  40e61b:	48 83 e8 08          	sub    $0x8,%rax
  40e61f:	48 b9 04 03 03 03 03 	movabs $0x102020303030304,%rcx
  40e626:	02 02 01 
  40e629:	48 89 08             	mov    %rcx,(%rax)
  40e62c:	e9 d6 01 00 00       	jmpq   40e807 <__cocheck__poison_environment+0xca7>
  40e631:	48 8b 84 24 f8 01 00 	mov    0x1f8(%rsp),%rax
  40e638:	00 
  40e639:	48 83 e8 01          	sub    $0x1,%rax
  40e63d:	c6 00 01             	movb   $0x1,(%rax)
  40e640:	48 8b 84 24 f8 01 00 	mov    0x1f8(%rsp),%rax
  40e647:	00 
  40e648:	48 83 e8 09          	sub    $0x9,%rax
  40e64c:	48 b9 04 04 03 03 03 	movabs $0x202030303030404,%rcx
  40e653:	03 02 02 
  40e656:	48 89 08             	mov    %rcx,(%rax)
  40e659:	e9 a9 01 00 00       	jmpq   40e807 <__cocheck__poison_environment+0xca7>
  40e65e:	48 8b 84 24 f8 01 00 	mov    0x1f8(%rsp),%rax
  40e665:	00 
  40e666:	48 83 e8 02          	sub    $0x2,%rax
  40e66a:	66 c7 00 02 01       	movw   $0x102,(%rax)
  40e66f:	48 8b 84 24 f8 01 00 	mov    0x1f8(%rsp),%rax
  40e676:	00 
  40e677:	48 83 e8 0a          	sub    $0xa,%rax
  40e67b:	48 b9 04 04 04 03 03 	movabs $0x203030303040404,%rcx
  40e682:	03 03 02 
  40e685:	48 89 08             	mov    %rcx,(%rax)
  40e688:	e9 7a 01 00 00       	jmpq   40e807 <__cocheck__poison_environment+0xca7>
  40e68d:	48 8b 84 24 f8 01 00 	mov    0x1f8(%rsp),%rax
  40e694:	00 
  40e695:	48 83 e8 01          	sub    $0x1,%rax
  40e699:	c6 00 01             	movb   $0x1,(%rax)
  40e69c:	48 8b 84 24 f8 01 00 	mov    0x1f8(%rsp),%rax
  40e6a3:	00 
  40e6a4:	48 83 e8 03          	sub    $0x3,%rax
  40e6a8:	66 c7 00 02 02       	movw   $0x202,(%rax)
  40e6ad:	48 8b 84 24 f8 01 00 	mov    0x1f8(%rsp),%rax
  40e6b4:	00 
  40e6b5:	48 83 e8 0b          	sub    $0xb,%rax
  40e6b9:	48 b9 04 04 04 04 03 	movabs $0x303030304040404,%rcx
  40e6c0:	03 03 03 
  40e6c3:	48 89 08             	mov    %rcx,(%rax)
  40e6c6:	e9 3c 01 00 00       	jmpq   40e807 <__cocheck__poison_environment+0xca7>
  40e6cb:	48 8b 84 24 f8 01 00 	mov    0x1f8(%rsp),%rax
  40e6d2:	00 
  40e6d3:	48 83 e8 04          	sub    $0x4,%rax
  40e6d7:	c7 00 03 02 02 01    	movl   $0x1020203,(%rax)
  40e6dd:	48 8b 84 24 f8 01 00 	mov    0x1f8(%rsp),%rax
  40e6e4:	00 
  40e6e5:	48 83 e8 0c          	sub    $0xc,%rax
  40e6e9:	48 b9 04 04 04 04 04 	movabs $0x303030404040404,%rcx
  40e6f0:	03 03 03 
  40e6f3:	48 89 08             	mov    %rcx,(%rax)
  40e6f6:	e9 0c 01 00 00       	jmpq   40e807 <__cocheck__poison_environment+0xca7>
  40e6fb:	48 8b 84 24 f8 01 00 	mov    0x1f8(%rsp),%rax
  40e702:	00 
  40e703:	48 83 e8 01          	sub    $0x1,%rax
  40e707:	c6 00 01             	movb   $0x1,(%rax)
  40e70a:	48 8b 84 24 f8 01 00 	mov    0x1f8(%rsp),%rax
  40e711:	00 
  40e712:	48 83 e8 05          	sub    $0x5,%rax
  40e716:	c7 00 03 03 02 02    	movl   $0x2020303,(%rax)
  40e71c:	48 8b 84 24 f8 01 00 	mov    0x1f8(%rsp),%rax
  40e723:	00 
  40e724:	48 83 e8 0d          	sub    $0xd,%rax
  40e728:	48 b9 04 04 04 04 04 	movabs $0x303040404040404,%rcx
  40e72f:	04 03 03 
  40e732:	48 89 08             	mov    %rcx,(%rax)
  40e735:	e9 cd 00 00 00       	jmpq   40e807 <__cocheck__poison_environment+0xca7>
  40e73a:	48 8b 84 24 f8 01 00 	mov    0x1f8(%rsp),%rax
  40e741:	00 
  40e742:	48 83 e8 02          	sub    $0x2,%rax
  40e746:	66 c7 00 02 01       	movw   $0x102,(%rax)
  40e74b:	48 8b 84 24 f8 01 00 	mov    0x1f8(%rsp),%rax
  40e752:	00 
  40e753:	48 83 e8 06          	sub    $0x6,%rax
  40e757:	c7 00 03 03 03 02    	movl   $0x2030303,(%rax)
  40e75d:	48 8b 84 24 f8 01 00 	mov    0x1f8(%rsp),%rax
  40e764:	00 
  40e765:	48 83 e8 0e          	sub    $0xe,%rax
  40e769:	48 b9 04 04 04 04 04 	movabs $0x304040404040404,%rcx
  40e770:	04 04 03 
  40e773:	48 89 08             	mov    %rcx,(%rax)
  40e776:	e9 8c 00 00 00       	jmpq   40e807 <__cocheck__poison_environment+0xca7>
  40e77b:	48 8b 84 24 f8 01 00 	mov    0x1f8(%rsp),%rax
  40e782:	00 
  40e783:	48 83 e8 01          	sub    $0x1,%rax
  40e787:	c6 00 01             	movb   $0x1,(%rax)
  40e78a:	48 8b 84 24 f8 01 00 	mov    0x1f8(%rsp),%rax
  40e791:	00 
  40e792:	48 83 e8 03          	sub    $0x3,%rax
  40e796:	66 c7 00 02 02       	movw   $0x202,(%rax)
  40e79b:	48 8b 84 24 f8 01 00 	mov    0x1f8(%rsp),%rax
  40e7a2:	00 
  40e7a3:	48 83 e8 07          	sub    $0x7,%rax
  40e7a7:	c7 00 03 03 03 03    	movl   $0x3030303,(%rax)
  40e7ad:	48 8b 84 24 f8 01 00 	mov    0x1f8(%rsp),%rax
  40e7b4:	00 
  40e7b5:	48 83 e8 0f          	sub    $0xf,%rax
  40e7b9:	48 b9 04 04 04 04 04 	movabs $0x404040404040404,%rcx
  40e7c0:	04 04 04 
  40e7c3:	48 89 08             	mov    %rcx,(%rax)
  40e7c6:	e9 3c 00 00 00       	jmpq   40e807 <__cocheck__poison_environment+0xca7>
  40e7cb:	48 8b 84 24 f8 01 00 	mov    0x1f8(%rsp),%rax
  40e7d2:	00 
  40e7d3:	48 83 e8 08          	sub    $0x8,%rax
  40e7d7:	48 b9 04 03 03 03 03 	movabs $0x102020303030304,%rcx
  40e7de:	02 02 01 
  40e7e1:	48 89 08             	mov    %rcx,(%rax)
  40e7e4:	48 8b 84 24 f8 01 00 	mov    0x1f8(%rsp),%rax
  40e7eb:	00 
  40e7ec:	48 83 e8 10          	sub    $0x10,%rax
  40e7f0:	48 b9 05 04 04 04 04 	movabs $0x404040404040405,%rcx
  40e7f7:	04 04 04 
  40e7fa:	48 89 08             	mov    %rcx,(%rax)
  40e7fd:	e9 05 00 00 00       	jmpq   40e807 <__cocheck__poison_environment+0xca7>
  40e802:	e9 00 00 00 00       	jmpq   40e807 <__cocheck__poison_environment+0xca7>
  40e807:	c7 84 24 ec 01 00 00 	movl   $0x1,0x1ec(%rsp)
  40e80e:	01 00 00 00 
  40e812:	e9 4b 01 00 00       	jmpq   40e962 <__cocheck__poison_environment+0xe02>
  40e817:	48 8b 84 24 f8 01 00 	mov    0x1f8(%rsp),%rax
  40e81e:	00 
  40e81f:	48 83 e8 08          	sub    $0x8,%rax
  40e823:	48 b9 04 03 03 03 03 	movabs $0x102020303030304,%rcx
  40e82a:	02 02 01 
  40e82d:	48 89 08             	mov    %rcx,(%rax)
  40e830:	48 8b 84 24 f8 01 00 	mov    0x1f8(%rsp),%rax
  40e837:	00 
  40e838:	48 83 e8 10          	sub    $0x10,%rax
  40e83c:	48 b9 05 04 04 04 04 	movabs $0x404040404040405,%rcx
  40e843:	04 04 04 
  40e846:	48 89 08             	mov    %rcx,(%rax)
  40e849:	48 c7 84 24 e0 01 00 	movq   $0x4,0x1e0(%rsp)
  40e850:	00 04 00 00 00 
  40e855:	48 8b 84 24 f8 01 00 	mov    0x1f8(%rsp),%rax
  40e85c:	00 
  40e85d:	48 8b 8c 24 e0 01 00 	mov    0x1e0(%rsp),%rcx
  40e864:	00 
  40e865:	ba 01 00 00 00       	mov    $0x1,%edx
  40e86a:	d3 e2                	shl    %cl,%edx
  40e86c:	89 d1                	mov    %edx,%ecx
  40e86e:	48 63 c9             	movslq %ecx,%rcx
  40e871:	48 29 c8             	sub    %rcx,%rax
  40e874:	48 3b 84 24 00 02 00 	cmp    0x200(%rsp),%rax
  40e87b:	00 
  40e87c:	0f 83 1b 00 00 00    	jae    40e89d <__cocheck__poison_environment+0xd3d>
  40e882:	c7 84 24 ec 01 00 00 	movl   $0x3,0x1ec(%rsp)
  40e889:	03 00 00 00 
  40e88d:	c7 84 24 ec 01 00 00 	movl   $0x0,0x1ec(%rsp)
  40e894:	00 00 00 00 
  40e898:	e9 c5 00 00 00       	jmpq   40e962 <__cocheck__poison_environment+0xe02>
  40e89d:	48 8b 84 24 f8 01 00 	mov    0x1f8(%rsp),%rax
  40e8a4:	00 
  40e8a5:	48 8b 8c 24 e0 01 00 	mov    0x1e0(%rsp),%rcx
  40e8ac:	00 
  40e8ad:	48 83 c1 01          	add    $0x1,%rcx
  40e8b1:	ba 01 00 00 00       	mov    $0x1,%edx
  40e8b6:	d3 e2                	shl    %cl,%edx
  40e8b8:	89 d1                	mov    %edx,%ecx
  40e8ba:	48 63 c9             	movslq %ecx,%rcx
  40e8bd:	48 29 c8             	sub    %rcx,%rax
  40e8c0:	48 83 c0 01          	add    $0x1,%rax
  40e8c4:	48 89 84 24 d8 01 00 	mov    %rax,0x1d8(%rsp)
  40e8cb:	00 
  40e8cc:	48 8b 84 24 f8 01 00 	mov    0x1f8(%rsp),%rax
  40e8d3:	00 
  40e8d4:	48 8b 8c 24 e0 01 00 	mov    0x1e0(%rsp),%rcx
  40e8db:	00 
  40e8dc:	ba 01 00 00 00       	mov    $0x1,%edx
  40e8e1:	d3 e2                	shl    %cl,%edx
  40e8e3:	89 d1                	mov    %edx,%ecx
  40e8e5:	48 63 c9             	movslq %ecx,%rcx
  40e8e8:	48 29 c8             	sub    %rcx,%rax
  40e8eb:	48 89 84 24 d0 01 00 	mov    %rax,0x1d0(%rsp)
  40e8f2:	00 
  40e8f3:	48 8b 84 24 d8 01 00 	mov    0x1d8(%rsp),%rax
  40e8fa:	00 
  40e8fb:	48 3b 84 24 00 02 00 	cmp    0x200(%rsp),%rax
  40e902:	00 
  40e903:	0f 83 10 00 00 00    	jae    40e919 <__cocheck__poison_environment+0xdb9>
  40e909:	48 8b 84 24 00 02 00 	mov    0x200(%rsp),%rax
  40e910:	00 
  40e911:	48 89 84 24 d8 01 00 	mov    %rax,0x1d8(%rsp)
  40e918:	00 
  40e919:	48 8b bc 24 d8 01 00 	mov    0x1d8(%rsp),%rdi
  40e920:	00 
  40e921:	48 8b 84 24 e0 01 00 	mov    0x1e0(%rsp),%rax
  40e928:	00 
  40e929:	48 83 c0 01          	add    $0x1,%rax
  40e92d:	48 8b 94 24 d0 01 00 	mov    0x1d0(%rsp),%rdx
  40e934:	00 
  40e935:	48 2b 94 24 d8 01 00 	sub    0x1d8(%rsp),%rdx
  40e93c:	00 
  40e93d:	48 83 c2 01          	add    $0x1,%rdx
  40e941:	0f b6 f0             	movzbl %al,%esi
  40e944:	e8 87 27 ff ff       	callq  4010d0 <memset@plt>
  40e949:	48 8b 84 24 e0 01 00 	mov    0x1e0(%rsp),%rax
  40e950:	00 
  40e951:	48 83 c0 01          	add    $0x1,%rax
  40e955:	48 89 84 24 e0 01 00 	mov    %rax,0x1e0(%rsp)
  40e95c:	00 
  40e95d:	e9 f3 fe ff ff       	jmpq   40e855 <__cocheck__poison_environment+0xcf5>
  40e962:	e9 35 00 00 00       	jmpq   40e99c <__cocheck__poison_environment+0xe3c>
  40e967:	48 8b 84 24 c8 01 00 	mov    0x1c8(%rsp),%rax
  40e96e:	00 
  40e96f:	48 c1 e8 03          	shr    $0x3,%rax
  40e973:	48 05 00 80 ff 7f    	add    $0x7fff8000,%rax
  40e979:	48 89 84 24 a0 01 00 	mov    %rax,0x1a0(%rsp)
  40e980:	00 
  40e981:	48 8b bc 24 a0 01 00 	mov    0x1a0(%rsp),%rdi
  40e988:	00 
  40e989:	48 8b 94 24 c0 01 00 	mov    0x1c0(%rsp),%rdx
  40e990:	00 
  40e991:	48 c1 ea 03          	shr    $0x3,%rdx
  40e995:	31 f6                	xor    %esi,%esi
  40e997:	e8 34 27 ff ff       	callq  4010d0 <memset@plt>
  40e99c:	48 8b 84 24 90 00 00 	mov    0x90(%rsp),%rax
  40e9a3:	00 
  40e9a4:	48 3b 44 24 70       	cmp    0x70(%rsp),%rax
  40e9a9:	0f 84 2a 06 00 00    	je     40efd9 <__cocheck__poison_environment+0x1479>
  40e9af:	48 8b 4c 24 70       	mov    0x70(%rsp),%rcx
  40e9b4:	48 8b 84 24 90 00 00 	mov    0x90(%rsp),%rax
  40e9bb:	00 
  40e9bc:	48 2b 44 24 70       	sub    0x70(%rsp),%rax
  40e9c1:	48 89 8c 24 50 01 00 	mov    %rcx,0x150(%rsp)
  40e9c8:	00 
  40e9c9:	48 89 84 24 48 01 00 	mov    %rax,0x148(%rsp)
  40e9d0:	00 
  40e9d1:	c6 84 24 47 01 00 00 	movb   $0x0,0x147(%rsp)
  40e9d8:	00 
  40e9d9:	48 8b 84 24 50 01 00 	mov    0x150(%rsp),%rax
  40e9e0:	00 
  40e9e1:	48 c1 e8 08          	shr    $0x8,%rax
  40e9e5:	48 89 84 24 38 01 00 	mov    %rax,0x138(%rsp)
  40e9ec:	00 
  40e9ed:	48 8b 04 25 08 82 61 	mov    0x618208,%rax
  40e9f4:	00 
  40e9f5:	48 8b 8c 24 38 01 00 	mov    0x138(%rsp),%rcx
  40e9fc:	00 
  40e9fd:	80 3c 08 00          	cmpb   $0x0,(%rax,%rcx,1)
  40ea01:	0f 85 49 00 00 00    	jne    40ea50 <__cocheck__poison_environment+0xef0>
  40ea07:	48 8b 04 25 08 82 61 	mov    0x618208,%rax
  40ea0e:	00 
  40ea0f:	48 8b 8c 24 38 01 00 	mov    0x138(%rsp),%rcx
  40ea16:	00 
  40ea17:	c6 04 08 01          	movb   $0x1,(%rax,%rcx,1)
  40ea1b:	48 8b 84 24 38 01 00 	mov    0x138(%rsp),%rax
  40ea22:	00 
  40ea23:	48 c1 e0 08          	shl    $0x8,%rax
  40ea27:	48 c1 e8 03          	shr    $0x3,%rax
  40ea2b:	48 05 00 80 ff 7f    	add    $0x7fff8000,%rax
  40ea31:	48 89 84 24 30 01 00 	mov    %rax,0x130(%rsp)
  40ea38:	00 
  40ea39:	48 8b bc 24 30 01 00 	mov    0x130(%rsp),%rdi
  40ea40:	00 
  40ea41:	be ff 00 00 00       	mov    $0xff,%esi
  40ea46:	ba 20 00 00 00       	mov    $0x20,%edx
  40ea4b:	e8 80 26 ff ff       	callq  4010d0 <memset@plt>
  40ea50:	80 bc 24 47 01 00 00 	cmpb   $0x0,0x147(%rsp)
  40ea57:	00 
  40ea58:	0f 85 f7 04 00 00    	jne    40ef55 <__cocheck__poison_environment+0x13f5>
  40ea5e:	48 8b 8c 24 50 01 00 	mov    0x150(%rsp),%rcx
  40ea65:	00 
  40ea66:	48 8b 84 24 48 01 00 	mov    0x148(%rsp),%rax
  40ea6d:	00 
  40ea6e:	48 89 8c 24 98 01 00 	mov    %rcx,0x198(%rsp)
  40ea75:	00 
  40ea76:	48 89 84 24 90 01 00 	mov    %rax,0x190(%rsp)
  40ea7d:	00 
  40ea7e:	48 8b 84 24 98 01 00 	mov    0x198(%rsp),%rax
  40ea85:	00 
  40ea86:	48 c1 e8 03          	shr    $0x3,%rax
  40ea8a:	48 05 00 80 ff 7f    	add    $0x7fff8000,%rax
  40ea90:	48 89 84 24 88 01 00 	mov    %rax,0x188(%rsp)
  40ea97:	00 
  40ea98:	48 8b 84 24 98 01 00 	mov    0x198(%rsp),%rax
  40ea9f:	00 
  40eaa0:	48 03 84 24 90 01 00 	add    0x190(%rsp),%rax
  40eaa7:	00 
  40eaa8:	48 83 e8 01          	sub    $0x1,%rax
  40eaac:	48 c1 e8 03          	shr    $0x3,%rax
  40eab0:	48 05 00 80 ff 7f    	add    $0x7fff8000,%rax
  40eab6:	48 83 c0 01          	add    $0x1,%rax
  40eaba:	48 89 84 24 80 01 00 	mov    %rax,0x180(%rsp)
  40eac1:	00 
  40eac2:	48 81 bc 24 90 01 00 	cmpq   $0x80,0x190(%rsp)
  40eac9:	00 80 00 00 00 
  40eace:	0f 87 31 03 00 00    	ja     40ee05 <__cocheck__poison_environment+0x12a5>
  40ead4:	48 8b 84 24 90 01 00 	mov    0x190(%rsp),%rax
  40eadb:	00 
  40eadc:	48 83 c0 07          	add    $0x7,%rax
  40eae0:	48 c1 e8 03          	shr    $0x3,%rax
  40eae4:	48 89 84 24 78 01 00 	mov    %rax,0x178(%rsp)
  40eaeb:	00 
  40eaec:	48 8b 84 24 78 01 00 	mov    0x178(%rsp),%rax
  40eaf3:	00 
  40eaf4:	48 83 c0 ff          	add    $0xffffffffffffffff,%rax
  40eaf8:	48 89 44 24 18       	mov    %rax,0x18(%rsp)
  40eafd:	48 83 e8 0f          	sub    $0xf,%rax
  40eb01:	0f 87 e9 02 00 00    	ja     40edf0 <__cocheck__poison_environment+0x1290>
  40eb07:	48 8b 44 24 18       	mov    0x18(%rsp),%rax
  40eb0c:	48 8b 04 c5 68 55 41 	mov    0x415568(,%rax,8),%rax
  40eb13:	00 
  40eb14:	ff e0                	jmpq   *%rax
  40eb16:	48 8b 84 24 80 01 00 	mov    0x180(%rsp),%rax
  40eb1d:	00 
  40eb1e:	48 83 e8 01          	sub    $0x1,%rax
  40eb22:	c6 00 01             	movb   $0x1,(%rax)
  40eb25:	e9 cb 02 00 00       	jmpq   40edf5 <__cocheck__poison_environment+0x1295>
  40eb2a:	48 8b 84 24 80 01 00 	mov    0x180(%rsp),%rax
  40eb31:	00 
  40eb32:	48 83 e8 02          	sub    $0x2,%rax
  40eb36:	66 c7 00 02 01       	movw   $0x102,(%rax)
  40eb3b:	e9 b5 02 00 00       	jmpq   40edf5 <__cocheck__poison_environment+0x1295>
  40eb40:	48 8b 84 24 80 01 00 	mov    0x180(%rsp),%rax
  40eb47:	00 
  40eb48:	48 83 e8 01          	sub    $0x1,%rax
  40eb4c:	c6 00 01             	movb   $0x1,(%rax)
  40eb4f:	48 8b 84 24 80 01 00 	mov    0x180(%rsp),%rax
  40eb56:	00 
  40eb57:	48 83 e8 03          	sub    $0x3,%rax
  40eb5b:	66 c7 00 02 02       	movw   $0x202,(%rax)
  40eb60:	e9 90 02 00 00       	jmpq   40edf5 <__cocheck__poison_environment+0x1295>
  40eb65:	48 8b 84 24 80 01 00 	mov    0x180(%rsp),%rax
  40eb6c:	00 
  40eb6d:	48 83 e8 04          	sub    $0x4,%rax
  40eb71:	c7 00 03 02 02 01    	movl   $0x1020203,(%rax)
  40eb77:	e9 79 02 00 00       	jmpq   40edf5 <__cocheck__poison_environment+0x1295>
  40eb7c:	48 8b 84 24 80 01 00 	mov    0x180(%rsp),%rax
  40eb83:	00 
  40eb84:	48 83 e8 01          	sub    $0x1,%rax
  40eb88:	c6 00 01             	movb   $0x1,(%rax)
  40eb8b:	48 8b 84 24 80 01 00 	mov    0x180(%rsp),%rax
  40eb92:	00 
  40eb93:	48 83 e8 05          	sub    $0x5,%rax
  40eb97:	c7 00 03 03 02 02    	movl   $0x2020303,(%rax)
  40eb9d:	e9 53 02 00 00       	jmpq   40edf5 <__cocheck__poison_environment+0x1295>
  40eba2:	48 8b 84 24 80 01 00 	mov    0x180(%rsp),%rax
  40eba9:	00 
  40ebaa:	48 83 e8 02          	sub    $0x2,%rax
  40ebae:	66 c7 00 02 01       	movw   $0x102,(%rax)
  40ebb3:	48 8b 84 24 80 01 00 	mov    0x180(%rsp),%rax
  40ebba:	00 
  40ebbb:	48 83 e8 06          	sub    $0x6,%rax
  40ebbf:	c7 00 03 03 03 02    	movl   $0x2030303,(%rax)
  40ebc5:	e9 2b 02 00 00       	jmpq   40edf5 <__cocheck__poison_environment+0x1295>
  40ebca:	48 8b 84 24 80 01 00 	mov    0x180(%rsp),%rax
  40ebd1:	00 
  40ebd2:	48 83 e8 01          	sub    $0x1,%rax
  40ebd6:	c6 00 01             	movb   $0x1,(%rax)
  40ebd9:	48 8b 84 24 80 01 00 	mov    0x180(%rsp),%rax
  40ebe0:	00 
  40ebe1:	48 83 e8 03          	sub    $0x3,%rax
  40ebe5:	66 c7 00 02 02       	movw   $0x202,(%rax)
  40ebea:	48 8b 84 24 80 01 00 	mov    0x180(%rsp),%rax
  40ebf1:	00 
  40ebf2:	48 83 e8 07          	sub    $0x7,%rax
  40ebf6:	c7 00 03 03 03 03    	movl   $0x3030303,(%rax)
  40ebfc:	e9 f4 01 00 00       	jmpq   40edf5 <__cocheck__poison_environment+0x1295>
  40ec01:	48 8b 84 24 80 01 00 	mov    0x180(%rsp),%rax
  40ec08:	00 
  40ec09:	48 83 e8 08          	sub    $0x8,%rax
  40ec0d:	48 b9 04 03 03 03 03 	movabs $0x102020303030304,%rcx
  40ec14:	02 02 01 
  40ec17:	48 89 08             	mov    %rcx,(%rax)
  40ec1a:	e9 d6 01 00 00       	jmpq   40edf5 <__cocheck__poison_environment+0x1295>
  40ec1f:	48 8b 84 24 80 01 00 	mov    0x180(%rsp),%rax
  40ec26:	00 
  40ec27:	48 83 e8 01          	sub    $0x1,%rax
  40ec2b:	c6 00 01             	movb   $0x1,(%rax)
  40ec2e:	48 8b 84 24 80 01 00 	mov    0x180(%rsp),%rax
  40ec35:	00 
  40ec36:	48 83 e8 09          	sub    $0x9,%rax
  40ec3a:	48 b9 04 04 03 03 03 	movabs $0x202030303030404,%rcx
  40ec41:	03 02 02 
  40ec44:	48 89 08             	mov    %rcx,(%rax)
  40ec47:	e9 a9 01 00 00       	jmpq   40edf5 <__cocheck__poison_environment+0x1295>
  40ec4c:	48 8b 84 24 80 01 00 	mov    0x180(%rsp),%rax
  40ec53:	00 
  40ec54:	48 83 e8 02          	sub    $0x2,%rax
  40ec58:	66 c7 00 02 01       	movw   $0x102,(%rax)
  40ec5d:	48 8b 84 24 80 01 00 	mov    0x180(%rsp),%rax
  40ec64:	00 
  40ec65:	48 83 e8 0a          	sub    $0xa,%rax
  40ec69:	48 b9 04 04 04 03 03 	movabs $0x203030303040404,%rcx
  40ec70:	03 03 02 
  40ec73:	48 89 08             	mov    %rcx,(%rax)
  40ec76:	e9 7a 01 00 00       	jmpq   40edf5 <__cocheck__poison_environment+0x1295>
  40ec7b:	48 8b 84 24 80 01 00 	mov    0x180(%rsp),%rax
  40ec82:	00 
  40ec83:	48 83 e8 01          	sub    $0x1,%rax
  40ec87:	c6 00 01             	movb   $0x1,(%rax)
  40ec8a:	48 8b 84 24 80 01 00 	mov    0x180(%rsp),%rax
  40ec91:	00 
  40ec92:	48 83 e8 03          	sub    $0x3,%rax
  40ec96:	66 c7 00 02 02       	movw   $0x202,(%rax)
  40ec9b:	48 8b 84 24 80 01 00 	mov    0x180(%rsp),%rax
  40eca2:	00 
  40eca3:	48 83 e8 0b          	sub    $0xb,%rax
  40eca7:	48 b9 04 04 04 04 03 	movabs $0x303030304040404,%rcx
  40ecae:	03 03 03 
  40ecb1:	48 89 08             	mov    %rcx,(%rax)
  40ecb4:	e9 3c 01 00 00       	jmpq   40edf5 <__cocheck__poison_environment+0x1295>
  40ecb9:	48 8b 84 24 80 01 00 	mov    0x180(%rsp),%rax
  40ecc0:	00 
  40ecc1:	48 83 e8 04          	sub    $0x4,%rax
  40ecc5:	c7 00 03 02 02 01    	movl   $0x1020203,(%rax)
  40eccb:	48 8b 84 24 80 01 00 	mov    0x180(%rsp),%rax
  40ecd2:	00 
  40ecd3:	48 83 e8 0c          	sub    $0xc,%rax
  40ecd7:	48 b9 04 04 04 04 04 	movabs $0x303030404040404,%rcx
  40ecde:	03 03 03 
  40ece1:	48 89 08             	mov    %rcx,(%rax)
  40ece4:	e9 0c 01 00 00       	jmpq   40edf5 <__cocheck__poison_environment+0x1295>
  40ece9:	48 8b 84 24 80 01 00 	mov    0x180(%rsp),%rax
  40ecf0:	00 
  40ecf1:	48 83 e8 01          	sub    $0x1,%rax
  40ecf5:	c6 00 01             	movb   $0x1,(%rax)
  40ecf8:	48 8b 84 24 80 01 00 	mov    0x180(%rsp),%rax
  40ecff:	00 
  40ed00:	48 83 e8 05          	sub    $0x5,%rax
  40ed04:	c7 00 03 03 02 02    	movl   $0x2020303,(%rax)
  40ed0a:	48 8b 84 24 80 01 00 	mov    0x180(%rsp),%rax
  40ed11:	00 
  40ed12:	48 83 e8 0d          	sub    $0xd,%rax
  40ed16:	48 b9 04 04 04 04 04 	movabs $0x303040404040404,%rcx
  40ed1d:	04 03 03 
  40ed20:	48 89 08             	mov    %rcx,(%rax)
  40ed23:	e9 cd 00 00 00       	jmpq   40edf5 <__cocheck__poison_environment+0x1295>
  40ed28:	48 8b 84 24 80 01 00 	mov    0x180(%rsp),%rax
  40ed2f:	00 
  40ed30:	48 83 e8 02          	sub    $0x2,%rax
  40ed34:	66 c7 00 02 01       	movw   $0x102,(%rax)
  40ed39:	48 8b 84 24 80 01 00 	mov    0x180(%rsp),%rax
  40ed40:	00 
  40ed41:	48 83 e8 06          	sub    $0x6,%rax
  40ed45:	c7 00 03 03 03 02    	movl   $0x2030303,(%rax)
  40ed4b:	48 8b 84 24 80 01 00 	mov    0x180(%rsp),%rax
  40ed52:	00 
  40ed53:	48 83 e8 0e          	sub    $0xe,%rax
  40ed57:	48 b9 04 04 04 04 04 	movabs $0x304040404040404,%rcx
  40ed5e:	04 04 03 
  40ed61:	48 89 08             	mov    %rcx,(%rax)
  40ed64:	e9 8c 00 00 00       	jmpq   40edf5 <__cocheck__poison_environment+0x1295>
  40ed69:	48 8b 84 24 80 01 00 	mov    0x180(%rsp),%rax
  40ed70:	00 
  40ed71:	48 83 e8 01          	sub    $0x1,%rax
  40ed75:	c6 00 01             	movb   $0x1,(%rax)
  40ed78:	48 8b 84 24 80 01 00 	mov    0x180(%rsp),%rax
  40ed7f:	00 
  40ed80:	48 83 e8 03          	sub    $0x3,%rax
  40ed84:	66 c7 00 02 02       	movw   $0x202,(%rax)
  40ed89:	48 8b 84 24 80 01 00 	mov    0x180(%rsp),%rax
  40ed90:	00 
  40ed91:	48 83 e8 07          	sub    $0x7,%rax
  40ed95:	c7 00 03 03 03 03    	movl   $0x3030303,(%rax)
  40ed9b:	48 8b 84 24 80 01 00 	mov    0x180(%rsp),%rax
  40eda2:	00 
  40eda3:	48 83 e8 0f          	sub    $0xf,%rax
  40eda7:	48 b9 04 04 04 04 04 	movabs $0x404040404040404,%rcx
  40edae:	04 04 04 
  40edb1:	48 89 08             	mov    %rcx,(%rax)
  40edb4:	e9 3c 00 00 00       	jmpq   40edf5 <__cocheck__poison_environment+0x1295>
  40edb9:	48 8b 84 24 80 01 00 	mov    0x180(%rsp),%rax
  40edc0:	00 
  40edc1:	48 83 e8 08          	sub    $0x8,%rax
  40edc5:	48 b9 04 03 03 03 03 	movabs $0x102020303030304,%rcx
  40edcc:	02 02 01 
  40edcf:	48 89 08             	mov    %rcx,(%rax)
  40edd2:	48 8b 84 24 80 01 00 	mov    0x180(%rsp),%rax
  40edd9:	00 
  40edda:	48 83 e8 10          	sub    $0x10,%rax
  40edde:	48 b9 05 04 04 04 04 	movabs $0x404040404040405,%rcx
  40ede5:	04 04 04 
  40ede8:	48 89 08             	mov    %rcx,(%rax)
  40edeb:	e9 05 00 00 00       	jmpq   40edf5 <__cocheck__poison_environment+0x1295>
  40edf0:	e9 00 00 00 00       	jmpq   40edf5 <__cocheck__poison_environment+0x1295>
  40edf5:	c7 84 24 74 01 00 00 	movl   $0x1,0x174(%rsp)
  40edfc:	01 00 00 00 
  40ee00:	e9 4b 01 00 00       	jmpq   40ef50 <__cocheck__poison_environment+0x13f0>
  40ee05:	48 8b 84 24 80 01 00 	mov    0x180(%rsp),%rax
  40ee0c:	00 
  40ee0d:	48 83 e8 08          	sub    $0x8,%rax
  40ee11:	48 b9 04 03 03 03 03 	movabs $0x102020303030304,%rcx
  40ee18:	02 02 01 
  40ee1b:	48 89 08             	mov    %rcx,(%rax)
  40ee1e:	48 8b 84 24 80 01 00 	mov    0x180(%rsp),%rax
  40ee25:	00 
  40ee26:	48 83 e8 10          	sub    $0x10,%rax
  40ee2a:	48 b9 05 04 04 04 04 	movabs $0x404040404040405,%rcx
  40ee31:	04 04 04 
  40ee34:	48 89 08             	mov    %rcx,(%rax)
  40ee37:	48 c7 84 24 68 01 00 	movq   $0x4,0x168(%rsp)
  40ee3e:	00 04 00 00 00 
  40ee43:	48 8b 84 24 80 01 00 	mov    0x180(%rsp),%rax
  40ee4a:	00 
  40ee4b:	48 8b 8c 24 68 01 00 	mov    0x168(%rsp),%rcx
  40ee52:	00 
  40ee53:	ba 01 00 00 00       	mov    $0x1,%edx
  40ee58:	d3 e2                	shl    %cl,%edx
  40ee5a:	89 d1                	mov    %edx,%ecx
  40ee5c:	48 63 c9             	movslq %ecx,%rcx
  40ee5f:	48 29 c8             	sub    %rcx,%rax
  40ee62:	48 3b 84 24 88 01 00 	cmp    0x188(%rsp),%rax
  40ee69:	00 
  40ee6a:	0f 83 1b 00 00 00    	jae    40ee8b <__cocheck__poison_environment+0x132b>
  40ee70:	c7 84 24 74 01 00 00 	movl   $0x3,0x174(%rsp)
  40ee77:	03 00 00 00 
  40ee7b:	c7 84 24 74 01 00 00 	movl   $0x0,0x174(%rsp)
  40ee82:	00 00 00 00 
  40ee86:	e9 c5 00 00 00       	jmpq   40ef50 <__cocheck__poison_environment+0x13f0>
  40ee8b:	48 8b 84 24 80 01 00 	mov    0x180(%rsp),%rax
  40ee92:	00 
  40ee93:	48 8b 8c 24 68 01 00 	mov    0x168(%rsp),%rcx
  40ee9a:	00 
  40ee9b:	48 83 c1 01          	add    $0x1,%rcx
  40ee9f:	ba 01 00 00 00       	mov    $0x1,%edx
  40eea4:	d3 e2                	shl    %cl,%edx
  40eea6:	89 d1                	mov    %edx,%ecx
  40eea8:	48 63 c9             	movslq %ecx,%rcx
  40eeab:	48 29 c8             	sub    %rcx,%rax
  40eeae:	48 83 c0 01          	add    $0x1,%rax
  40eeb2:	48 89 84 24 60 01 00 	mov    %rax,0x160(%rsp)
  40eeb9:	00 
  40eeba:	48 8b 84 24 80 01 00 	mov    0x180(%rsp),%rax
  40eec1:	00 
  40eec2:	48 8b 8c 24 68 01 00 	mov    0x168(%rsp),%rcx
  40eec9:	00 
  40eeca:	ba 01 00 00 00       	mov    $0x1,%edx
  40eecf:	d3 e2                	shl    %cl,%edx
  40eed1:	89 d1                	mov    %edx,%ecx
  40eed3:	48 63 c9             	movslq %ecx,%rcx
  40eed6:	48 29 c8             	sub    %rcx,%rax
  40eed9:	48 89 84 24 58 01 00 	mov    %rax,0x158(%rsp)
  40eee0:	00 
  40eee1:	48 8b 84 24 60 01 00 	mov    0x160(%rsp),%rax
  40eee8:	00 
  40eee9:	48 3b 84 24 88 01 00 	cmp    0x188(%rsp),%rax
  40eef0:	00 
  40eef1:	0f 83 10 00 00 00    	jae    40ef07 <__cocheck__poison_environment+0x13a7>
  40eef7:	48 8b 84 24 88 01 00 	mov    0x188(%rsp),%rax
  40eefe:	00 
  40eeff:	48 89 84 24 60 01 00 	mov    %rax,0x160(%rsp)
  40ef06:	00 
  40ef07:	48 8b bc 24 60 01 00 	mov    0x160(%rsp),%rdi
  40ef0e:	00 
  40ef0f:	48 8b 84 24 68 01 00 	mov    0x168(%rsp),%rax
  40ef16:	00 
  40ef17:	48 83 c0 01          	add    $0x1,%rax
  40ef1b:	48 8b 94 24 58 01 00 	mov    0x158(%rsp),%rdx
  40ef22:	00 
  40ef23:	48 2b 94 24 60 01 00 	sub    0x160(%rsp),%rdx
  40ef2a:	00 
  40ef2b:	48 83 c2 01          	add    $0x1,%rdx
  40ef2f:	0f b6 f0             	movzbl %al,%esi
  40ef32:	e8 99 21 ff ff       	callq  4010d0 <memset@plt>
  40ef37:	48 8b 84 24 68 01 00 	mov    0x168(%rsp),%rax
  40ef3e:	00 
  40ef3f:	48 83 c0 01          	add    $0x1,%rax
  40ef43:	48 89 84 24 68 01 00 	mov    %rax,0x168(%rsp)
  40ef4a:	00 
  40ef4b:	e9 f3 fe ff ff       	jmpq   40ee43 <__cocheck__poison_environment+0x12e3>
  40ef50:	e9 35 00 00 00       	jmpq   40ef8a <__cocheck__poison_environment+0x142a>
  40ef55:	48 8b 84 24 50 01 00 	mov    0x150(%rsp),%rax
  40ef5c:	00 
  40ef5d:	48 c1 e8 03          	shr    $0x3,%rax
  40ef61:	48 05 00 80 ff 7f    	add    $0x7fff8000,%rax
  40ef67:	48 89 84 24 28 01 00 	mov    %rax,0x128(%rsp)
  40ef6e:	00 
  40ef6f:	48 8b bc 24 28 01 00 	mov    0x128(%rsp),%rdi
  40ef76:	00 
  40ef77:	48 8b 94 24 48 01 00 	mov    0x148(%rsp),%rdx
  40ef7e:	00 
  40ef7f:	48 c1 ea 03          	shr    $0x3,%rdx
  40ef83:	31 f6                	xor    %esi,%esi
  40ef85:	e8 46 21 ff ff       	callq  4010d0 <memset@plt>
  40ef8a:	48 8b 84 24 a0 00 00 	mov    0xa0(%rsp),%rax
  40ef91:	00 
  40ef92:	48 83 e0 07          	and    $0x7,%rax
  40ef96:	48 83 f8 00          	cmp    $0x0,%rax
  40ef9a:	0f 84 34 00 00 00    	je     40efd4 <__cocheck__poison_environment+0x1474>
  40efa0:	48 8b 84 24 a0 00 00 	mov    0xa0(%rsp),%rax
  40efa7:	00 
  40efa8:	48 83 e0 07          	and    $0x7,%rax
  40efac:	ba 08 00 00 00       	mov    $0x8,%edx
  40efb1:	48 29 c2             	sub    %rax,%rdx
  40efb4:	48 c1 e2 05          	shl    $0x5,%rdx
  40efb8:	48 8b 84 24 90 00 00 	mov    0x90(%rsp),%rax
  40efbf:	00 
  40efc0:	48 c1 e8 03          	shr    $0x3,%rax
  40efc4:	0f b6 88 00 80 ff 7f 	movzbl 0x7fff8000(%rax),%ecx
  40efcb:	48 01 d1             	add    %rdx,%rcx
  40efce:	88 88 00 80 ff 7f    	mov    %cl,0x7fff8000(%rax)
  40efd4:	e9 00 00 00 00       	jmpq   40efd9 <__cocheck__poison_environment+0x1479>
  40efd9:	e9 00 00 00 00       	jmpq   40efde <__cocheck__poison_environment+0x147e>
  40efde:	48 8b 3c 25 60 83 61 	mov    0x618360,%rdi
  40efe5:	00 
  40efe6:	48 8b 54 24 48       	mov    0x48(%rsp),%rdx
  40efeb:	48 8b 4c 24 38       	mov    0x38(%rsp),%rcx
  40eff0:	48 be 5c 5b 41 00 00 	movabs $0x415b5c,%rsi
  40eff7:	00 00 00 
  40effa:	b0 00                	mov    $0x0,%al
  40effc:	e8 4f 22 ff ff       	callq  401250 <fprintf@plt>
  40f001:	48 8b 4c 24 58       	mov    0x58(%rsp),%rcx
  40f006:	48 8b 44 24 40       	mov    0x40(%rsp),%rax
  40f00b:	48 8b 54 24 58       	mov    0x58(%rsp),%rdx
  40f010:	48 29 d0             	sub    %rdx,%rax
  40f013:	48 89 8c 24 58 02 00 	mov    %rcx,0x258(%rsp)
  40f01a:	00 
  40f01b:	48 89 84 24 50 02 00 	mov    %rax,0x250(%rsp)
  40f022:	00 
  40f023:	48 8b 84 24 58 02 00 	mov    0x258(%rsp),%rax
  40f02a:	00 
  40f02b:	48 89 84 24 48 02 00 	mov    %rax,0x248(%rsp)
  40f032:	00 
  40f033:	48 8b 84 24 48 02 00 	mov    0x248(%rsp),%rax
  40f03a:	00 
  40f03b:	48 03 84 24 50 02 00 	add    0x250(%rsp),%rax
  40f042:	00 
  40f043:	48 89 84 24 40 02 00 	mov    %rax,0x240(%rsp)
  40f04a:	00 
  40f04b:	48 8b 84 24 48 02 00 	mov    0x248(%rsp),%rax
  40f052:	00 
  40f053:	48 c1 e8 08          	shr    $0x8,%rax
  40f057:	48 89 84 24 38 02 00 	mov    %rax,0x238(%rsp)
  40f05e:	00 
  40f05f:	48 8b 84 24 38 02 00 	mov    0x238(%rsp),%rax
  40f066:	00 
  40f067:	48 c1 e0 08          	shl    $0x8,%rax
  40f06b:	48 89 84 24 30 02 00 	mov    %rax,0x230(%rsp)
  40f072:	00 
  40f073:	48 8b 84 24 40 02 00 	mov    0x240(%rsp),%rax
  40f07a:	00 
  40f07b:	48 c1 e8 08          	shr    $0x8,%rax
  40f07f:	48 89 84 24 28 02 00 	mov    %rax,0x228(%rsp)
  40f086:	00 
  40f087:	48 8b 84 24 28 02 00 	mov    0x228(%rsp),%rax
  40f08e:	00 
  40f08f:	48 c1 e0 08          	shl    $0x8,%rax
  40f093:	48 89 84 24 20 02 00 	mov    %rax,0x220(%rsp)
  40f09a:	00 
  40f09b:	48 8b 84 24 38 02 00 	mov    0x238(%rsp),%rax
  40f0a2:	00 
  40f0a3:	48 3b 84 24 28 02 00 	cmp    0x228(%rsp),%rax
  40f0aa:	00 
  40f0ab:	0f 85 28 06 00 00    	jne    40f6d9 <__cocheck__poison_environment+0x1b79>
  40f0b1:	48 8b 8c 24 58 02 00 	mov    0x258(%rsp),%rcx
  40f0b8:	00 
  40f0b9:	48 8b 84 24 50 02 00 	mov    0x250(%rsp),%rax
  40f0c0:	00 
  40f0c1:	48 89 8c 24 88 02 00 	mov    %rcx,0x288(%rsp)
  40f0c8:	00 
  40f0c9:	48 89 84 24 80 02 00 	mov    %rax,0x280(%rsp)
  40f0d0:	00 
  40f0d1:	c6 84 24 7f 02 00 00 	movb   $0x0,0x27f(%rsp)
  40f0d8:	00 
  40f0d9:	48 8b 84 24 88 02 00 	mov    0x288(%rsp),%rax
  40f0e0:	00 
  40f0e1:	48 c1 e8 08          	shr    $0x8,%rax
  40f0e5:	48 89 84 24 70 02 00 	mov    %rax,0x270(%rsp)
  40f0ec:	00 
  40f0ed:	48 8b 04 25 08 82 61 	mov    0x618208,%rax
  40f0f4:	00 
  40f0f5:	48 8b 8c 24 70 02 00 	mov    0x270(%rsp),%rcx
  40f0fc:	00 
  40f0fd:	80 3c 08 00          	cmpb   $0x0,(%rax,%rcx,1)
  40f101:	0f 85 49 00 00 00    	jne    40f150 <__cocheck__poison_environment+0x15f0>
  40f107:	48 8b 04 25 08 82 61 	mov    0x618208,%rax
  40f10e:	00 
  40f10f:	48 8b 8c 24 70 02 00 	mov    0x270(%rsp),%rcx
  40f116:	00 
  40f117:	c6 04 08 01          	movb   $0x1,(%rax,%rcx,1)
  40f11b:	48 8b 84 24 70 02 00 	mov    0x270(%rsp),%rax
  40f122:	00 
  40f123:	48 c1 e0 08          	shl    $0x8,%rax
  40f127:	48 c1 e8 03          	shr    $0x3,%rax
  40f12b:	48 05 00 80 ff 7f    	add    $0x7fff8000,%rax
  40f131:	48 89 84 24 68 02 00 	mov    %rax,0x268(%rsp)
  40f138:	00 
  40f139:	48 8b bc 24 68 02 00 	mov    0x268(%rsp),%rdi
  40f140:	00 
  40f141:	be ff 00 00 00       	mov    $0xff,%esi
  40f146:	ba 20 00 00 00       	mov    $0x20,%edx
  40f14b:	e8 80 1f ff ff       	callq  4010d0 <memset@plt>
  40f150:	80 bc 24 7f 02 00 00 	cmpb   $0x0,0x27f(%rsp)
  40f157:	00 
  40f158:	0f 85 f7 04 00 00    	jne    40f655 <__cocheck__poison_environment+0x1af5>
  40f15e:	48 8b 8c 24 88 02 00 	mov    0x288(%rsp),%rcx
  40f165:	00 
  40f166:	48 8b 84 24 80 02 00 	mov    0x280(%rsp),%rax
  40f16d:	00 
  40f16e:	48 89 8c 24 d0 02 00 	mov    %rcx,0x2d0(%rsp)
  40f175:	00 
  40f176:	48 89 84 24 c8 02 00 	mov    %rax,0x2c8(%rsp)
  40f17d:	00 
  40f17e:	48 8b 84 24 d0 02 00 	mov    0x2d0(%rsp),%rax
  40f185:	00 
  40f186:	48 c1 e8 03          	shr    $0x3,%rax
  40f18a:	48 05 00 80 ff 7f    	add    $0x7fff8000,%rax
  40f190:	48 89 84 24 c0 02 00 	mov    %rax,0x2c0(%rsp)
  40f197:	00 
  40f198:	48 8b 84 24 d0 02 00 	mov    0x2d0(%rsp),%rax
  40f19f:	00 
  40f1a0:	48 03 84 24 c8 02 00 	add    0x2c8(%rsp),%rax
  40f1a7:	00 
  40f1a8:	48 83 e8 01          	sub    $0x1,%rax
  40f1ac:	48 c1 e8 03          	shr    $0x3,%rax
  40f1b0:	48 05 00 80 ff 7f    	add    $0x7fff8000,%rax
  40f1b6:	48 83 c0 01          	add    $0x1,%rax
  40f1ba:	48 89 84 24 b8 02 00 	mov    %rax,0x2b8(%rsp)
  40f1c1:	00 
  40f1c2:	48 81 bc 24 c8 02 00 	cmpq   $0x80,0x2c8(%rsp)
  40f1c9:	00 80 00 00 00 
  40f1ce:	0f 87 31 03 00 00    	ja     40f505 <__cocheck__poison_environment+0x19a5>
  40f1d4:	48 8b 84 24 c8 02 00 	mov    0x2c8(%rsp),%rax
  40f1db:	00 
  40f1dc:	48 83 c0 07          	add    $0x7,%rax
  40f1e0:	48 c1 e8 03          	shr    $0x3,%rax
  40f1e4:	48 89 84 24 b0 02 00 	mov    %rax,0x2b0(%rsp)
  40f1eb:	00 
  40f1ec:	48 8b 84 24 b0 02 00 	mov    0x2b0(%rsp),%rax
  40f1f3:	00 
  40f1f4:	48 83 c0 ff          	add    $0xffffffffffffffff,%rax
  40f1f8:	48 89 44 24 10       	mov    %rax,0x10(%rsp)
  40f1fd:	48 83 e8 0f          	sub    $0xf,%rax
  40f201:	0f 87 e9 02 00 00    	ja     40f4f0 <__cocheck__poison_environment+0x1990>
  40f207:	48 8b 44 24 10       	mov    0x10(%rsp),%rax
  40f20c:	48 8b 04 c5 68 57 41 	mov    0x415768(,%rax,8),%rax
  40f213:	00 
  40f214:	ff e0                	jmpq   *%rax
  40f216:	48 8b 84 24 b8 02 00 	mov    0x2b8(%rsp),%rax
  40f21d:	00 
  40f21e:	48 83 e8 01          	sub    $0x1,%rax
  40f222:	c6 00 01             	movb   $0x1,(%rax)
  40f225:	e9 cb 02 00 00       	jmpq   40f4f5 <__cocheck__poison_environment+0x1995>
  40f22a:	48 8b 84 24 b8 02 00 	mov    0x2b8(%rsp),%rax
  40f231:	00 
  40f232:	48 83 e8 02          	sub    $0x2,%rax
  40f236:	66 c7 00 02 01       	movw   $0x102,(%rax)
  40f23b:	e9 b5 02 00 00       	jmpq   40f4f5 <__cocheck__poison_environment+0x1995>
  40f240:	48 8b 84 24 b8 02 00 	mov    0x2b8(%rsp),%rax
  40f247:	00 
  40f248:	48 83 e8 01          	sub    $0x1,%rax
  40f24c:	c6 00 01             	movb   $0x1,(%rax)
  40f24f:	48 8b 84 24 b8 02 00 	mov    0x2b8(%rsp),%rax
  40f256:	00 
  40f257:	48 83 e8 03          	sub    $0x3,%rax
  40f25b:	66 c7 00 02 02       	movw   $0x202,(%rax)
  40f260:	e9 90 02 00 00       	jmpq   40f4f5 <__cocheck__poison_environment+0x1995>
  40f265:	48 8b 84 24 b8 02 00 	mov    0x2b8(%rsp),%rax
  40f26c:	00 
  40f26d:	48 83 e8 04          	sub    $0x4,%rax
  40f271:	c7 00 03 02 02 01    	movl   $0x1020203,(%rax)
  40f277:	e9 79 02 00 00       	jmpq   40f4f5 <__cocheck__poison_environment+0x1995>
  40f27c:	48 8b 84 24 b8 02 00 	mov    0x2b8(%rsp),%rax
  40f283:	00 
  40f284:	48 83 e8 01          	sub    $0x1,%rax
  40f288:	c6 00 01             	movb   $0x1,(%rax)
  40f28b:	48 8b 84 24 b8 02 00 	mov    0x2b8(%rsp),%rax
  40f292:	00 
  40f293:	48 83 e8 05          	sub    $0x5,%rax
  40f297:	c7 00 03 03 02 02    	movl   $0x2020303,(%rax)
  40f29d:	e9 53 02 00 00       	jmpq   40f4f5 <__cocheck__poison_environment+0x1995>
  40f2a2:	48 8b 84 24 b8 02 00 	mov    0x2b8(%rsp),%rax
  40f2a9:	00 
  40f2aa:	48 83 e8 02          	sub    $0x2,%rax
  40f2ae:	66 c7 00 02 01       	movw   $0x102,(%rax)
  40f2b3:	48 8b 84 24 b8 02 00 	mov    0x2b8(%rsp),%rax
  40f2ba:	00 
  40f2bb:	48 83 e8 06          	sub    $0x6,%rax
  40f2bf:	c7 00 03 03 03 02    	movl   $0x2030303,(%rax)
  40f2c5:	e9 2b 02 00 00       	jmpq   40f4f5 <__cocheck__poison_environment+0x1995>
  40f2ca:	48 8b 84 24 b8 02 00 	mov    0x2b8(%rsp),%rax
  40f2d1:	00 
  40f2d2:	48 83 e8 01          	sub    $0x1,%rax
  40f2d6:	c6 00 01             	movb   $0x1,(%rax)
  40f2d9:	48 8b 84 24 b8 02 00 	mov    0x2b8(%rsp),%rax
  40f2e0:	00 
  40f2e1:	48 83 e8 03          	sub    $0x3,%rax
  40f2e5:	66 c7 00 02 02       	movw   $0x202,(%rax)
  40f2ea:	48 8b 84 24 b8 02 00 	mov    0x2b8(%rsp),%rax
  40f2f1:	00 
  40f2f2:	48 83 e8 07          	sub    $0x7,%rax
  40f2f6:	c7 00 03 03 03 03    	movl   $0x3030303,(%rax)
  40f2fc:	e9 f4 01 00 00       	jmpq   40f4f5 <__cocheck__poison_environment+0x1995>
  40f301:	48 8b 84 24 b8 02 00 	mov    0x2b8(%rsp),%rax
  40f308:	00 
  40f309:	48 83 e8 08          	sub    $0x8,%rax
  40f30d:	48 b9 04 03 03 03 03 	movabs $0x102020303030304,%rcx
  40f314:	02 02 01 
  40f317:	48 89 08             	mov    %rcx,(%rax)
  40f31a:	e9 d6 01 00 00       	jmpq   40f4f5 <__cocheck__poison_environment+0x1995>
  40f31f:	48 8b 84 24 b8 02 00 	mov    0x2b8(%rsp),%rax
  40f326:	00 
  40f327:	48 83 e8 01          	sub    $0x1,%rax
  40f32b:	c6 00 01             	movb   $0x1,(%rax)
  40f32e:	48 8b 84 24 b8 02 00 	mov    0x2b8(%rsp),%rax
  40f335:	00 
  40f336:	48 83 e8 09          	sub    $0x9,%rax
  40f33a:	48 b9 04 04 03 03 03 	movabs $0x202030303030404,%rcx
  40f341:	03 02 02 
  40f344:	48 89 08             	mov    %rcx,(%rax)
  40f347:	e9 a9 01 00 00       	jmpq   40f4f5 <__cocheck__poison_environment+0x1995>
  40f34c:	48 8b 84 24 b8 02 00 	mov    0x2b8(%rsp),%rax
  40f353:	00 
  40f354:	48 83 e8 02          	sub    $0x2,%rax
  40f358:	66 c7 00 02 01       	movw   $0x102,(%rax)
  40f35d:	48 8b 84 24 b8 02 00 	mov    0x2b8(%rsp),%rax
  40f364:	00 
  40f365:	48 83 e8 0a          	sub    $0xa,%rax
  40f369:	48 b9 04 04 04 03 03 	movabs $0x203030303040404,%rcx
  40f370:	03 03 02 
  40f373:	48 89 08             	mov    %rcx,(%rax)
  40f376:	e9 7a 01 00 00       	jmpq   40f4f5 <__cocheck__poison_environment+0x1995>
  40f37b:	48 8b 84 24 b8 02 00 	mov    0x2b8(%rsp),%rax
  40f382:	00 
  40f383:	48 83 e8 01          	sub    $0x1,%rax
  40f387:	c6 00 01             	movb   $0x1,(%rax)
  40f38a:	48 8b 84 24 b8 02 00 	mov    0x2b8(%rsp),%rax
  40f391:	00 
  40f392:	48 83 e8 03          	sub    $0x3,%rax
  40f396:	66 c7 00 02 02       	movw   $0x202,(%rax)
  40f39b:	48 8b 84 24 b8 02 00 	mov    0x2b8(%rsp),%rax
  40f3a2:	00 
  40f3a3:	48 83 e8 0b          	sub    $0xb,%rax
  40f3a7:	48 b9 04 04 04 04 03 	movabs $0x303030304040404,%rcx
  40f3ae:	03 03 03 
  40f3b1:	48 89 08             	mov    %rcx,(%rax)
  40f3b4:	e9 3c 01 00 00       	jmpq   40f4f5 <__cocheck__poison_environment+0x1995>
  40f3b9:	48 8b 84 24 b8 02 00 	mov    0x2b8(%rsp),%rax
  40f3c0:	00 
  40f3c1:	48 83 e8 04          	sub    $0x4,%rax
  40f3c5:	c7 00 03 02 02 01    	movl   $0x1020203,(%rax)
  40f3cb:	48 8b 84 24 b8 02 00 	mov    0x2b8(%rsp),%rax
  40f3d2:	00 
  40f3d3:	48 83 e8 0c          	sub    $0xc,%rax
  40f3d7:	48 b9 04 04 04 04 04 	movabs $0x303030404040404,%rcx
  40f3de:	03 03 03 
  40f3e1:	48 89 08             	mov    %rcx,(%rax)
  40f3e4:	e9 0c 01 00 00       	jmpq   40f4f5 <__cocheck__poison_environment+0x1995>
  40f3e9:	48 8b 84 24 b8 02 00 	mov    0x2b8(%rsp),%rax
  40f3f0:	00 
  40f3f1:	48 83 e8 01          	sub    $0x1,%rax
  40f3f5:	c6 00 01             	movb   $0x1,(%rax)
  40f3f8:	48 8b 84 24 b8 02 00 	mov    0x2b8(%rsp),%rax
  40f3ff:	00 
  40f400:	48 83 e8 05          	sub    $0x5,%rax
  40f404:	c7 00 03 03 02 02    	movl   $0x2020303,(%rax)
  40f40a:	48 8b 84 24 b8 02 00 	mov    0x2b8(%rsp),%rax
  40f411:	00 
  40f412:	48 83 e8 0d          	sub    $0xd,%rax
  40f416:	48 b9 04 04 04 04 04 	movabs $0x303040404040404,%rcx
  40f41d:	04 03 03 
  40f420:	48 89 08             	mov    %rcx,(%rax)
  40f423:	e9 cd 00 00 00       	jmpq   40f4f5 <__cocheck__poison_environment+0x1995>
  40f428:	48 8b 84 24 b8 02 00 	mov    0x2b8(%rsp),%rax
  40f42f:	00 
  40f430:	48 83 e8 02          	sub    $0x2,%rax
  40f434:	66 c7 00 02 01       	movw   $0x102,(%rax)
  40f439:	48 8b 84 24 b8 02 00 	mov    0x2b8(%rsp),%rax
  40f440:	00 
  40f441:	48 83 e8 06          	sub    $0x6,%rax
  40f445:	c7 00 03 03 03 02    	movl   $0x2030303,(%rax)
  40f44b:	48 8b 84 24 b8 02 00 	mov    0x2b8(%rsp),%rax
  40f452:	00 
  40f453:	48 83 e8 0e          	sub    $0xe,%rax
  40f457:	48 b9 04 04 04 04 04 	movabs $0x304040404040404,%rcx
  40f45e:	04 04 03 
  40f461:	48 89 08             	mov    %rcx,(%rax)
  40f464:	e9 8c 00 00 00       	jmpq   40f4f5 <__cocheck__poison_environment+0x1995>
  40f469:	48 8b 84 24 b8 02 00 	mov    0x2b8(%rsp),%rax
  40f470:	00 
  40f471:	48 83 e8 01          	sub    $0x1,%rax
  40f475:	c6 00 01             	movb   $0x1,(%rax)
  40f478:	48 8b 84 24 b8 02 00 	mov    0x2b8(%rsp),%rax
  40f47f:	00 
  40f480:	48 83 e8 03          	sub    $0x3,%rax
  40f484:	66 c7 00 02 02       	movw   $0x202,(%rax)
  40f489:	48 8b 84 24 b8 02 00 	mov    0x2b8(%rsp),%rax
  40f490:	00 
  40f491:	48 83 e8 07          	sub    $0x7,%rax
  40f495:	c7 00 03 03 03 03    	movl   $0x3030303,(%rax)
  40f49b:	48 8b 84 24 b8 02 00 	mov    0x2b8(%rsp),%rax
  40f4a2:	00 
  40f4a3:	48 83 e8 0f          	sub    $0xf,%rax
  40f4a7:	48 b9 04 04 04 04 04 	movabs $0x404040404040404,%rcx
  40f4ae:	04 04 04 
  40f4b1:	48 89 08             	mov    %rcx,(%rax)
  40f4b4:	e9 3c 00 00 00       	jmpq   40f4f5 <__cocheck__poison_environment+0x1995>
  40f4b9:	48 8b 84 24 b8 02 00 	mov    0x2b8(%rsp),%rax
  40f4c0:	00 
  40f4c1:	48 83 e8 08          	sub    $0x8,%rax
  40f4c5:	48 b9 04 03 03 03 03 	movabs $0x102020303030304,%rcx
  40f4cc:	02 02 01 
  40f4cf:	48 89 08             	mov    %rcx,(%rax)
  40f4d2:	48 8b 84 24 b8 02 00 	mov    0x2b8(%rsp),%rax
  40f4d9:	00 
  40f4da:	48 83 e8 10          	sub    $0x10,%rax
  40f4de:	48 b9 05 04 04 04 04 	movabs $0x404040404040405,%rcx
  40f4e5:	04 04 04 
  40f4e8:	48 89 08             	mov    %rcx,(%rax)
  40f4eb:	e9 05 00 00 00       	jmpq   40f4f5 <__cocheck__poison_environment+0x1995>
  40f4f0:	e9 00 00 00 00       	jmpq   40f4f5 <__cocheck__poison_environment+0x1995>
  40f4f5:	c7 84 24 ac 02 00 00 	movl   $0x1,0x2ac(%rsp)
  40f4fc:	01 00 00 00 
  40f500:	e9 4b 01 00 00       	jmpq   40f650 <__cocheck__poison_environment+0x1af0>
  40f505:	48 8b 84 24 b8 02 00 	mov    0x2b8(%rsp),%rax
  40f50c:	00 
  40f50d:	48 83 e8 08          	sub    $0x8,%rax
  40f511:	48 b9 04 03 03 03 03 	movabs $0x102020303030304,%rcx
  40f518:	02 02 01 
  40f51b:	48 89 08             	mov    %rcx,(%rax)
  40f51e:	48 8b 84 24 b8 02 00 	mov    0x2b8(%rsp),%rax
  40f525:	00 
  40f526:	48 83 e8 10          	sub    $0x10,%rax
  40f52a:	48 b9 05 04 04 04 04 	movabs $0x404040404040405,%rcx
  40f531:	04 04 04 
  40f534:	48 89 08             	mov    %rcx,(%rax)
  40f537:	48 c7 84 24 a0 02 00 	movq   $0x4,0x2a0(%rsp)
  40f53e:	00 04 00 00 00 
  40f543:	48 8b 84 24 b8 02 00 	mov    0x2b8(%rsp),%rax
  40f54a:	00 
  40f54b:	48 8b 8c 24 a0 02 00 	mov    0x2a0(%rsp),%rcx
  40f552:	00 
  40f553:	ba 01 00 00 00       	mov    $0x1,%edx
  40f558:	d3 e2                	shl    %cl,%edx
  40f55a:	89 d1                	mov    %edx,%ecx
  40f55c:	48 63 c9             	movslq %ecx,%rcx
  40f55f:	48 29 c8             	sub    %rcx,%rax
  40f562:	48 3b 84 24 c0 02 00 	cmp    0x2c0(%rsp),%rax
  40f569:	00 
  40f56a:	0f 83 1b 00 00 00    	jae    40f58b <__cocheck__poison_environment+0x1a2b>
  40f570:	c7 84 24 ac 02 00 00 	movl   $0x3,0x2ac(%rsp)
  40f577:	03 00 00 00 
  40f57b:	c7 84 24 ac 02 00 00 	movl   $0x0,0x2ac(%rsp)
  40f582:	00 00 00 00 
  40f586:	e9 c5 00 00 00       	jmpq   40f650 <__cocheck__poison_environment+0x1af0>
  40f58b:	48 8b 84 24 b8 02 00 	mov    0x2b8(%rsp),%rax
  40f592:	00 
  40f593:	48 8b 8c 24 a0 02 00 	mov    0x2a0(%rsp),%rcx
  40f59a:	00 
  40f59b:	48 83 c1 01          	add    $0x1,%rcx
  40f59f:	ba 01 00 00 00       	mov    $0x1,%edx
  40f5a4:	d3 e2                	shl    %cl,%edx
  40f5a6:	89 d1                	mov    %edx,%ecx
  40f5a8:	48 63 c9             	movslq %ecx,%rcx
  40f5ab:	48 29 c8             	sub    %rcx,%rax
  40f5ae:	48 83 c0 01          	add    $0x1,%rax
  40f5b2:	48 89 84 24 98 02 00 	mov    %rax,0x298(%rsp)
  40f5b9:	00 
  40f5ba:	48 8b 84 24 b8 02 00 	mov    0x2b8(%rsp),%rax
  40f5c1:	00 
  40f5c2:	48 8b 8c 24 a0 02 00 	mov    0x2a0(%rsp),%rcx
  40f5c9:	00 
  40f5ca:	ba 01 00 00 00       	mov    $0x1,%edx
  40f5cf:	d3 e2                	shl    %cl,%edx
  40f5d1:	89 d1                	mov    %edx,%ecx
  40f5d3:	48 63 c9             	movslq %ecx,%rcx
  40f5d6:	48 29 c8             	sub    %rcx,%rax
  40f5d9:	48 89 84 24 90 02 00 	mov    %rax,0x290(%rsp)
  40f5e0:	00 
  40f5e1:	48 8b 84 24 98 02 00 	mov    0x298(%rsp),%rax
  40f5e8:	00 
  40f5e9:	48 3b 84 24 c0 02 00 	cmp    0x2c0(%rsp),%rax
  40f5f0:	00 
  40f5f1:	0f 83 10 00 00 00    	jae    40f607 <__cocheck__poison_environment+0x1aa7>
  40f5f7:	48 8b 84 24 c0 02 00 	mov    0x2c0(%rsp),%rax
  40f5fe:	00 
  40f5ff:	48 89 84 24 98 02 00 	mov    %rax,0x298(%rsp)
  40f606:	00 
  40f607:	48 8b bc 24 98 02 00 	mov    0x298(%rsp),%rdi
  40f60e:	00 
  40f60f:	48 8b 84 24 a0 02 00 	mov    0x2a0(%rsp),%rax
  40f616:	00 
  40f617:	48 83 c0 01          	add    $0x1,%rax
  40f61b:	48 8b 94 24 90 02 00 	mov    0x290(%rsp),%rdx
  40f622:	00 
  40f623:	48 2b 94 24 98 02 00 	sub    0x298(%rsp),%rdx
  40f62a:	00 
  40f62b:	48 83 c2 01          	add    $0x1,%rdx
  40f62f:	0f b6 f0             	movzbl %al,%esi
  40f632:	e8 99 1a ff ff       	callq  4010d0 <memset@plt>
  40f637:	48 8b 84 24 a0 02 00 	mov    0x2a0(%rsp),%rax
  40f63e:	00 
  40f63f:	48 83 c0 01          	add    $0x1,%rax
  40f643:	48 89 84 24 a0 02 00 	mov    %rax,0x2a0(%rsp)
  40f64a:	00 
  40f64b:	e9 f3 fe ff ff       	jmpq   40f543 <__cocheck__poison_environment+0x19e3>
  40f650:	e9 35 00 00 00       	jmpq   40f68a <__cocheck__poison_environment+0x1b2a>
  40f655:	48 8b 84 24 88 02 00 	mov    0x288(%rsp),%rax
  40f65c:	00 
  40f65d:	48 c1 e8 03          	shr    $0x3,%rax
  40f661:	48 05 00 80 ff 7f    	add    $0x7fff8000,%rax
  40f667:	48 89 84 24 60 02 00 	mov    %rax,0x260(%rsp)
  40f66e:	00 
  40f66f:	48 8b bc 24 60 02 00 	mov    0x260(%rsp),%rdi
  40f676:	00 
  40f677:	48 8b 94 24 80 02 00 	mov    0x280(%rsp),%rdx
  40f67e:	00 
  40f67f:	48 c1 ea 03          	shr    $0x3,%rdx
  40f683:	31 f6                	xor    %esi,%esi
  40f685:	e8 46 1a ff ff       	callq  4010d0 <memset@plt>
  40f68a:	48 8b 84 24 50 02 00 	mov    0x250(%rsp),%rax
  40f691:	00 
  40f692:	48 83 e0 07          	and    $0x7,%rax
  40f696:	48 83 f8 00          	cmp    $0x0,%rax
  40f69a:	0f 84 34 00 00 00    	je     40f6d4 <__cocheck__poison_environment+0x1b74>
  40f6a0:	48 8b 84 24 50 02 00 	mov    0x250(%rsp),%rax
  40f6a7:	00 
  40f6a8:	48 83 e0 07          	and    $0x7,%rax
  40f6ac:	ba 08 00 00 00       	mov    $0x8,%edx
  40f6b1:	48 29 c2             	sub    %rax,%rdx
  40f6b4:	48 c1 e2 05          	shl    $0x5,%rdx
  40f6b8:	48 8b 84 24 40 02 00 	mov    0x240(%rsp),%rax
  40f6bf:	00 
  40f6c0:	48 c1 e8 03          	shr    $0x3,%rax
  40f6c4:	0f b6 88 00 80 ff 7f 	movzbl 0x7fff8000(%rax),%ecx
  40f6cb:	48 01 d1             	add    %rdx,%rcx
  40f6ce:	88 88 00 80 ff 7f    	mov    %cl,0x7fff8000(%rax)
  40f6d4:	e9 39 0d 00 00       	jmpq   410412 <__cocheck__poison_environment+0x28b2>
  40f6d9:	48 8b 84 24 38 02 00 	mov    0x238(%rsp),%rax
  40f6e0:	00 
  40f6e1:	48 89 84 24 18 02 00 	mov    %rax,0x218(%rsp)
  40f6e8:	00 
  40f6e9:	48 8b 84 24 18 02 00 	mov    0x218(%rsp),%rax
  40f6f0:	00 
  40f6f1:	48 3b 84 24 28 02 00 	cmp    0x228(%rsp),%rax
  40f6f8:	00 
  40f6f9:	0f 85 1b 00 00 00    	jne    40f71a <__cocheck__poison_environment+0x1bba>
  40f6ff:	48 8b 84 24 48 02 00 	mov    0x248(%rsp),%rax
  40f706:	00 
  40f707:	48 3b 84 24 30 02 00 	cmp    0x230(%rsp),%rax
  40f70e:	00 
  40f70f:	0f 85 cd 00 00 00    	jne    40f7e2 <__cocheck__poison_environment+0x1c82>
  40f715:	e9 ae 00 00 00       	jmpq   40f7c8 <__cocheck__poison_environment+0x1c68>
  40f71a:	48 8b 04 25 00 82 61 	mov    0x618200,%rax
  40f721:	00 
  40f722:	48 8b 8c 24 18 02 00 	mov    0x218(%rsp),%rcx
  40f729:	00 
  40f72a:	80 3c 08 00          	cmpb   $0x0,(%rax,%rcx,1)
  40f72e:	0f 84 4f 00 00 00    	je     40f783 <__cocheck__poison_environment+0x1c23>
  40f734:	48 8b 84 24 18 02 00 	mov    0x218(%rsp),%rax
  40f73b:	00 
  40f73c:	48 3b 84 24 38 02 00 	cmp    0x238(%rsp),%rax
  40f743:	00 
  40f744:	0f 85 16 00 00 00    	jne    40f760 <__cocheck__poison_environment+0x1c00>
  40f74a:	48 8b 84 24 48 02 00 	mov    0x248(%rsp),%rax
  40f751:	00 
  40f752:	48 3b 84 24 30 02 00 	cmp    0x230(%rsp),%rax
  40f759:	00 
  40f75a:	0f 85 23 00 00 00    	jne    40f783 <__cocheck__poison_environment+0x1c23>
  40f760:	48 8b bc 24 18 02 00 	mov    0x218(%rsp),%rdi
  40f767:	00 
  40f768:	48 c1 e7 08          	shl    $0x8,%rdi
  40f76c:	48 c1 ef 03          	shr    $0x3,%rdi
  40f770:	48 81 c7 00 80 ff 7f 	add    $0x7fff8000,%rdi
  40f777:	31 f6                	xor    %esi,%esi
  40f779:	ba 20 00 00 00       	mov    $0x20,%edx
  40f77e:	e8 4d 19 ff ff       	callq  4010d0 <memset@plt>
  40f783:	48 8b 84 24 40 02 00 	mov    0x240(%rsp),%rax
  40f78a:	00 
  40f78b:	48 8b 8c 24 18 02 00 	mov    0x218(%rsp),%rcx
  40f792:	00 
  40f793:	48 c1 e1 08          	shl    $0x8,%rcx
  40f797:	48 29 c8             	sub    %rcx,%rax
  40f79a:	89 c2                	mov    %eax,%edx
  40f79c:	48 8b 04 25 f8 81 61 	mov    0x6181f8,%rax
  40f7a3:	00 
  40f7a4:	48 8b 8c 24 18 02 00 	mov    0x218(%rsp),%rcx
  40f7ab:	00 
  40f7ac:	89 14 88             	mov    %edx,(%rax,%rcx,4)
  40f7af:	48 8b 84 24 18 02 00 	mov    0x218(%rsp),%rax
  40f7b6:	00 
  40f7b7:	48 83 c0 01          	add    $0x1,%rax
  40f7bb:	48 89 84 24 18 02 00 	mov    %rax,0x218(%rsp)
  40f7c2:	00 
  40f7c3:	e9 21 ff ff ff       	jmpq   40f6e9 <__cocheck__poison_environment+0x1b89>
  40f7c8:	48 8b 04 25 00 82 61 	mov    0x618200,%rax
  40f7cf:	00 
  40f7d0:	48 8b 8c 24 38 02 00 	mov    0x238(%rsp),%rcx
  40f7d7:	00 
  40f7d8:	80 3c 08 00          	cmpb   $0x0,(%rax,%rcx,1)
  40f7dc:	0f 84 e7 05 00 00    	je     40fdc9 <__cocheck__poison_environment+0x2269>
  40f7e2:	48 8b 8c 24 48 02 00 	mov    0x248(%rsp),%rcx
  40f7e9:	00 
  40f7ea:	48 8b 84 24 30 02 00 	mov    0x230(%rsp),%rax
  40f7f1:	00 
  40f7f2:	48 2b 84 24 48 02 00 	sub    0x248(%rsp),%rax
  40f7f9:	00 
  40f7fa:	48 05 00 01 00 00    	add    $0x100,%rax
  40f800:	48 89 8c 24 78 03 00 	mov    %rcx,0x378(%rsp)
  40f807:	00 
  40f808:	48 89 84 24 70 03 00 	mov    %rax,0x370(%rsp)
  40f80f:	00 
  40f810:	c6 84 24 6f 03 00 00 	movb   $0x1,0x36f(%rsp)
  40f817:	01 
  40f818:	48 8b 84 24 78 03 00 	mov    0x378(%rsp),%rax
  40f81f:	00 
  40f820:	48 c1 e8 08          	shr    $0x8,%rax
  40f824:	48 89 84 24 60 03 00 	mov    %rax,0x360(%rsp)
  40f82b:	00 
  40f82c:	48 8b 04 25 08 82 61 	mov    0x618208,%rax
  40f833:	00 
  40f834:	48 8b 8c 24 60 03 00 	mov    0x360(%rsp),%rcx
  40f83b:	00 
  40f83c:	80 3c 08 00          	cmpb   $0x0,(%rax,%rcx,1)
  40f840:	0f 85 49 00 00 00    	jne    40f88f <__cocheck__poison_environment+0x1d2f>
  40f846:	48 8b 04 25 08 82 61 	mov    0x618208,%rax
  40f84d:	00 
  40f84e:	48 8b 8c 24 60 03 00 	mov    0x360(%rsp),%rcx
  40f855:	00 
  40f856:	c6 04 08 01          	movb   $0x1,(%rax,%rcx,1)
  40f85a:	48 8b 84 24 60 03 00 	mov    0x360(%rsp),%rax
  40f861:	00 
  40f862:	48 c1 e0 08          	shl    $0x8,%rax
  40f866:	48 c1 e8 03          	shr    $0x3,%rax
  40f86a:	48 05 00 80 ff 7f    	add    $0x7fff8000,%rax
  40f870:	48 89 84 24 58 03 00 	mov    %rax,0x358(%rsp)
  40f877:	00 
  40f878:	48 8b bc 24 58 03 00 	mov    0x358(%rsp),%rdi
  40f87f:	00 
  40f880:	be ff 00 00 00       	mov    $0xff,%esi
  40f885:	ba 20 00 00 00       	mov    $0x20,%edx
  40f88a:	e8 41 18 ff ff       	callq  4010d0 <memset@plt>
  40f88f:	80 bc 24 6f 03 00 00 	cmpb   $0x0,0x36f(%rsp)
  40f896:	00 
  40f897:	0f 85 f7 04 00 00    	jne    40fd94 <__cocheck__poison_environment+0x2234>
  40f89d:	48 8b 8c 24 78 03 00 	mov    0x378(%rsp),%rcx
  40f8a4:	00 
  40f8a5:	48 8b 84 24 70 03 00 	mov    0x370(%rsp),%rax
  40f8ac:	00 
  40f8ad:	48 89 8c 24 c0 03 00 	mov    %rcx,0x3c0(%rsp)
  40f8b4:	00 
  40f8b5:	48 89 84 24 b8 03 00 	mov    %rax,0x3b8(%rsp)
  40f8bc:	00 
  40f8bd:	48 8b 84 24 c0 03 00 	mov    0x3c0(%rsp),%rax
  40f8c4:	00 
  40f8c5:	48 c1 e8 03          	shr    $0x3,%rax
  40f8c9:	48 05 00 80 ff 7f    	add    $0x7fff8000,%rax
  40f8cf:	48 89 84 24 b0 03 00 	mov    %rax,0x3b0(%rsp)
  40f8d6:	00 
  40f8d7:	48 8b 84 24 c0 03 00 	mov    0x3c0(%rsp),%rax
  40f8de:	00 
  40f8df:	48 03 84 24 b8 03 00 	add    0x3b8(%rsp),%rax
  40f8e6:	00 
  40f8e7:	48 83 e8 01          	sub    $0x1,%rax
  40f8eb:	48 c1 e8 03          	shr    $0x3,%rax
  40f8ef:	48 05 00 80 ff 7f    	add    $0x7fff8000,%rax
  40f8f5:	48 83 c0 01          	add    $0x1,%rax
  40f8f9:	48 89 84 24 a8 03 00 	mov    %rax,0x3a8(%rsp)
  40f900:	00 
  40f901:	48 81 bc 24 b8 03 00 	cmpq   $0x80,0x3b8(%rsp)
  40f908:	00 80 00 00 00 
  40f90d:	0f 87 31 03 00 00    	ja     40fc44 <__cocheck__poison_environment+0x20e4>
  40f913:	48 8b 84 24 b8 03 00 	mov    0x3b8(%rsp),%rax
  40f91a:	00 
  40f91b:	48 83 c0 07          	add    $0x7,%rax
  40f91f:	48 c1 e8 03          	shr    $0x3,%rax
  40f923:	48 89 84 24 a0 03 00 	mov    %rax,0x3a0(%rsp)
  40f92a:	00 
  40f92b:	48 8b 84 24 a0 03 00 	mov    0x3a0(%rsp),%rax
  40f932:	00 
  40f933:	48 83 c0 ff          	add    $0xffffffffffffffff,%rax
  40f937:	48 89 44 24 08       	mov    %rax,0x8(%rsp)
  40f93c:	48 83 e8 0f          	sub    $0xf,%rax
  40f940:	0f 87 e9 02 00 00    	ja     40fc2f <__cocheck__poison_environment+0x20cf>
  40f946:	48 8b 44 24 08       	mov    0x8(%rsp),%rax
  40f94b:	48 8b 04 c5 68 56 41 	mov    0x415668(,%rax,8),%rax
  40f952:	00 
  40f953:	ff e0                	jmpq   *%rax
  40f955:	48 8b 84 24 a8 03 00 	mov    0x3a8(%rsp),%rax
  40f95c:	00 
  40f95d:	48 83 e8 01          	sub    $0x1,%rax
  40f961:	c6 00 01             	movb   $0x1,(%rax)
  40f964:	e9 cb 02 00 00       	jmpq   40fc34 <__cocheck__poison_environment+0x20d4>
  40f969:	48 8b 84 24 a8 03 00 	mov    0x3a8(%rsp),%rax
  40f970:	00 
  40f971:	48 83 e8 02          	sub    $0x2,%rax
  40f975:	66 c7 00 02 01       	movw   $0x102,(%rax)
  40f97a:	e9 b5 02 00 00       	jmpq   40fc34 <__cocheck__poison_environment+0x20d4>
  40f97f:	48 8b 84 24 a8 03 00 	mov    0x3a8(%rsp),%rax
  40f986:	00 
  40f987:	48 83 e8 01          	sub    $0x1,%rax
  40f98b:	c6 00 01             	movb   $0x1,(%rax)
  40f98e:	48 8b 84 24 a8 03 00 	mov    0x3a8(%rsp),%rax
  40f995:	00 
  40f996:	48 83 e8 03          	sub    $0x3,%rax
  40f99a:	66 c7 00 02 02       	movw   $0x202,(%rax)
  40f99f:	e9 90 02 00 00       	jmpq   40fc34 <__cocheck__poison_environment+0x20d4>
  40f9a4:	48 8b 84 24 a8 03 00 	mov    0x3a8(%rsp),%rax
  40f9ab:	00 
  40f9ac:	48 83 e8 04          	sub    $0x4,%rax
  40f9b0:	c7 00 03 02 02 01    	movl   $0x1020203,(%rax)
  40f9b6:	e9 79 02 00 00       	jmpq   40fc34 <__cocheck__poison_environment+0x20d4>
  40f9bb:	48 8b 84 24 a8 03 00 	mov    0x3a8(%rsp),%rax
  40f9c2:	00 
  40f9c3:	48 83 e8 01          	sub    $0x1,%rax
  40f9c7:	c6 00 01             	movb   $0x1,(%rax)
  40f9ca:	48 8b 84 24 a8 03 00 	mov    0x3a8(%rsp),%rax
  40f9d1:	00 
  40f9d2:	48 83 e8 05          	sub    $0x5,%rax
  40f9d6:	c7 00 03 03 02 02    	movl   $0x2020303,(%rax)
  40f9dc:	e9 53 02 00 00       	jmpq   40fc34 <__cocheck__poison_environment+0x20d4>
  40f9e1:	48 8b 84 24 a8 03 00 	mov    0x3a8(%rsp),%rax
  40f9e8:	00 
  40f9e9:	48 83 e8 02          	sub    $0x2,%rax
  40f9ed:	66 c7 00 02 01       	movw   $0x102,(%rax)
  40f9f2:	48 8b 84 24 a8 03 00 	mov    0x3a8(%rsp),%rax
  40f9f9:	00 
  40f9fa:	48 83 e8 06          	sub    $0x6,%rax
  40f9fe:	c7 00 03 03 03 02    	movl   $0x2030303,(%rax)
  40fa04:	e9 2b 02 00 00       	jmpq   40fc34 <__cocheck__poison_environment+0x20d4>
  40fa09:	48 8b 84 24 a8 03 00 	mov    0x3a8(%rsp),%rax
  40fa10:	00 
  40fa11:	48 83 e8 01          	sub    $0x1,%rax
  40fa15:	c6 00 01             	movb   $0x1,(%rax)
  40fa18:	48 8b 84 24 a8 03 00 	mov    0x3a8(%rsp),%rax
  40fa1f:	00 
  40fa20:	48 83 e8 03          	sub    $0x3,%rax
  40fa24:	66 c7 00 02 02       	movw   $0x202,(%rax)
  40fa29:	48 8b 84 24 a8 03 00 	mov    0x3a8(%rsp),%rax
  40fa30:	00 
  40fa31:	48 83 e8 07          	sub    $0x7,%rax
  40fa35:	c7 00 03 03 03 03    	movl   $0x3030303,(%rax)
  40fa3b:	e9 f4 01 00 00       	jmpq   40fc34 <__cocheck__poison_environment+0x20d4>
  40fa40:	48 8b 84 24 a8 03 00 	mov    0x3a8(%rsp),%rax
  40fa47:	00 
  40fa48:	48 83 e8 08          	sub    $0x8,%rax
  40fa4c:	48 b9 04 03 03 03 03 	movabs $0x102020303030304,%rcx
  40fa53:	02 02 01 
  40fa56:	48 89 08             	mov    %rcx,(%rax)
  40fa59:	e9 d6 01 00 00       	jmpq   40fc34 <__cocheck__poison_environment+0x20d4>
  40fa5e:	48 8b 84 24 a8 03 00 	mov    0x3a8(%rsp),%rax
  40fa65:	00 
  40fa66:	48 83 e8 01          	sub    $0x1,%rax
  40fa6a:	c6 00 01             	movb   $0x1,(%rax)
  40fa6d:	48 8b 84 24 a8 03 00 	mov    0x3a8(%rsp),%rax
  40fa74:	00 
  40fa75:	48 83 e8 09          	sub    $0x9,%rax
  40fa79:	48 b9 04 04 03 03 03 	movabs $0x202030303030404,%rcx
  40fa80:	03 02 02 
  40fa83:	48 89 08             	mov    %rcx,(%rax)
  40fa86:	e9 a9 01 00 00       	jmpq   40fc34 <__cocheck__poison_environment+0x20d4>
  40fa8b:	48 8b 84 24 a8 03 00 	mov    0x3a8(%rsp),%rax
  40fa92:	00 
  40fa93:	48 83 e8 02          	sub    $0x2,%rax
  40fa97:	66 c7 00 02 01       	movw   $0x102,(%rax)
  40fa9c:	48 8b 84 24 a8 03 00 	mov    0x3a8(%rsp),%rax
  40faa3:	00 
  40faa4:	48 83 e8 0a          	sub    $0xa,%rax
  40faa8:	48 b9 04 04 04 03 03 	movabs $0x203030303040404,%rcx
  40faaf:	03 03 02 
  40fab2:	48 89 08             	mov    %rcx,(%rax)
  40fab5:	e9 7a 01 00 00       	jmpq   40fc34 <__cocheck__poison_environment+0x20d4>
  40faba:	48 8b 84 24 a8 03 00 	mov    0x3a8(%rsp),%rax
  40fac1:	00 
  40fac2:	48 83 e8 01          	sub    $0x1,%rax
  40fac6:	c6 00 01             	movb   $0x1,(%rax)
  40fac9:	48 8b 84 24 a8 03 00 	mov    0x3a8(%rsp),%rax
  40fad0:	00 
  40fad1:	48 83 e8 03          	sub    $0x3,%rax
  40fad5:	66 c7 00 02 02       	movw   $0x202,(%rax)
  40fada:	48 8b 84 24 a8 03 00 	mov    0x3a8(%rsp),%rax
  40fae1:	00 
  40fae2:	48 83 e8 0b          	sub    $0xb,%rax
  40fae6:	48 b9 04 04 04 04 03 	movabs $0x303030304040404,%rcx
  40faed:	03 03 03 
  40faf0:	48 89 08             	mov    %rcx,(%rax)
  40faf3:	e9 3c 01 00 00       	jmpq   40fc34 <__cocheck__poison_environment+0x20d4>
  40faf8:	48 8b 84 24 a8 03 00 	mov    0x3a8(%rsp),%rax
  40faff:	00 
  40fb00:	48 83 e8 04          	sub    $0x4,%rax
  40fb04:	c7 00 03 02 02 01    	movl   $0x1020203,(%rax)
  40fb0a:	48 8b 84 24 a8 03 00 	mov    0x3a8(%rsp),%rax
  40fb11:	00 
  40fb12:	48 83 e8 0c          	sub    $0xc,%rax
  40fb16:	48 b9 04 04 04 04 04 	movabs $0x303030404040404,%rcx
  40fb1d:	03 03 03 
  40fb20:	48 89 08             	mov    %rcx,(%rax)
  40fb23:	e9 0c 01 00 00       	jmpq   40fc34 <__cocheck__poison_environment+0x20d4>
  40fb28:	48 8b 84 24 a8 03 00 	mov    0x3a8(%rsp),%rax
  40fb2f:	00 
  40fb30:	48 83 e8 01          	sub    $0x1,%rax
  40fb34:	c6 00 01             	movb   $0x1,(%rax)
  40fb37:	48 8b 84 24 a8 03 00 	mov    0x3a8(%rsp),%rax
  40fb3e:	00 
  40fb3f:	48 83 e8 05          	sub    $0x5,%rax
  40fb43:	c7 00 03 03 02 02    	movl   $0x2020303,(%rax)
  40fb49:	48 8b 84 24 a8 03 00 	mov    0x3a8(%rsp),%rax
  40fb50:	00 
  40fb51:	48 83 e8 0d          	sub    $0xd,%rax
  40fb55:	48 b9 04 04 04 04 04 	movabs $0x303040404040404,%rcx
  40fb5c:	04 03 03 
  40fb5f:	48 89 08             	mov    %rcx,(%rax)
  40fb62:	e9 cd 00 00 00       	jmpq   40fc34 <__cocheck__poison_environment+0x20d4>
  40fb67:	48 8b 84 24 a8 03 00 	mov    0x3a8(%rsp),%rax
  40fb6e:	00 
  40fb6f:	48 83 e8 02          	sub    $0x2,%rax
  40fb73:	66 c7 00 02 01       	movw   $0x102,(%rax)
  40fb78:	48 8b 84 24 a8 03 00 	mov    0x3a8(%rsp),%rax
  40fb7f:	00 
  40fb80:	48 83 e8 06          	sub    $0x6,%rax
  40fb84:	c7 00 03 03 03 02    	movl   $0x2030303,(%rax)
  40fb8a:	48 8b 84 24 a8 03 00 	mov    0x3a8(%rsp),%rax
  40fb91:	00 
  40fb92:	48 83 e8 0e          	sub    $0xe,%rax
  40fb96:	48 b9 04 04 04 04 04 	movabs $0x304040404040404,%rcx
  40fb9d:	04 04 03 
  40fba0:	48 89 08             	mov    %rcx,(%rax)
  40fba3:	e9 8c 00 00 00       	jmpq   40fc34 <__cocheck__poison_environment+0x20d4>
  40fba8:	48 8b 84 24 a8 03 00 	mov    0x3a8(%rsp),%rax
  40fbaf:	00 
  40fbb0:	48 83 e8 01          	sub    $0x1,%rax
  40fbb4:	c6 00 01             	movb   $0x1,(%rax)
  40fbb7:	48 8b 84 24 a8 03 00 	mov    0x3a8(%rsp),%rax
  40fbbe:	00 
  40fbbf:	48 83 e8 03          	sub    $0x3,%rax
  40fbc3:	66 c7 00 02 02       	movw   $0x202,(%rax)
  40fbc8:	48 8b 84 24 a8 03 00 	mov    0x3a8(%rsp),%rax
  40fbcf:	00 
  40fbd0:	48 83 e8 07          	sub    $0x7,%rax
  40fbd4:	c7 00 03 03 03 03    	movl   $0x3030303,(%rax)
  40fbda:	48 8b 84 24 a8 03 00 	mov    0x3a8(%rsp),%rax
  40fbe1:	00 
  40fbe2:	48 83 e8 0f          	sub    $0xf,%rax
  40fbe6:	48 b9 04 04 04 04 04 	movabs $0x404040404040404,%rcx
  40fbed:	04 04 04 
  40fbf0:	48 89 08             	mov    %rcx,(%rax)
  40fbf3:	e9 3c 00 00 00       	jmpq   40fc34 <__cocheck__poison_environment+0x20d4>
  40fbf8:	48 8b 84 24 a8 03 00 	mov    0x3a8(%rsp),%rax
  40fbff:	00 
  40fc00:	48 83 e8 08          	sub    $0x8,%rax
  40fc04:	48 b9 04 03 03 03 03 	movabs $0x102020303030304,%rcx
  40fc0b:	02 02 01 
  40fc0e:	48 89 08             	mov    %rcx,(%rax)
  40fc11:	48 8b 84 24 a8 03 00 	mov    0x3a8(%rsp),%rax
  40fc18:	00 
  40fc19:	48 83 e8 10          	sub    $0x10,%rax
  40fc1d:	48 b9 05 04 04 04 04 	movabs $0x404040404040405,%rcx
  40fc24:	04 04 04 
  40fc27:	48 89 08             	mov    %rcx,(%rax)
  40fc2a:	e9 05 00 00 00       	jmpq   40fc34 <__cocheck__poison_environment+0x20d4>
  40fc2f:	e9 00 00 00 00       	jmpq   40fc34 <__cocheck__poison_environment+0x20d4>
  40fc34:	c7 84 24 9c 03 00 00 	movl   $0x1,0x39c(%rsp)
  40fc3b:	01 00 00 00 
  40fc3f:	e9 4b 01 00 00       	jmpq   40fd8f <__cocheck__poison_environment+0x222f>
  40fc44:	48 8b 84 24 a8 03 00 	mov    0x3a8(%rsp),%rax
  40fc4b:	00 
  40fc4c:	48 83 e8 08          	sub    $0x8,%rax
  40fc50:	48 b9 04 03 03 03 03 	movabs $0x102020303030304,%rcx
  40fc57:	02 02 01 
  40fc5a:	48 89 08             	mov    %rcx,(%rax)
  40fc5d:	48 8b 84 24 a8 03 00 	mov    0x3a8(%rsp),%rax
  40fc64:	00 
  40fc65:	48 83 e8 10          	sub    $0x10,%rax
  40fc69:	48 b9 05 04 04 04 04 	movabs $0x404040404040405,%rcx
  40fc70:	04 04 04 
  40fc73:	48 89 08             	mov    %rcx,(%rax)
  40fc76:	48 c7 84 24 90 03 00 	movq   $0x4,0x390(%rsp)
  40fc7d:	00 04 00 00 00 
  40fc82:	48 8b 84 24 a8 03 00 	mov    0x3a8(%rsp),%rax
  40fc89:	00 
  40fc8a:	48 8b 8c 24 90 03 00 	mov    0x390(%rsp),%rcx
  40fc91:	00 
  40fc92:	ba 01 00 00 00       	mov    $0x1,%edx
  40fc97:	d3 e2                	shl    %cl,%edx
  40fc99:	89 d1                	mov    %edx,%ecx
  40fc9b:	48 63 c9             	movslq %ecx,%rcx
  40fc9e:	48 29 c8             	sub    %rcx,%rax
  40fca1:	48 3b 84 24 b0 03 00 	cmp    0x3b0(%rsp),%rax
  40fca8:	00 
  40fca9:	0f 83 1b 00 00 00    	jae    40fcca <__cocheck__poison_environment+0x216a>
  40fcaf:	c7 84 24 9c 03 00 00 	movl   $0x3,0x39c(%rsp)
  40fcb6:	03 00 00 00 
  40fcba:	c7 84 24 9c 03 00 00 	movl   $0x0,0x39c(%rsp)
  40fcc1:	00 00 00 00 
  40fcc5:	e9 c5 00 00 00       	jmpq   40fd8f <__cocheck__poison_environment+0x222f>
  40fcca:	48 8b 84 24 a8 03 00 	mov    0x3a8(%rsp),%rax
  40fcd1:	00 
  40fcd2:	48 8b 8c 24 90 03 00 	mov    0x390(%rsp),%rcx
  40fcd9:	00 
  40fcda:	48 83 c1 01          	add    $0x1,%rcx
  40fcde:	ba 01 00 00 00       	mov    $0x1,%edx
  40fce3:	d3 e2                	shl    %cl,%edx
  40fce5:	89 d1                	mov    %edx,%ecx
  40fce7:	48 63 c9             	movslq %ecx,%rcx
  40fcea:	48 29 c8             	sub    %rcx,%rax
  40fced:	48 83 c0 01          	add    $0x1,%rax
  40fcf1:	48 89 84 24 88 03 00 	mov    %rax,0x388(%rsp)
  40fcf8:	00 
  40fcf9:	48 8b 84 24 a8 03 00 	mov    0x3a8(%rsp),%rax
  40fd00:	00 
  40fd01:	48 8b 8c 24 90 03 00 	mov    0x390(%rsp),%rcx
  40fd08:	00 
  40fd09:	ba 01 00 00 00       	mov    $0x1,%edx
  40fd0e:	d3 e2                	shl    %cl,%edx
  40fd10:	89 d1                	mov    %edx,%ecx
  40fd12:	48 63 c9             	movslq %ecx,%rcx
  40fd15:	48 29 c8             	sub    %rcx,%rax
  40fd18:	48 89 84 24 80 03 00 	mov    %rax,0x380(%rsp)
  40fd1f:	00 
  40fd20:	48 8b 84 24 88 03 00 	mov    0x388(%rsp),%rax
  40fd27:	00 
  40fd28:	48 3b 84 24 b0 03 00 	cmp    0x3b0(%rsp),%rax
  40fd2f:	00 
  40fd30:	0f 83 10 00 00 00    	jae    40fd46 <__cocheck__poison_environment+0x21e6>
  40fd36:	48 8b 84 24 b0 03 00 	mov    0x3b0(%rsp),%rax
  40fd3d:	00 
  40fd3e:	48 89 84 24 88 03 00 	mov    %rax,0x388(%rsp)
  40fd45:	00 
  40fd46:	48 8b bc 24 88 03 00 	mov    0x388(%rsp),%rdi
  40fd4d:	00 
  40fd4e:	48 8b 84 24 90 03 00 	mov    0x390(%rsp),%rax
  40fd55:	00 
  40fd56:	48 83 c0 01          	add    $0x1,%rax
  40fd5a:	48 8b 94 24 80 03 00 	mov    0x380(%rsp),%rdx
  40fd61:	00 
  40fd62:	48 2b 94 24 88 03 00 	sub    0x388(%rsp),%rdx
  40fd69:	00 
  40fd6a:	48 83 c2 01          	add    $0x1,%rdx
  40fd6e:	0f b6 f0             	movzbl %al,%esi
  40fd71:	e8 5a 13 ff ff       	callq  4010d0 <memset@plt>
  40fd76:	48 8b 84 24 90 03 00 	mov    0x390(%rsp),%rax
  40fd7d:	00 
  40fd7e:	48 83 c0 01          	add    $0x1,%rax
  40fd82:	48 89 84 24 90 03 00 	mov    %rax,0x390(%rsp)
  40fd89:	00 
  40fd8a:	e9 f3 fe ff ff       	jmpq   40fc82 <__cocheck__poison_environment+0x2122>
  40fd8f:	e9 35 00 00 00       	jmpq   40fdc9 <__cocheck__poison_environment+0x2269>
  40fd94:	48 8b 84 24 78 03 00 	mov    0x378(%rsp),%rax
  40fd9b:	00 
  40fd9c:	48 c1 e8 03          	shr    $0x3,%rax
  40fda0:	48 05 00 80 ff 7f    	add    $0x7fff8000,%rax
  40fda6:	48 89 84 24 50 03 00 	mov    %rax,0x350(%rsp)
  40fdad:	00 
  40fdae:	48 8b bc 24 50 03 00 	mov    0x350(%rsp),%rdi
  40fdb5:	00 
  40fdb6:	48 8b 94 24 70 03 00 	mov    0x370(%rsp),%rdx
  40fdbd:	00 
  40fdbe:	48 c1 ea 03          	shr    $0x3,%rdx
  40fdc2:	31 f6                	xor    %esi,%esi
  40fdc4:	e8 07 13 ff ff       	callq  4010d0 <memset@plt>
  40fdc9:	48 8b 84 24 40 02 00 	mov    0x240(%rsp),%rax
  40fdd0:	00 
  40fdd1:	48 3b 84 24 20 02 00 	cmp    0x220(%rsp),%rax
  40fdd8:	00 
  40fdd9:	0f 84 2e 06 00 00    	je     41040d <__cocheck__poison_environment+0x28ad>
  40fddf:	48 8b 8c 24 20 02 00 	mov    0x220(%rsp),%rcx
  40fde6:	00 
  40fde7:	48 8b 84 24 40 02 00 	mov    0x240(%rsp),%rax
  40fdee:	00 
  40fdef:	48 2b 84 24 20 02 00 	sub    0x220(%rsp),%rax
  40fdf6:	00 
  40fdf7:	48 89 8c 24 00 03 00 	mov    %rcx,0x300(%rsp)
  40fdfe:	00 
  40fdff:	48 89 84 24 f8 02 00 	mov    %rax,0x2f8(%rsp)
  40fe06:	00 
  40fe07:	c6 84 24 f7 02 00 00 	movb   $0x0,0x2f7(%rsp)
  40fe0e:	00 
  40fe0f:	48 8b 84 24 00 03 00 	mov    0x300(%rsp),%rax
  40fe16:	00 
  40fe17:	48 c1 e8 08          	shr    $0x8,%rax
  40fe1b:	48 89 84 24 e8 02 00 	mov    %rax,0x2e8(%rsp)
  40fe22:	00 
  40fe23:	48 8b 04 25 08 82 61 	mov    0x618208,%rax
  40fe2a:	00 
  40fe2b:	48 8b 8c 24 e8 02 00 	mov    0x2e8(%rsp),%rcx
  40fe32:	00 
  40fe33:	80 3c 08 00          	cmpb   $0x0,(%rax,%rcx,1)
  40fe37:	0f 85 49 00 00 00    	jne    40fe86 <__cocheck__poison_environment+0x2326>
  40fe3d:	48 8b 04 25 08 82 61 	mov    0x618208,%rax
  40fe44:	00 
  40fe45:	48 8b 8c 24 e8 02 00 	mov    0x2e8(%rsp),%rcx
  40fe4c:	00 
  40fe4d:	c6 04 08 01          	movb   $0x1,(%rax,%rcx,1)
  40fe51:	48 8b 84 24 e8 02 00 	mov    0x2e8(%rsp),%rax
  40fe58:	00 
  40fe59:	48 c1 e0 08          	shl    $0x8,%rax
  40fe5d:	48 c1 e8 03          	shr    $0x3,%rax
  40fe61:	48 05 00 80 ff 7f    	add    $0x7fff8000,%rax
  40fe67:	48 89 84 24 e0 02 00 	mov    %rax,0x2e0(%rsp)
  40fe6e:	00 
  40fe6f:	48 8b bc 24 e0 02 00 	mov    0x2e0(%rsp),%rdi
  40fe76:	00 
  40fe77:	be ff 00 00 00       	mov    $0xff,%esi
  40fe7c:	ba 20 00 00 00       	mov    $0x20,%edx
  40fe81:	e8 4a 12 ff ff       	callq  4010d0 <memset@plt>
  40fe86:	80 bc 24 f7 02 00 00 	cmpb   $0x0,0x2f7(%rsp)
  40fe8d:	00 
  40fe8e:	0f 85 f5 04 00 00    	jne    410389 <__cocheck__poison_environment+0x2829>
  40fe94:	48 8b 8c 24 00 03 00 	mov    0x300(%rsp),%rcx
  40fe9b:	00 
  40fe9c:	48 8b 84 24 f8 02 00 	mov    0x2f8(%rsp),%rax
  40fea3:	00 
  40fea4:	48 89 8c 24 48 03 00 	mov    %rcx,0x348(%rsp)
  40feab:	00 
  40feac:	48 89 84 24 40 03 00 	mov    %rax,0x340(%rsp)
  40feb3:	00 
  40feb4:	48 8b 84 24 48 03 00 	mov    0x348(%rsp),%rax
  40febb:	00 
  40febc:	48 c1 e8 03          	shr    $0x3,%rax
  40fec0:	48 05 00 80 ff 7f    	add    $0x7fff8000,%rax
  40fec6:	48 89 84 24 38 03 00 	mov    %rax,0x338(%rsp)
  40fecd:	00 
  40fece:	48 8b 84 24 48 03 00 	mov    0x348(%rsp),%rax
  40fed5:	00 
  40fed6:	48 03 84 24 40 03 00 	add    0x340(%rsp),%rax
  40fedd:	00 
  40fede:	48 83 e8 01          	sub    $0x1,%rax
  40fee2:	48 c1 e8 03          	shr    $0x3,%rax
  40fee6:	48 05 00 80 ff 7f    	add    $0x7fff8000,%rax
  40feec:	48 83 c0 01          	add    $0x1,%rax
  40fef0:	48 89 84 24 30 03 00 	mov    %rax,0x330(%rsp)
  40fef7:	00 
  40fef8:	48 81 bc 24 40 03 00 	cmpq   $0x80,0x340(%rsp)
  40feff:	00 80 00 00 00 
  40ff04:	0f 87 2f 03 00 00    	ja     410239 <__cocheck__poison_environment+0x26d9>
  40ff0a:	48 8b 84 24 40 03 00 	mov    0x340(%rsp),%rax
  40ff11:	00 
  40ff12:	48 83 c0 07          	add    $0x7,%rax
  40ff16:	48 c1 e8 03          	shr    $0x3,%rax
  40ff1a:	48 89 84 24 28 03 00 	mov    %rax,0x328(%rsp)
  40ff21:	00 
  40ff22:	48 8b 84 24 28 03 00 	mov    0x328(%rsp),%rax
  40ff29:	00 
  40ff2a:	48 83 c0 ff          	add    $0xffffffffffffffff,%rax
  40ff2e:	48 89 04 24          	mov    %rax,(%rsp)
  40ff32:	48 83 e8 0f          	sub    $0xf,%rax
  40ff36:	0f 87 e8 02 00 00    	ja     410224 <__cocheck__poison_environment+0x26c4>
  40ff3c:	48 8b 04 24          	mov    (%rsp),%rax
  40ff40:	48 8b 04 c5 e8 56 41 	mov    0x4156e8(,%rax,8),%rax
  40ff47:	00 
  40ff48:	ff e0                	jmpq   *%rax
  40ff4a:	48 8b 84 24 30 03 00 	mov    0x330(%rsp),%rax
  40ff51:	00 
  40ff52:	48 83 e8 01          	sub    $0x1,%rax
  40ff56:	c6 00 01             	movb   $0x1,(%rax)
  40ff59:	e9 cb 02 00 00       	jmpq   410229 <__cocheck__poison_environment+0x26c9>
  40ff5e:	48 8b 84 24 30 03 00 	mov    0x330(%rsp),%rax
  40ff65:	00 
  40ff66:	48 83 e8 02          	sub    $0x2,%rax
  40ff6a:	66 c7 00 02 01       	movw   $0x102,(%rax)
  40ff6f:	e9 b5 02 00 00       	jmpq   410229 <__cocheck__poison_environment+0x26c9>
  40ff74:	48 8b 84 24 30 03 00 	mov    0x330(%rsp),%rax
  40ff7b:	00 
  40ff7c:	48 83 e8 01          	sub    $0x1,%rax
  40ff80:	c6 00 01             	movb   $0x1,(%rax)
  40ff83:	48 8b 84 24 30 03 00 	mov    0x330(%rsp),%rax
  40ff8a:	00 
  40ff8b:	48 83 e8 03          	sub    $0x3,%rax
  40ff8f:	66 c7 00 02 02       	movw   $0x202,(%rax)
  40ff94:	e9 90 02 00 00       	jmpq   410229 <__cocheck__poison_environment+0x26c9>
  40ff99:	48 8b 84 24 30 03 00 	mov    0x330(%rsp),%rax
  40ffa0:	00 
  40ffa1:	48 83 e8 04          	sub    $0x4,%rax
  40ffa5:	c7 00 03 02 02 01    	movl   $0x1020203,(%rax)
  40ffab:	e9 79 02 00 00       	jmpq   410229 <__cocheck__poison_environment+0x26c9>
  40ffb0:	48 8b 84 24 30 03 00 	mov    0x330(%rsp),%rax
  40ffb7:	00 
  40ffb8:	48 83 e8 01          	sub    $0x1,%rax
  40ffbc:	c6 00 01             	movb   $0x1,(%rax)
  40ffbf:	48 8b 84 24 30 03 00 	mov    0x330(%rsp),%rax
  40ffc6:	00 
  40ffc7:	48 83 e8 05          	sub    $0x5,%rax
  40ffcb:	c7 00 03 03 02 02    	movl   $0x2020303,(%rax)
  40ffd1:	e9 53 02 00 00       	jmpq   410229 <__cocheck__poison_environment+0x26c9>
  40ffd6:	48 8b 84 24 30 03 00 	mov    0x330(%rsp),%rax
  40ffdd:	00 
  40ffde:	48 83 e8 02          	sub    $0x2,%rax
  40ffe2:	66 c7 00 02 01       	movw   $0x102,(%rax)
  40ffe7:	48 8b 84 24 30 03 00 	mov    0x330(%rsp),%rax
  40ffee:	00 
  40ffef:	48 83 e8 06          	sub    $0x6,%rax
  40fff3:	c7 00 03 03 03 02    	movl   $0x2030303,(%rax)
  40fff9:	e9 2b 02 00 00       	jmpq   410229 <__cocheck__poison_environment+0x26c9>
  40fffe:	48 8b 84 24 30 03 00 	mov    0x330(%rsp),%rax
  410005:	00 
  410006:	48 83 e8 01          	sub    $0x1,%rax
  41000a:	c6 00 01             	movb   $0x1,(%rax)
  41000d:	48 8b 84 24 30 03 00 	mov    0x330(%rsp),%rax
  410014:	00 
  410015:	48 83 e8 03          	sub    $0x3,%rax
  410019:	66 c7 00 02 02       	movw   $0x202,(%rax)
  41001e:	48 8b 84 24 30 03 00 	mov    0x330(%rsp),%rax
  410025:	00 
  410026:	48 83 e8 07          	sub    $0x7,%rax
  41002a:	c7 00 03 03 03 03    	movl   $0x3030303,(%rax)
  410030:	e9 f4 01 00 00       	jmpq   410229 <__cocheck__poison_environment+0x26c9>
  410035:	48 8b 84 24 30 03 00 	mov    0x330(%rsp),%rax
  41003c:	00 
  41003d:	48 83 e8 08          	sub    $0x8,%rax
  410041:	48 b9 04 03 03 03 03 	movabs $0x102020303030304,%rcx
  410048:	02 02 01 
  41004b:	48 89 08             	mov    %rcx,(%rax)
  41004e:	e9 d6 01 00 00       	jmpq   410229 <__cocheck__poison_environment+0x26c9>
  410053:	48 8b 84 24 30 03 00 	mov    0x330(%rsp),%rax
  41005a:	00 
  41005b:	48 83 e8 01          	sub    $0x1,%rax
  41005f:	c6 00 01             	movb   $0x1,(%rax)
  410062:	48 8b 84 24 30 03 00 	mov    0x330(%rsp),%rax
  410069:	00 
  41006a:	48 83 e8 09          	sub    $0x9,%rax
  41006e:	48 b9 04 04 03 03 03 	movabs $0x202030303030404,%rcx
  410075:	03 02 02 
  410078:	48 89 08             	mov    %rcx,(%rax)
  41007b:	e9 a9 01 00 00       	jmpq   410229 <__cocheck__poison_environment+0x26c9>
  410080:	48 8b 84 24 30 03 00 	mov    0x330(%rsp),%rax
  410087:	00 
  410088:	48 83 e8 02          	sub    $0x2,%rax
  41008c:	66 c7 00 02 01       	movw   $0x102,(%rax)
  410091:	48 8b 84 24 30 03 00 	mov    0x330(%rsp),%rax
  410098:	00 
  410099:	48 83 e8 0a          	sub    $0xa,%rax
  41009d:	48 b9 04 04 04 03 03 	movabs $0x203030303040404,%rcx
  4100a4:	03 03 02 
  4100a7:	48 89 08             	mov    %rcx,(%rax)
  4100aa:	e9 7a 01 00 00       	jmpq   410229 <__cocheck__poison_environment+0x26c9>
  4100af:	48 8b 84 24 30 03 00 	mov    0x330(%rsp),%rax
  4100b6:	00 
  4100b7:	48 83 e8 01          	sub    $0x1,%rax
  4100bb:	c6 00 01             	movb   $0x1,(%rax)
  4100be:	48 8b 84 24 30 03 00 	mov    0x330(%rsp),%rax
  4100c5:	00 
  4100c6:	48 83 e8 03          	sub    $0x3,%rax
  4100ca:	66 c7 00 02 02       	movw   $0x202,(%rax)
  4100cf:	48 8b 84 24 30 03 00 	mov    0x330(%rsp),%rax
  4100d6:	00 
  4100d7:	48 83 e8 0b          	sub    $0xb,%rax
  4100db:	48 b9 04 04 04 04 03 	movabs $0x303030304040404,%rcx
  4100e2:	03 03 03 
  4100e5:	48 89 08             	mov    %rcx,(%rax)
  4100e8:	e9 3c 01 00 00       	jmpq   410229 <__cocheck__poison_environment+0x26c9>
  4100ed:	48 8b 84 24 30 03 00 	mov    0x330(%rsp),%rax
  4100f4:	00 
  4100f5:	48 83 e8 04          	sub    $0x4,%rax
  4100f9:	c7 00 03 02 02 01    	movl   $0x1020203,(%rax)
  4100ff:	48 8b 84 24 30 03 00 	mov    0x330(%rsp),%rax
  410106:	00 
  410107:	48 83 e8 0c          	sub    $0xc,%rax
  41010b:	48 b9 04 04 04 04 04 	movabs $0x303030404040404,%rcx
  410112:	03 03 03 
  410115:	48 89 08             	mov    %rcx,(%rax)
  410118:	e9 0c 01 00 00       	jmpq   410229 <__cocheck__poison_environment+0x26c9>
  41011d:	48 8b 84 24 30 03 00 	mov    0x330(%rsp),%rax
  410124:	00 
  410125:	48 83 e8 01          	sub    $0x1,%rax
  410129:	c6 00 01             	movb   $0x1,(%rax)
  41012c:	48 8b 84 24 30 03 00 	mov    0x330(%rsp),%rax
  410133:	00 
  410134:	48 83 e8 05          	sub    $0x5,%rax
  410138:	c7 00 03 03 02 02    	movl   $0x2020303,(%rax)
  41013e:	48 8b 84 24 30 03 00 	mov    0x330(%rsp),%rax
  410145:	00 
  410146:	48 83 e8 0d          	sub    $0xd,%rax
  41014a:	48 b9 04 04 04 04 04 	movabs $0x303040404040404,%rcx
  410151:	04 03 03 
  410154:	48 89 08             	mov    %rcx,(%rax)
  410157:	e9 cd 00 00 00       	jmpq   410229 <__cocheck__poison_environment+0x26c9>
  41015c:	48 8b 84 24 30 03 00 	mov    0x330(%rsp),%rax
  410163:	00 
  410164:	48 83 e8 02          	sub    $0x2,%rax
  410168:	66 c7 00 02 01       	movw   $0x102,(%rax)
  41016d:	48 8b 84 24 30 03 00 	mov    0x330(%rsp),%rax
  410174:	00 
  410175:	48 83 e8 06          	sub    $0x6,%rax
  410179:	c7 00 03 03 03 02    	movl   $0x2030303,(%rax)
  41017f:	48 8b 84 24 30 03 00 	mov    0x330(%rsp),%rax
  410186:	00 
  410187:	48 83 e8 0e          	sub    $0xe,%rax
  41018b:	48 b9 04 04 04 04 04 	movabs $0x304040404040404,%rcx
  410192:	04 04 03 
  410195:	48 89 08             	mov    %rcx,(%rax)
  410198:	e9 8c 00 00 00       	jmpq   410229 <__cocheck__poison_environment+0x26c9>
  41019d:	48 8b 84 24 30 03 00 	mov    0x330(%rsp),%rax
  4101a4:	00 
  4101a5:	48 83 e8 01          	sub    $0x1,%rax
  4101a9:	c6 00 01             	movb   $0x1,(%rax)
  4101ac:	48 8b 84 24 30 03 00 	mov    0x330(%rsp),%rax
  4101b3:	00 
  4101b4:	48 83 e8 03          	sub    $0x3,%rax
  4101b8:	66 c7 00 02 02       	movw   $0x202,(%rax)
  4101bd:	48 8b 84 24 30 03 00 	mov    0x330(%rsp),%rax
  4101c4:	00 
  4101c5:	48 83 e8 07          	sub    $0x7,%rax
  4101c9:	c7 00 03 03 03 03    	movl   $0x3030303,(%rax)
  4101cf:	48 8b 84 24 30 03 00 	mov    0x330(%rsp),%rax
  4101d6:	00 
  4101d7:	48 83 e8 0f          	sub    $0xf,%rax
  4101db:	48 b9 04 04 04 04 04 	movabs $0x404040404040404,%rcx
  4101e2:	04 04 04 
  4101e5:	48 89 08             	mov    %rcx,(%rax)
  4101e8:	e9 3c 00 00 00       	jmpq   410229 <__cocheck__poison_environment+0x26c9>
  4101ed:	48 8b 84 24 30 03 00 	mov    0x330(%rsp),%rax
  4101f4:	00 
  4101f5:	48 83 e8 08          	sub    $0x8,%rax
  4101f9:	48 b9 04 03 03 03 03 	movabs $0x102020303030304,%rcx
  410200:	02 02 01 
  410203:	48 89 08             	mov    %rcx,(%rax)
  410206:	48 8b 84 24 30 03 00 	mov    0x330(%rsp),%rax
  41020d:	00 
  41020e:	48 83 e8 10          	sub    $0x10,%rax
  410212:	48 b9 05 04 04 04 04 	movabs $0x404040404040405,%rcx
  410219:	04 04 04 
  41021c:	48 89 08             	mov    %rcx,(%rax)
  41021f:	e9 05 00 00 00       	jmpq   410229 <__cocheck__poison_environment+0x26c9>
  410224:	e9 00 00 00 00       	jmpq   410229 <__cocheck__poison_environment+0x26c9>
  410229:	c7 84 24 24 03 00 00 	movl   $0x1,0x324(%rsp)
  410230:	01 00 00 00 
  410234:	e9 4b 01 00 00       	jmpq   410384 <__cocheck__poison_environment+0x2824>
  410239:	48 8b 84 24 30 03 00 	mov    0x330(%rsp),%rax
  410240:	00 
  410241:	48 83 e8 08          	sub    $0x8,%rax
  410245:	48 b9 04 03 03 03 03 	movabs $0x102020303030304,%rcx
  41024c:	02 02 01 
  41024f:	48 89 08             	mov    %rcx,(%rax)
  410252:	48 8b 84 24 30 03 00 	mov    0x330(%rsp),%rax
  410259:	00 
  41025a:	48 83 e8 10          	sub    $0x10,%rax
  41025e:	48 b9 05 04 04 04 04 	movabs $0x404040404040405,%rcx
  410265:	04 04 04 
  410268:	48 89 08             	mov    %rcx,(%rax)
  41026b:	48 c7 84 24 18 03 00 	movq   $0x4,0x318(%rsp)
  410272:	00 04 00 00 00 
  410277:	48 8b 84 24 30 03 00 	mov    0x330(%rsp),%rax
  41027e:	00 
  41027f:	48 8b 8c 24 18 03 00 	mov    0x318(%rsp),%rcx
  410286:	00 
  410287:	ba 01 00 00 00       	mov    $0x1,%edx
  41028c:	d3 e2                	shl    %cl,%edx
  41028e:	89 d1                	mov    %edx,%ecx
  410290:	48 63 c9             	movslq %ecx,%rcx
  410293:	48 29 c8             	sub    %rcx,%rax
  410296:	48 3b 84 24 38 03 00 	cmp    0x338(%rsp),%rax
  41029d:	00 
  41029e:	0f 83 1b 00 00 00    	jae    4102bf <__cocheck__poison_environment+0x275f>
  4102a4:	c7 84 24 24 03 00 00 	movl   $0x3,0x324(%rsp)
  4102ab:	03 00 00 00 
  4102af:	c7 84 24 24 03 00 00 	movl   $0x0,0x324(%rsp)
  4102b6:	00 00 00 00 
  4102ba:	e9 c5 00 00 00       	jmpq   410384 <__cocheck__poison_environment+0x2824>
  4102bf:	48 8b 84 24 30 03 00 	mov    0x330(%rsp),%rax
  4102c6:	00 
  4102c7:	48 8b 8c 24 18 03 00 	mov    0x318(%rsp),%rcx
  4102ce:	00 
  4102cf:	48 83 c1 01          	add    $0x1,%rcx
  4102d3:	ba 01 00 00 00       	mov    $0x1,%edx
  4102d8:	d3 e2                	shl    %cl,%edx
  4102da:	89 d1                	mov    %edx,%ecx
  4102dc:	48 63 c9             	movslq %ecx,%rcx
  4102df:	48 29 c8             	sub    %rcx,%rax
  4102e2:	48 83 c0 01          	add    $0x1,%rax
  4102e6:	48 89 84 24 10 03 00 	mov    %rax,0x310(%rsp)
  4102ed:	00 
  4102ee:	48 8b 84 24 30 03 00 	mov    0x330(%rsp),%rax
  4102f5:	00 
  4102f6:	48 8b 8c 24 18 03 00 	mov    0x318(%rsp),%rcx
  4102fd:	00 
  4102fe:	ba 01 00 00 00       	mov    $0x1,%edx
  410303:	d3 e2                	shl    %cl,%edx
  410305:	89 d1                	mov    %edx,%ecx
  410307:	48 63 c9             	movslq %ecx,%rcx
  41030a:	48 29 c8             	sub    %rcx,%rax
  41030d:	48 89 84 24 08 03 00 	mov    %rax,0x308(%rsp)
  410314:	00 
  410315:	48 8b 84 24 10 03 00 	mov    0x310(%rsp),%rax
  41031c:	00 
  41031d:	48 3b 84 24 38 03 00 	cmp    0x338(%rsp),%rax
  410324:	00 
  410325:	0f 83 10 00 00 00    	jae    41033b <__cocheck__poison_environment+0x27db>
  41032b:	48 8b 84 24 38 03 00 	mov    0x338(%rsp),%rax
  410332:	00 
  410333:	48 89 84 24 10 03 00 	mov    %rax,0x310(%rsp)
  41033a:	00 
  41033b:	48 8b bc 24 10 03 00 	mov    0x310(%rsp),%rdi
  410342:	00 
  410343:	48 8b 84 24 18 03 00 	mov    0x318(%rsp),%rax
  41034a:	00 
  41034b:	48 83 c0 01          	add    $0x1,%rax
  41034f:	48 8b 94 24 08 03 00 	mov    0x308(%rsp),%rdx
  410356:	00 
  410357:	48 2b 94 24 10 03 00 	sub    0x310(%rsp),%rdx
  41035e:	00 
  41035f:	48 83 c2 01          	add    $0x1,%rdx
  410363:	0f b6 f0             	movzbl %al,%esi
  410366:	e8 65 0d ff ff       	callq  4010d0 <memset@plt>
  41036b:	48 8b 84 24 18 03 00 	mov    0x318(%rsp),%rax
  410372:	00 
  410373:	48 83 c0 01          	add    $0x1,%rax
  410377:	48 89 84 24 18 03 00 	mov    %rax,0x318(%rsp)
  41037e:	00 
  41037f:	e9 f3 fe ff ff       	jmpq   410277 <__cocheck__poison_environment+0x2717>
  410384:	e9 35 00 00 00       	jmpq   4103be <__cocheck__poison_environment+0x285e>
  410389:	48 8b 84 24 00 03 00 	mov    0x300(%rsp),%rax
  410390:	00 
  410391:	48 c1 e8 03          	shr    $0x3,%rax
  410395:	48 05 00 80 ff 7f    	add    $0x7fff8000,%rax
  41039b:	48 89 84 24 d8 02 00 	mov    %rax,0x2d8(%rsp)
  4103a2:	00 
  4103a3:	48 8b bc 24 d8 02 00 	mov    0x2d8(%rsp),%rdi
  4103aa:	00 
  4103ab:	48 8b 94 24 f8 02 00 	mov    0x2f8(%rsp),%rdx
  4103b2:	00 
  4103b3:	48 c1 ea 03          	shr    $0x3,%rdx
  4103b7:	31 f6                	xor    %esi,%esi
  4103b9:	e8 12 0d ff ff       	callq  4010d0 <memset@plt>
  4103be:	48 8b 84 24 50 02 00 	mov    0x250(%rsp),%rax
  4103c5:	00 
  4103c6:	48 83 e0 07          	and    $0x7,%rax
  4103ca:	48 83 f8 00          	cmp    $0x0,%rax
  4103ce:	0f 84 34 00 00 00    	je     410408 <__cocheck__poison_environment+0x28a8>
  4103d4:	48 8b 84 24 50 02 00 	mov    0x250(%rsp),%rax
  4103db:	00 
  4103dc:	48 83 e0 07          	and    $0x7,%rax
  4103e0:	ba 08 00 00 00       	mov    $0x8,%edx
  4103e5:	48 29 c2             	sub    %rax,%rdx
  4103e8:	48 c1 e2 05          	shl    $0x5,%rdx
  4103ec:	48 8b 84 24 40 02 00 	mov    0x240(%rsp),%rax
  4103f3:	00 
  4103f4:	48 c1 e8 03          	shr    $0x3,%rax
  4103f8:	0f b6 88 00 80 ff 7f 	movzbl 0x7fff8000(%rax),%ecx
  4103ff:	48 01 d1             	add    %rdx,%rcx
  410402:	88 88 00 80 ff 7f    	mov    %cl,0x7fff8000(%rax)
  410408:	e9 00 00 00 00       	jmpq   41040d <__cocheck__poison_environment+0x28ad>
  41040d:	e9 00 00 00 00       	jmpq   410412 <__cocheck__poison_environment+0x28b2>
  410412:	48 8b 3c 25 60 83 61 	mov    0x618360,%rdi
  410419:	00 
  41041a:	48 8b 54 24 58       	mov    0x58(%rsp),%rdx
  41041f:	48 8b 4c 24 50       	mov    0x50(%rsp),%rcx
  410424:	4c 8b 44 24 40       	mov    0x40(%rsp),%r8
  410429:	48 be 8c 5b 41 00 00 	movabs $0x415b8c,%rsi
  410430:	00 00 00 
  410433:	b0 00                	mov    $0x0,%al
  410435:	e8 16 0e ff ff       	callq  401250 <fprintf@plt>
  41043a:	48 81 c4 c8 03 00 00 	add    $0x3c8,%rsp
  410441:	c3                   	retq   
  410442:	66 2e 0f 1f 84 00 00 	nopw   %cs:0x0(%rax,%rax,1)
  410449:	00 00 00 
  41044c:	0f 1f 40 00          	nopl   0x0(%rax)

0000000000410450 <_ZL22__cocheck__init_systemiPPcS0_>:
  410450:	48 81 ec c8 03 00 00 	sub    $0x3c8,%rsp
  410457:	89 7c 24 44          	mov    %edi,0x44(%rsp)
  41045b:	48 89 74 24 38       	mov    %rsi,0x38(%rsp)
  410460:	48 89 54 24 30       	mov    %rdx,0x30(%rsp)
  410465:	48 8b 3c 25 60 83 61 	mov    0x618360,%rdi
  41046c:	00 
  41046d:	48 be d6 5b 41 00 00 	movabs $0x415bd6,%rsi
  410474:	00 00 00 
  410477:	b0 00                	mov    $0x0,%al
  410479:	e8 d2 0d ff ff       	callq  401250 <fprintf@plt>
  41047e:	48 8b 3c 25 60 83 61 	mov    0x618360,%rdi
  410485:	00 
  410486:	8b 54 24 44          	mov    0x44(%rsp),%edx
  41048a:	48 be ef 5b 41 00 00 	movabs $0x415bef,%rsi
  410491:	00 00 00 
  410494:	b0 00                	mov    $0x0,%al
  410496:	e8 b5 0d ff ff       	callq  401250 <fprintf@plt>
  41049b:	48 8b 3c 25 60 83 61 	mov    0x618360,%rdi
  4104a2:	00 
  4104a3:	48 be 16 5c 41 00 00 	movabs $0x415c16,%rsi
  4104aa:	00 00 00 
  4104ad:	48 ba 00 00 00 00 00 	movabs $0x100000000000,%rdx
  4104b4:	10 00 00 
  4104b7:	48 b9 00 00 00 00 00 	movabs $0x20000000000,%rcx
  4104be:	02 00 00 
  4104c1:	49 b8 00 00 00 00 80 	movabs $0x8000000000,%r8
  4104c8:	00 00 00 
  4104cb:	b0 00                	mov    $0x0,%al
  4104cd:	e8 7e 0d ff ff       	callq  401250 <fprintf@plt>
  4104d2:	48 8b 3c 25 60 83 61 	mov    0x618360,%rdi
  4104d9:	00 
  4104da:	48 be 45 5c 41 00 00 	movabs $0x415c45,%rsi
  4104e1:	00 00 00 
  4104e4:	ba 00 80 ff 7f       	mov    $0x7fff8000,%edx
  4104e9:	48 b9 00 80 ff 7f 00 	movabs $0x10007fff8000,%rcx
  4104f0:	10 00 00 
  4104f3:	49 b8 00 80 ff 7f 00 	movabs $0x12007fff8000,%r8
  4104fa:	12 00 00 
  4104fd:	b0 00                	mov    $0x0,%al
  4104ff:	e8 4c 0d ff ff       	callq  401250 <fprintf@plt>
  410504:	48 8b 3c 25 60 83 61 	mov    0x618360,%rdi
  41050b:	00 
  41050c:	48 be 71 5c 41 00 00 	movabs $0x415c71,%rsi
  410513:	00 00 00 
  410516:	ba 00 80 ff 7f       	mov    $0x7fff8000,%edx
  41051b:	48 b9 00 80 ff 7f 80 	movabs $0x12807fff8000,%rcx
  410522:	12 00 00 
  410525:	b0 00                	mov    $0x0,%al
  410527:	e8 24 0d ff ff       	callq  401250 <fprintf@plt>
  41052c:	48 c7 44 24 60 00 80 	movq   $0x7fff8000,0x60(%rsp)
  410533:	ff 7f 
  410535:	48 b8 00 00 00 00 80 	movabs $0x128000000000,%rax
  41053c:	12 00 00 
  41053f:	48 89 44 24 58       	mov    %rax,0x58(%rsp)
  410544:	c7 44 24 54 32 40 00 	movl   $0x4032,0x54(%rsp)
  41054b:	00 
  41054c:	48 8b 44 24 60       	mov    0x60(%rsp),%rax
  410551:	48 25 ff 0f 00 00    	and    $0xfff,%rax
  410557:	48 83 f8 00          	cmp    $0x0,%rax
  41055b:	0f 85 1a 00 00 00    	jne    41057b <_ZL22__cocheck__init_systemiPPcS0_+0x12b>
  410561:	48 8b 44 24 58       	mov    0x58(%rsp),%rax
  410566:	48 25 ff 0f 00 00    	and    $0xfff,%rax
  41056c:	48 83 f8 00          	cmp    $0x0,%rax
  410570:	0f 84 55 00 00 00    	je     4105cb <_ZL22__cocheck__init_systemiPPcS0_+0x17b>
  410576:	e9 28 00 00 00       	jmpq   4105a3 <_ZL22__cocheck__init_systemiPPcS0_+0x153>
  41057b:	48 bf 85 5c 41 00 00 	movabs $0x415c85,%rdi
  410582:	00 00 00 
  410585:	48 be ab 5c 41 00 00 	movabs $0x415cab,%rsi
  41058c:	00 00 00 
  41058f:	ba c2 00 00 00       	mov    $0xc2,%edx
  410594:	48 b9 d2 5c 41 00 00 	movabs $0x415cd2,%rcx
  41059b:	00 00 00 
  41059e:	e8 5d 0b ff ff       	callq  401100 <__assert_fail@plt>
  4105a3:	48 bf ff 5c 41 00 00 	movabs $0x415cff,%rdi
  4105aa:	00 00 00 
  4105ad:	48 be ab 5c 41 00 00 	movabs $0x415cab,%rsi
  4105b4:	00 00 00 
  4105b7:	ba c3 00 00 00       	mov    $0xc3,%edx
  4105bc:	48 b9 d2 5c 41 00 00 	movabs $0x415cd2,%rcx
  4105c3:	00 00 00 
  4105c6:	e8 35 0b ff ff       	callq  401100 <__assert_fail@plt>
  4105cb:	48 8b 44 24 58       	mov    0x58(%rsp),%rax
  4105d0:	48 05 00 10 00 00    	add    $0x1000,%rax
  4105d6:	48 83 e8 01          	sub    $0x1,%rax
  4105da:	48 c1 e8 0c          	shr    $0xc,%rax
  4105de:	48 c1 e0 0c          	shl    $0xc,%rax
  4105e2:	48 89 44 24 58       	mov    %rax,0x58(%rsp)
  4105e7:	48 8b 7c 24 60       	mov    0x60(%rsp),%rdi
  4105ec:	48 81 e7 00 f0 ff ff 	and    $0xfffffffffffff000,%rdi
  4105f3:	48 8b 74 24 58       	mov    0x58(%rsp),%rsi
  4105f8:	8b 4c 24 54          	mov    0x54(%rsp),%ecx
  4105fc:	ba 03 00 00 00       	mov    $0x3,%edx
  410601:	41 b8 ff ff ff ff    	mov    $0xffffffff,%r8d
  410607:	31 c0                	xor    %eax,%eax
  410609:	41 89 c1             	mov    %eax,%r9d
  41060c:	e8 cf 0c ff ff       	callq  4012e0 <mmap@plt>
  410611:	48 89 44 24 48       	mov    %rax,0x48(%rsp)
  410616:	8b 7c 24 44          	mov    0x44(%rsp),%edi
  41061a:	48 8b 74 24 38       	mov    0x38(%rsp),%rsi
  41061f:	48 8b 54 24 30       	mov    0x30(%rsp),%rdx
  410624:	e8 37 d5 ff ff       	callq  40db60 <__cocheck__poison_environment>
  410629:	48 b8 40 82 61 00 00 	movabs $0x618240,%rax
  410630:	00 00 00 
  410633:	48 89 84 24 a8 00 00 	mov    %rax,0xa8(%rsp)
  41063a:	00 
  41063b:	48 c7 84 24 a0 00 00 	movq   $0x110,0xa0(%rsp)
  410642:	00 10 01 00 00 
  410647:	48 8b 84 24 a8 00 00 	mov    0xa8(%rsp),%rax
  41064e:	00 
  41064f:	48 89 84 24 98 00 00 	mov    %rax,0x98(%rsp)
  410656:	00 
  410657:	48 8b 84 24 98 00 00 	mov    0x98(%rsp),%rax
  41065e:	00 
  41065f:	48 03 84 24 a0 00 00 	add    0xa0(%rsp),%rax
  410666:	00 
  410667:	48 89 84 24 90 00 00 	mov    %rax,0x90(%rsp)
  41066e:	00 
  41066f:	48 8b 84 24 98 00 00 	mov    0x98(%rsp),%rax
  410676:	00 
  410677:	48 c1 e8 08          	shr    $0x8,%rax
  41067b:	48 89 84 24 88 00 00 	mov    %rax,0x88(%rsp)
  410682:	00 
  410683:	48 8b 84 24 88 00 00 	mov    0x88(%rsp),%rax
  41068a:	00 
  41068b:	48 c1 e0 08          	shl    $0x8,%rax
  41068f:	48 89 84 24 80 00 00 	mov    %rax,0x80(%rsp)
  410696:	00 
  410697:	48 8b 84 24 90 00 00 	mov    0x90(%rsp),%rax
  41069e:	00 
  41069f:	48 c1 e8 08          	shr    $0x8,%rax
  4106a3:	48 89 44 24 78       	mov    %rax,0x78(%rsp)
  4106a8:	48 8b 44 24 78       	mov    0x78(%rsp),%rax
  4106ad:	48 c1 e0 08          	shl    $0x8,%rax
  4106b1:	48 89 44 24 70       	mov    %rax,0x70(%rsp)
  4106b6:	48 8b 84 24 88 00 00 	mov    0x88(%rsp),%rax
  4106bd:	00 
  4106be:	48 3b 44 24 78       	cmp    0x78(%rsp),%rax
  4106c3:	0f 85 28 06 00 00    	jne    410cf1 <_ZL22__cocheck__init_systemiPPcS0_+0x8a1>
  4106c9:	48 8b 8c 24 a8 00 00 	mov    0xa8(%rsp),%rcx
  4106d0:	00 
  4106d1:	48 8b 84 24 a0 00 00 	mov    0xa0(%rsp),%rax
  4106d8:	00 
  4106d9:	48 89 8c 24 d8 00 00 	mov    %rcx,0xd8(%rsp)
  4106e0:	00 
  4106e1:	48 89 84 24 d0 00 00 	mov    %rax,0xd0(%rsp)
  4106e8:	00 
  4106e9:	c6 84 24 cf 00 00 00 	movb   $0x0,0xcf(%rsp)
  4106f0:	00 
  4106f1:	48 8b 84 24 d8 00 00 	mov    0xd8(%rsp),%rax
  4106f8:	00 
  4106f9:	48 c1 e8 08          	shr    $0x8,%rax
  4106fd:	48 89 84 24 c0 00 00 	mov    %rax,0xc0(%rsp)
  410704:	00 
  410705:	48 8b 04 25 08 82 61 	mov    0x618208,%rax
  41070c:	00 
  41070d:	48 8b 8c 24 c0 00 00 	mov    0xc0(%rsp),%rcx
  410714:	00 
  410715:	80 3c 08 00          	cmpb   $0x0,(%rax,%rcx,1)
  410719:	0f 85 49 00 00 00    	jne    410768 <_ZL22__cocheck__init_systemiPPcS0_+0x318>
  41071f:	48 8b 04 25 08 82 61 	mov    0x618208,%rax
  410726:	00 
  410727:	48 8b 8c 24 c0 00 00 	mov    0xc0(%rsp),%rcx
  41072e:	00 
  41072f:	c6 04 08 01          	movb   $0x1,(%rax,%rcx,1)
  410733:	48 8b 84 24 c0 00 00 	mov    0xc0(%rsp),%rax
  41073a:	00 
  41073b:	48 c1 e0 08          	shl    $0x8,%rax
  41073f:	48 c1 e8 03          	shr    $0x3,%rax
  410743:	48 05 00 80 ff 7f    	add    $0x7fff8000,%rax
  410749:	48 89 84 24 b8 00 00 	mov    %rax,0xb8(%rsp)
  410750:	00 
  410751:	48 8b bc 24 b8 00 00 	mov    0xb8(%rsp),%rdi
  410758:	00 
  410759:	be ff 00 00 00       	mov    $0xff,%esi
  41075e:	ba 20 00 00 00       	mov    $0x20,%edx
  410763:	e8 68 09 ff ff       	callq  4010d0 <memset@plt>
  410768:	80 bc 24 cf 00 00 00 	cmpb   $0x0,0xcf(%rsp)
  41076f:	00 
  410770:	0f 85 f7 04 00 00    	jne    410c6d <_ZL22__cocheck__init_systemiPPcS0_+0x81d>
  410776:	48 8b 8c 24 d8 00 00 	mov    0xd8(%rsp),%rcx
  41077d:	00 
  41077e:	48 8b 84 24 d0 00 00 	mov    0xd0(%rsp),%rax
  410785:	00 
  410786:	48 89 8c 24 20 01 00 	mov    %rcx,0x120(%rsp)
  41078d:	00 
  41078e:	48 89 84 24 18 01 00 	mov    %rax,0x118(%rsp)
  410795:	00 
  410796:	48 8b 84 24 20 01 00 	mov    0x120(%rsp),%rax
  41079d:	00 
  41079e:	48 c1 e8 03          	shr    $0x3,%rax
  4107a2:	48 05 00 80 ff 7f    	add    $0x7fff8000,%rax
  4107a8:	48 89 84 24 10 01 00 	mov    %rax,0x110(%rsp)
  4107af:	00 
  4107b0:	48 8b 84 24 20 01 00 	mov    0x120(%rsp),%rax
  4107b7:	00 
  4107b8:	48 03 84 24 18 01 00 	add    0x118(%rsp),%rax
  4107bf:	00 
  4107c0:	48 83 e8 01          	sub    $0x1,%rax
  4107c4:	48 c1 e8 03          	shr    $0x3,%rax
  4107c8:	48 05 00 80 ff 7f    	add    $0x7fff8000,%rax
  4107ce:	48 83 c0 01          	add    $0x1,%rax
  4107d2:	48 89 84 24 08 01 00 	mov    %rax,0x108(%rsp)
  4107d9:	00 
  4107da:	48 81 bc 24 18 01 00 	cmpq   $0x80,0x118(%rsp)
  4107e1:	00 80 00 00 00 
  4107e6:	0f 87 31 03 00 00    	ja     410b1d <_ZL22__cocheck__init_systemiPPcS0_+0x6cd>
  4107ec:	48 8b 84 24 18 01 00 	mov    0x118(%rsp),%rax
  4107f3:	00 
  4107f4:	48 83 c0 07          	add    $0x7,%rax
  4107f8:	48 c1 e8 03          	shr    $0x3,%rax
  4107fc:	48 89 84 24 00 01 00 	mov    %rax,0x100(%rsp)
  410803:	00 
  410804:	48 8b 84 24 00 01 00 	mov    0x100(%rsp),%rax
  41080b:	00 
  41080c:	48 83 c0 ff          	add    $0xffffffffffffffff,%rax
  410810:	48 89 44 24 28       	mov    %rax,0x28(%rsp)
  410815:	48 83 e8 0f          	sub    $0xf,%rax
  410819:	0f 87 e9 02 00 00    	ja     410b08 <_ZL22__cocheck__init_systemiPPcS0_+0x6b8>
  41081f:	48 8b 44 24 28       	mov    0x28(%rsp),%rax
  410824:	48 8b 04 c5 e8 58 41 	mov    0x4158e8(,%rax,8),%rax
  41082b:	00 
  41082c:	ff e0                	jmpq   *%rax
  41082e:	48 8b 84 24 08 01 00 	mov    0x108(%rsp),%rax
  410835:	00 
  410836:	48 83 e8 01          	sub    $0x1,%rax
  41083a:	c6 00 01             	movb   $0x1,(%rax)
  41083d:	e9 cb 02 00 00       	jmpq   410b0d <_ZL22__cocheck__init_systemiPPcS0_+0x6bd>
  410842:	48 8b 84 24 08 01 00 	mov    0x108(%rsp),%rax
  410849:	00 
  41084a:	48 83 e8 02          	sub    $0x2,%rax
  41084e:	66 c7 00 02 01       	movw   $0x102,(%rax)
  410853:	e9 b5 02 00 00       	jmpq   410b0d <_ZL22__cocheck__init_systemiPPcS0_+0x6bd>
  410858:	48 8b 84 24 08 01 00 	mov    0x108(%rsp),%rax
  41085f:	00 
  410860:	48 83 e8 01          	sub    $0x1,%rax
  410864:	c6 00 01             	movb   $0x1,(%rax)
  410867:	48 8b 84 24 08 01 00 	mov    0x108(%rsp),%rax
  41086e:	00 
  41086f:	48 83 e8 03          	sub    $0x3,%rax
  410873:	66 c7 00 02 02       	movw   $0x202,(%rax)
  410878:	e9 90 02 00 00       	jmpq   410b0d <_ZL22__cocheck__init_systemiPPcS0_+0x6bd>
  41087d:	48 8b 84 24 08 01 00 	mov    0x108(%rsp),%rax
  410884:	00 
  410885:	48 83 e8 04          	sub    $0x4,%rax
  410889:	c7 00 03 02 02 01    	movl   $0x1020203,(%rax)
  41088f:	e9 79 02 00 00       	jmpq   410b0d <_ZL22__cocheck__init_systemiPPcS0_+0x6bd>
  410894:	48 8b 84 24 08 01 00 	mov    0x108(%rsp),%rax
  41089b:	00 
  41089c:	48 83 e8 01          	sub    $0x1,%rax
  4108a0:	c6 00 01             	movb   $0x1,(%rax)
  4108a3:	48 8b 84 24 08 01 00 	mov    0x108(%rsp),%rax
  4108aa:	00 
  4108ab:	48 83 e8 05          	sub    $0x5,%rax
  4108af:	c7 00 03 03 02 02    	movl   $0x2020303,(%rax)
  4108b5:	e9 53 02 00 00       	jmpq   410b0d <_ZL22__cocheck__init_systemiPPcS0_+0x6bd>
  4108ba:	48 8b 84 24 08 01 00 	mov    0x108(%rsp),%rax
  4108c1:	00 
  4108c2:	48 83 e8 02          	sub    $0x2,%rax
  4108c6:	66 c7 00 02 01       	movw   $0x102,(%rax)
  4108cb:	48 8b 84 24 08 01 00 	mov    0x108(%rsp),%rax
  4108d2:	00 
  4108d3:	48 83 e8 06          	sub    $0x6,%rax
  4108d7:	c7 00 03 03 03 02    	movl   $0x2030303,(%rax)
  4108dd:	e9 2b 02 00 00       	jmpq   410b0d <_ZL22__cocheck__init_systemiPPcS0_+0x6bd>
  4108e2:	48 8b 84 24 08 01 00 	mov    0x108(%rsp),%rax
  4108e9:	00 
  4108ea:	48 83 e8 01          	sub    $0x1,%rax
  4108ee:	c6 00 01             	movb   $0x1,(%rax)
  4108f1:	48 8b 84 24 08 01 00 	mov    0x108(%rsp),%rax
  4108f8:	00 
  4108f9:	48 83 e8 03          	sub    $0x3,%rax
  4108fd:	66 c7 00 02 02       	movw   $0x202,(%rax)
  410902:	48 8b 84 24 08 01 00 	mov    0x108(%rsp),%rax
  410909:	00 
  41090a:	48 83 e8 07          	sub    $0x7,%rax
  41090e:	c7 00 03 03 03 03    	movl   $0x3030303,(%rax)
  410914:	e9 f4 01 00 00       	jmpq   410b0d <_ZL22__cocheck__init_systemiPPcS0_+0x6bd>
  410919:	48 8b 84 24 08 01 00 	mov    0x108(%rsp),%rax
  410920:	00 
  410921:	48 83 e8 08          	sub    $0x8,%rax
  410925:	48 b9 04 03 03 03 03 	movabs $0x102020303030304,%rcx
  41092c:	02 02 01 
  41092f:	48 89 08             	mov    %rcx,(%rax)
  410932:	e9 d6 01 00 00       	jmpq   410b0d <_ZL22__cocheck__init_systemiPPcS0_+0x6bd>
  410937:	48 8b 84 24 08 01 00 	mov    0x108(%rsp),%rax
  41093e:	00 
  41093f:	48 83 e8 01          	sub    $0x1,%rax
  410943:	c6 00 01             	movb   $0x1,(%rax)
  410946:	48 8b 84 24 08 01 00 	mov    0x108(%rsp),%rax
  41094d:	00 
  41094e:	48 83 e8 09          	sub    $0x9,%rax
  410952:	48 b9 04 04 03 03 03 	movabs $0x202030303030404,%rcx
  410959:	03 02 02 
  41095c:	48 89 08             	mov    %rcx,(%rax)
  41095f:	e9 a9 01 00 00       	jmpq   410b0d <_ZL22__cocheck__init_systemiPPcS0_+0x6bd>
  410964:	48 8b 84 24 08 01 00 	mov    0x108(%rsp),%rax
  41096b:	00 
  41096c:	48 83 e8 02          	sub    $0x2,%rax
  410970:	66 c7 00 02 01       	movw   $0x102,(%rax)
  410975:	48 8b 84 24 08 01 00 	mov    0x108(%rsp),%rax
  41097c:	00 
  41097d:	48 83 e8 0a          	sub    $0xa,%rax
  410981:	48 b9 04 04 04 03 03 	movabs $0x203030303040404,%rcx
  410988:	03 03 02 
  41098b:	48 89 08             	mov    %rcx,(%rax)
  41098e:	e9 7a 01 00 00       	jmpq   410b0d <_ZL22__cocheck__init_systemiPPcS0_+0x6bd>
  410993:	48 8b 84 24 08 01 00 	mov    0x108(%rsp),%rax
  41099a:	00 
  41099b:	48 83 e8 01          	sub    $0x1,%rax
  41099f:	c6 00 01             	movb   $0x1,(%rax)
  4109a2:	48 8b 84 24 08 01 00 	mov    0x108(%rsp),%rax
  4109a9:	00 
  4109aa:	48 83 e8 03          	sub    $0x3,%rax
  4109ae:	66 c7 00 02 02       	movw   $0x202,(%rax)
  4109b3:	48 8b 84 24 08 01 00 	mov    0x108(%rsp),%rax
  4109ba:	00 
  4109bb:	48 83 e8 0b          	sub    $0xb,%rax
  4109bf:	48 b9 04 04 04 04 03 	movabs $0x303030304040404,%rcx
  4109c6:	03 03 03 
  4109c9:	48 89 08             	mov    %rcx,(%rax)
  4109cc:	e9 3c 01 00 00       	jmpq   410b0d <_ZL22__cocheck__init_systemiPPcS0_+0x6bd>
  4109d1:	48 8b 84 24 08 01 00 	mov    0x108(%rsp),%rax
  4109d8:	00 
  4109d9:	48 83 e8 04          	sub    $0x4,%rax
  4109dd:	c7 00 03 02 02 01    	movl   $0x1020203,(%rax)
  4109e3:	48 8b 84 24 08 01 00 	mov    0x108(%rsp),%rax
  4109ea:	00 
  4109eb:	48 83 e8 0c          	sub    $0xc,%rax
  4109ef:	48 b9 04 04 04 04 04 	movabs $0x303030404040404,%rcx
  4109f6:	03 03 03 
  4109f9:	48 89 08             	mov    %rcx,(%rax)
  4109fc:	e9 0c 01 00 00       	jmpq   410b0d <_ZL22__cocheck__init_systemiPPcS0_+0x6bd>
  410a01:	48 8b 84 24 08 01 00 	mov    0x108(%rsp),%rax
  410a08:	00 
  410a09:	48 83 e8 01          	sub    $0x1,%rax
  410a0d:	c6 00 01             	movb   $0x1,(%rax)
  410a10:	48 8b 84 24 08 01 00 	mov    0x108(%rsp),%rax
  410a17:	00 
  410a18:	48 83 e8 05          	sub    $0x5,%rax
  410a1c:	c7 00 03 03 02 02    	movl   $0x2020303,(%rax)
  410a22:	48 8b 84 24 08 01 00 	mov    0x108(%rsp),%rax
  410a29:	00 
  410a2a:	48 83 e8 0d          	sub    $0xd,%rax
  410a2e:	48 b9 04 04 04 04 04 	movabs $0x303040404040404,%rcx
  410a35:	04 03 03 
  410a38:	48 89 08             	mov    %rcx,(%rax)
  410a3b:	e9 cd 00 00 00       	jmpq   410b0d <_ZL22__cocheck__init_systemiPPcS0_+0x6bd>
  410a40:	48 8b 84 24 08 01 00 	mov    0x108(%rsp),%rax
  410a47:	00 
  410a48:	48 83 e8 02          	sub    $0x2,%rax
  410a4c:	66 c7 00 02 01       	movw   $0x102,(%rax)
  410a51:	48 8b 84 24 08 01 00 	mov    0x108(%rsp),%rax
  410a58:	00 
  410a59:	48 83 e8 06          	sub    $0x6,%rax
  410a5d:	c7 00 03 03 03 02    	movl   $0x2030303,(%rax)
  410a63:	48 8b 84 24 08 01 00 	mov    0x108(%rsp),%rax
  410a6a:	00 
  410a6b:	48 83 e8 0e          	sub    $0xe,%rax
  410a6f:	48 b9 04 04 04 04 04 	movabs $0x304040404040404,%rcx
  410a76:	04 04 03 
  410a79:	48 89 08             	mov    %rcx,(%rax)
  410a7c:	e9 8c 00 00 00       	jmpq   410b0d <_ZL22__cocheck__init_systemiPPcS0_+0x6bd>
  410a81:	48 8b 84 24 08 01 00 	mov    0x108(%rsp),%rax
  410a88:	00 
  410a89:	48 83 e8 01          	sub    $0x1,%rax
  410a8d:	c6 00 01             	movb   $0x1,(%rax)
  410a90:	48 8b 84 24 08 01 00 	mov    0x108(%rsp),%rax
  410a97:	00 
  410a98:	48 83 e8 03          	sub    $0x3,%rax
  410a9c:	66 c7 00 02 02       	movw   $0x202,(%rax)
  410aa1:	48 8b 84 24 08 01 00 	mov    0x108(%rsp),%rax
  410aa8:	00 
  410aa9:	48 83 e8 07          	sub    $0x7,%rax
  410aad:	c7 00 03 03 03 03    	movl   $0x3030303,(%rax)
  410ab3:	48 8b 84 24 08 01 00 	mov    0x108(%rsp),%rax
  410aba:	00 
  410abb:	48 83 e8 0f          	sub    $0xf,%rax
  410abf:	48 b9 04 04 04 04 04 	movabs $0x404040404040404,%rcx
  410ac6:	04 04 04 
  410ac9:	48 89 08             	mov    %rcx,(%rax)
  410acc:	e9 3c 00 00 00       	jmpq   410b0d <_ZL22__cocheck__init_systemiPPcS0_+0x6bd>
  410ad1:	48 8b 84 24 08 01 00 	mov    0x108(%rsp),%rax
  410ad8:	00 
  410ad9:	48 83 e8 08          	sub    $0x8,%rax
  410add:	48 b9 04 03 03 03 03 	movabs $0x102020303030304,%rcx
  410ae4:	02 02 01 
  410ae7:	48 89 08             	mov    %rcx,(%rax)
  410aea:	48 8b 84 24 08 01 00 	mov    0x108(%rsp),%rax
  410af1:	00 
  410af2:	48 83 e8 10          	sub    $0x10,%rax
  410af6:	48 b9 05 04 04 04 04 	movabs $0x404040404040405,%rcx
  410afd:	04 04 04 
  410b00:	48 89 08             	mov    %rcx,(%rax)
  410b03:	e9 05 00 00 00       	jmpq   410b0d <_ZL22__cocheck__init_systemiPPcS0_+0x6bd>
  410b08:	e9 00 00 00 00       	jmpq   410b0d <_ZL22__cocheck__init_systemiPPcS0_+0x6bd>
  410b0d:	c7 84 24 fc 00 00 00 	movl   $0x1,0xfc(%rsp)
  410b14:	01 00 00 00 
  410b18:	e9 4b 01 00 00       	jmpq   410c68 <_ZL22__cocheck__init_systemiPPcS0_+0x818>
  410b1d:	48 8b 84 24 08 01 00 	mov    0x108(%rsp),%rax
  410b24:	00 
  410b25:	48 83 e8 08          	sub    $0x8,%rax
  410b29:	48 b9 04 03 03 03 03 	movabs $0x102020303030304,%rcx
  410b30:	02 02 01 
  410b33:	48 89 08             	mov    %rcx,(%rax)
  410b36:	48 8b 84 24 08 01 00 	mov    0x108(%rsp),%rax
  410b3d:	00 
  410b3e:	48 83 e8 10          	sub    $0x10,%rax
  410b42:	48 b9 05 04 04 04 04 	movabs $0x404040404040405,%rcx
  410b49:	04 04 04 
  410b4c:	48 89 08             	mov    %rcx,(%rax)
  410b4f:	48 c7 84 24 f0 00 00 	movq   $0x4,0xf0(%rsp)
  410b56:	00 04 00 00 00 
  410b5b:	48 8b 84 24 08 01 00 	mov    0x108(%rsp),%rax
  410b62:	00 
  410b63:	48 8b 8c 24 f0 00 00 	mov    0xf0(%rsp),%rcx
  410b6a:	00 
  410b6b:	ba 01 00 00 00       	mov    $0x1,%edx
  410b70:	d3 e2                	shl    %cl,%edx
  410b72:	89 d1                	mov    %edx,%ecx
  410b74:	48 63 c9             	movslq %ecx,%rcx
  410b77:	48 29 c8             	sub    %rcx,%rax
  410b7a:	48 3b 84 24 10 01 00 	cmp    0x110(%rsp),%rax
  410b81:	00 
  410b82:	0f 83 1b 00 00 00    	jae    410ba3 <_ZL22__cocheck__init_systemiPPcS0_+0x753>
  410b88:	c7 84 24 fc 00 00 00 	movl   $0x3,0xfc(%rsp)
  410b8f:	03 00 00 00 
  410b93:	c7 84 24 fc 00 00 00 	movl   $0x0,0xfc(%rsp)
  410b9a:	00 00 00 00 
  410b9e:	e9 c5 00 00 00       	jmpq   410c68 <_ZL22__cocheck__init_systemiPPcS0_+0x818>
  410ba3:	48 8b 84 24 08 01 00 	mov    0x108(%rsp),%rax
  410baa:	00 
  410bab:	48 8b 8c 24 f0 00 00 	mov    0xf0(%rsp),%rcx
  410bb2:	00 
  410bb3:	48 83 c1 01          	add    $0x1,%rcx
  410bb7:	ba 01 00 00 00       	mov    $0x1,%edx
  410bbc:	d3 e2                	shl    %cl,%edx
  410bbe:	89 d1                	mov    %edx,%ecx
  410bc0:	48 63 c9             	movslq %ecx,%rcx
  410bc3:	48 29 c8             	sub    %rcx,%rax
  410bc6:	48 83 c0 01          	add    $0x1,%rax
  410bca:	48 89 84 24 e8 00 00 	mov    %rax,0xe8(%rsp)
  410bd1:	00 
  410bd2:	48 8b 84 24 08 01 00 	mov    0x108(%rsp),%rax
  410bd9:	00 
  410bda:	48 8b 8c 24 f0 00 00 	mov    0xf0(%rsp),%rcx
  410be1:	00 
  410be2:	ba 01 00 00 00       	mov    $0x1,%edx
  410be7:	d3 e2                	shl    %cl,%edx
  410be9:	89 d1                	mov    %edx,%ecx
  410beb:	48 63 c9             	movslq %ecx,%rcx
  410bee:	48 29 c8             	sub    %rcx,%rax
  410bf1:	48 89 84 24 e0 00 00 	mov    %rax,0xe0(%rsp)
  410bf8:	00 
  410bf9:	48 8b 84 24 e8 00 00 	mov    0xe8(%rsp),%rax
  410c00:	00 
  410c01:	48 3b 84 24 10 01 00 	cmp    0x110(%rsp),%rax
  410c08:	00 
  410c09:	0f 83 10 00 00 00    	jae    410c1f <_ZL22__cocheck__init_systemiPPcS0_+0x7cf>
  410c0f:	48 8b 84 24 10 01 00 	mov    0x110(%rsp),%rax
  410c16:	00 
  410c17:	48 89 84 24 e8 00 00 	mov    %rax,0xe8(%rsp)
  410c1e:	00 
  410c1f:	48 8b bc 24 e8 00 00 	mov    0xe8(%rsp),%rdi
  410c26:	00 
  410c27:	48 8b 84 24 f0 00 00 	mov    0xf0(%rsp),%rax
  410c2e:	00 
  410c2f:	48 83 c0 01          	add    $0x1,%rax
  410c33:	48 8b 94 24 e0 00 00 	mov    0xe0(%rsp),%rdx
  410c3a:	00 
  410c3b:	48 2b 94 24 e8 00 00 	sub    0xe8(%rsp),%rdx
  410c42:	00 
  410c43:	48 83 c2 01          	add    $0x1,%rdx
  410c47:	0f b6 f0             	movzbl %al,%esi
  410c4a:	e8 81 04 ff ff       	callq  4010d0 <memset@plt>
  410c4f:	48 8b 84 24 f0 00 00 	mov    0xf0(%rsp),%rax
  410c56:	00 
  410c57:	48 83 c0 01          	add    $0x1,%rax
  410c5b:	48 89 84 24 f0 00 00 	mov    %rax,0xf0(%rsp)
  410c62:	00 
  410c63:	e9 f3 fe ff ff       	jmpq   410b5b <_ZL22__cocheck__init_systemiPPcS0_+0x70b>
  410c68:	e9 35 00 00 00       	jmpq   410ca2 <_ZL22__cocheck__init_systemiPPcS0_+0x852>
  410c6d:	48 8b 84 24 d8 00 00 	mov    0xd8(%rsp),%rax
  410c74:	00 
  410c75:	48 c1 e8 03          	shr    $0x3,%rax
  410c79:	48 05 00 80 ff 7f    	add    $0x7fff8000,%rax
  410c7f:	48 89 84 24 b0 00 00 	mov    %rax,0xb0(%rsp)
  410c86:	00 
  410c87:	48 8b bc 24 b0 00 00 	mov    0xb0(%rsp),%rdi
  410c8e:	00 
  410c8f:	48 8b 94 24 d0 00 00 	mov    0xd0(%rsp),%rdx
  410c96:	00 
  410c97:	48 c1 ea 03          	shr    $0x3,%rdx
  410c9b:	31 f6                	xor    %esi,%esi
  410c9d:	e8 2e 04 ff ff       	callq  4010d0 <memset@plt>
  410ca2:	48 8b 84 24 a0 00 00 	mov    0xa0(%rsp),%rax
  410ca9:	00 
  410caa:	48 83 e0 07          	and    $0x7,%rax
  410cae:	48 83 f8 00          	cmp    $0x0,%rax
  410cb2:	0f 84 34 00 00 00    	je     410cec <_ZL22__cocheck__init_systemiPPcS0_+0x89c>
  410cb8:	48 8b 84 24 a0 00 00 	mov    0xa0(%rsp),%rax
  410cbf:	00 
  410cc0:	48 83 e0 07          	and    $0x7,%rax
  410cc4:	ba 08 00 00 00       	mov    $0x8,%edx
  410cc9:	48 29 c2             	sub    %rax,%rdx
  410ccc:	48 c1 e2 05          	shl    $0x5,%rdx
  410cd0:	48 8b 84 24 90 00 00 	mov    0x90(%rsp),%rax
  410cd7:	00 
  410cd8:	48 c1 e8 03          	shr    $0x3,%rax
  410cdc:	0f b6 88 00 80 ff 7f 	movzbl 0x7fff8000(%rax),%ecx
  410ce3:	48 01 d1             	add    %rdx,%rcx
  410ce6:	88 88 00 80 ff 7f    	mov    %cl,0x7fff8000(%rax)
  410cec:	e9 14 0d 00 00       	jmpq   411a05 <_ZL22__cocheck__init_systemiPPcS0_+0x15b5>
  410cf1:	48 8b 84 24 88 00 00 	mov    0x88(%rsp),%rax
  410cf8:	00 
  410cf9:	48 89 44 24 68       	mov    %rax,0x68(%rsp)
  410cfe:	48 8b 44 24 68       	mov    0x68(%rsp),%rax
  410d03:	48 3b 44 24 78       	cmp    0x78(%rsp),%rax
  410d08:	0f 85 1b 00 00 00    	jne    410d29 <_ZL22__cocheck__init_systemiPPcS0_+0x8d9>
  410d0e:	48 8b 84 24 98 00 00 	mov    0x98(%rsp),%rax
  410d15:	00 
  410d16:	48 3b 84 24 80 00 00 	cmp    0x80(%rsp),%rax
  410d1d:	00 
  410d1e:	0f 85 b8 00 00 00    	jne    410ddc <_ZL22__cocheck__init_systemiPPcS0_+0x98c>
  410d24:	e9 99 00 00 00       	jmpq   410dc2 <_ZL22__cocheck__init_systemiPPcS0_+0x972>
  410d29:	48 8b 04 25 00 82 61 	mov    0x618200,%rax
  410d30:	00 
  410d31:	48 8b 4c 24 68       	mov    0x68(%rsp),%rcx
  410d36:	80 3c 08 00          	cmpb   $0x0,(%rax,%rcx,1)
  410d3a:	0f 84 49 00 00 00    	je     410d89 <_ZL22__cocheck__init_systemiPPcS0_+0x939>
  410d40:	48 8b 44 24 68       	mov    0x68(%rsp),%rax
  410d45:	48 3b 84 24 88 00 00 	cmp    0x88(%rsp),%rax
  410d4c:	00 
  410d4d:	0f 85 16 00 00 00    	jne    410d69 <_ZL22__cocheck__init_systemiPPcS0_+0x919>
  410d53:	48 8b 84 24 98 00 00 	mov    0x98(%rsp),%rax
  410d5a:	00 
  410d5b:	48 3b 84 24 80 00 00 	cmp    0x80(%rsp),%rax
  410d62:	00 
  410d63:	0f 85 20 00 00 00    	jne    410d89 <_ZL22__cocheck__init_systemiPPcS0_+0x939>
  410d69:	48 8b 7c 24 68       	mov    0x68(%rsp),%rdi
  410d6e:	48 c1 e7 08          	shl    $0x8,%rdi
  410d72:	48 c1 ef 03          	shr    $0x3,%rdi
  410d76:	48 81 c7 00 80 ff 7f 	add    $0x7fff8000,%rdi
  410d7d:	31 f6                	xor    %esi,%esi
  410d7f:	ba 20 00 00 00       	mov    $0x20,%edx
  410d84:	e8 47 03 ff ff       	callq  4010d0 <memset@plt>
  410d89:	48 8b 84 24 90 00 00 	mov    0x90(%rsp),%rax
  410d90:	00 
  410d91:	48 8b 4c 24 68       	mov    0x68(%rsp),%rcx
  410d96:	48 c1 e1 08          	shl    $0x8,%rcx
  410d9a:	48 29 c8             	sub    %rcx,%rax
  410d9d:	89 c2                	mov    %eax,%edx
  410d9f:	48 8b 04 25 f8 81 61 	mov    0x6181f8,%rax
  410da6:	00 
  410da7:	48 8b 4c 24 68       	mov    0x68(%rsp),%rcx
  410dac:	89 14 88             	mov    %edx,(%rax,%rcx,4)
  410daf:	48 8b 44 24 68       	mov    0x68(%rsp),%rax
  410db4:	48 83 c0 01          	add    $0x1,%rax
  410db8:	48 89 44 24 68       	mov    %rax,0x68(%rsp)
  410dbd:	e9 3c ff ff ff       	jmpq   410cfe <_ZL22__cocheck__init_systemiPPcS0_+0x8ae>
  410dc2:	48 8b 04 25 00 82 61 	mov    0x618200,%rax
  410dc9:	00 
  410dca:	48 8b 8c 24 88 00 00 	mov    0x88(%rsp),%rcx
  410dd1:	00 
  410dd2:	80 3c 08 00          	cmpb   $0x0,(%rax,%rcx,1)
  410dd6:	0f 84 e7 05 00 00    	je     4113c3 <_ZL22__cocheck__init_systemiPPcS0_+0xf73>
  410ddc:	48 8b 8c 24 98 00 00 	mov    0x98(%rsp),%rcx
  410de3:	00 
  410de4:	48 8b 84 24 80 00 00 	mov    0x80(%rsp),%rax
  410deb:	00 
  410dec:	48 2b 84 24 98 00 00 	sub    0x98(%rsp),%rax
  410df3:	00 
  410df4:	48 05 00 01 00 00    	add    $0x100,%rax
  410dfa:	48 89 8c 24 c8 01 00 	mov    %rcx,0x1c8(%rsp)
  410e01:	00 
  410e02:	48 89 84 24 c0 01 00 	mov    %rax,0x1c0(%rsp)
  410e09:	00 
  410e0a:	c6 84 24 bf 01 00 00 	movb   $0x1,0x1bf(%rsp)
  410e11:	01 
  410e12:	48 8b 84 24 c8 01 00 	mov    0x1c8(%rsp),%rax
  410e19:	00 
  410e1a:	48 c1 e8 08          	shr    $0x8,%rax
  410e1e:	48 89 84 24 b0 01 00 	mov    %rax,0x1b0(%rsp)
  410e25:	00 
  410e26:	48 8b 04 25 08 82 61 	mov    0x618208,%rax
  410e2d:	00 
  410e2e:	48 8b 8c 24 b0 01 00 	mov    0x1b0(%rsp),%rcx
  410e35:	00 
  410e36:	80 3c 08 00          	cmpb   $0x0,(%rax,%rcx,1)
  410e3a:	0f 85 49 00 00 00    	jne    410e89 <_ZL22__cocheck__init_systemiPPcS0_+0xa39>
  410e40:	48 8b 04 25 08 82 61 	mov    0x618208,%rax
  410e47:	00 
  410e48:	48 8b 8c 24 b0 01 00 	mov    0x1b0(%rsp),%rcx
  410e4f:	00 
  410e50:	c6 04 08 01          	movb   $0x1,(%rax,%rcx,1)
  410e54:	48 8b 84 24 b0 01 00 	mov    0x1b0(%rsp),%rax
  410e5b:	00 
  410e5c:	48 c1 e0 08          	shl    $0x8,%rax
  410e60:	48 c1 e8 03          	shr    $0x3,%rax
  410e64:	48 05 00 80 ff 7f    	add    $0x7fff8000,%rax
  410e6a:	48 89 84 24 a8 01 00 	mov    %rax,0x1a8(%rsp)
  410e71:	00 
  410e72:	48 8b bc 24 a8 01 00 	mov    0x1a8(%rsp),%rdi
  410e79:	00 
  410e7a:	be ff 00 00 00       	mov    $0xff,%esi
  410e7f:	ba 20 00 00 00       	mov    $0x20,%edx
  410e84:	e8 47 02 ff ff       	callq  4010d0 <memset@plt>
  410e89:	80 bc 24 bf 01 00 00 	cmpb   $0x0,0x1bf(%rsp)
  410e90:	00 
  410e91:	0f 85 f7 04 00 00    	jne    41138e <_ZL22__cocheck__init_systemiPPcS0_+0xf3e>
  410e97:	48 8b 8c 24 c8 01 00 	mov    0x1c8(%rsp),%rcx
  410e9e:	00 
  410e9f:	48 8b 84 24 c0 01 00 	mov    0x1c0(%rsp),%rax
  410ea6:	00 
  410ea7:	48 89 8c 24 10 02 00 	mov    %rcx,0x210(%rsp)
  410eae:	00 
  410eaf:	48 89 84 24 08 02 00 	mov    %rax,0x208(%rsp)
  410eb6:	00 
  410eb7:	48 8b 84 24 10 02 00 	mov    0x210(%rsp),%rax
  410ebe:	00 
  410ebf:	48 c1 e8 03          	shr    $0x3,%rax
  410ec3:	48 05 00 80 ff 7f    	add    $0x7fff8000,%rax
  410ec9:	48 89 84 24 00 02 00 	mov    %rax,0x200(%rsp)
  410ed0:	00 
  410ed1:	48 8b 84 24 10 02 00 	mov    0x210(%rsp),%rax
  410ed8:	00 
  410ed9:	48 03 84 24 08 02 00 	add    0x208(%rsp),%rax
  410ee0:	00 
  410ee1:	48 83 e8 01          	sub    $0x1,%rax
  410ee5:	48 c1 e8 03          	shr    $0x3,%rax
  410ee9:	48 05 00 80 ff 7f    	add    $0x7fff8000,%rax
  410eef:	48 83 c0 01          	add    $0x1,%rax
  410ef3:	48 89 84 24 f8 01 00 	mov    %rax,0x1f8(%rsp)
  410efa:	00 
  410efb:	48 81 bc 24 08 02 00 	cmpq   $0x80,0x208(%rsp)
  410f02:	00 80 00 00 00 
  410f07:	0f 87 31 03 00 00    	ja     41123e <_ZL22__cocheck__init_systemiPPcS0_+0xdee>
  410f0d:	48 8b 84 24 08 02 00 	mov    0x208(%rsp),%rax
  410f14:	00 
  410f15:	48 83 c0 07          	add    $0x7,%rax
  410f19:	48 c1 e8 03          	shr    $0x3,%rax
  410f1d:	48 89 84 24 f0 01 00 	mov    %rax,0x1f0(%rsp)
  410f24:	00 
  410f25:	48 8b 84 24 f0 01 00 	mov    0x1f0(%rsp),%rax
  410f2c:	00 
  410f2d:	48 83 c0 ff          	add    $0xffffffffffffffff,%rax
  410f31:	48 89 44 24 20       	mov    %rax,0x20(%rsp)
  410f36:	48 83 e8 0f          	sub    $0xf,%rax
  410f3a:	0f 87 e9 02 00 00    	ja     411229 <_ZL22__cocheck__init_systemiPPcS0_+0xdd9>
  410f40:	48 8b 44 24 20       	mov    0x20(%rsp),%rax
  410f45:	48 8b 04 c5 e8 57 41 	mov    0x4157e8(,%rax,8),%rax
  410f4c:	00 
  410f4d:	ff e0                	jmpq   *%rax
  410f4f:	48 8b 84 24 f8 01 00 	mov    0x1f8(%rsp),%rax
  410f56:	00 
  410f57:	48 83 e8 01          	sub    $0x1,%rax
  410f5b:	c6 00 01             	movb   $0x1,(%rax)
  410f5e:	e9 cb 02 00 00       	jmpq   41122e <_ZL22__cocheck__init_systemiPPcS0_+0xdde>
  410f63:	48 8b 84 24 f8 01 00 	mov    0x1f8(%rsp),%rax
  410f6a:	00 
  410f6b:	48 83 e8 02          	sub    $0x2,%rax
  410f6f:	66 c7 00 02 01       	movw   $0x102,(%rax)
  410f74:	e9 b5 02 00 00       	jmpq   41122e <_ZL22__cocheck__init_systemiPPcS0_+0xdde>
  410f79:	48 8b 84 24 f8 01 00 	mov    0x1f8(%rsp),%rax
  410f80:	00 
  410f81:	48 83 e8 01          	sub    $0x1,%rax
  410f85:	c6 00 01             	movb   $0x1,(%rax)
  410f88:	48 8b 84 24 f8 01 00 	mov    0x1f8(%rsp),%rax
  410f8f:	00 
  410f90:	48 83 e8 03          	sub    $0x3,%rax
  410f94:	66 c7 00 02 02       	movw   $0x202,(%rax)
  410f99:	e9 90 02 00 00       	jmpq   41122e <_ZL22__cocheck__init_systemiPPcS0_+0xdde>
  410f9e:	48 8b 84 24 f8 01 00 	mov    0x1f8(%rsp),%rax
  410fa5:	00 
  410fa6:	48 83 e8 04          	sub    $0x4,%rax
  410faa:	c7 00 03 02 02 01    	movl   $0x1020203,(%rax)
  410fb0:	e9 79 02 00 00       	jmpq   41122e <_ZL22__cocheck__init_systemiPPcS0_+0xdde>
  410fb5:	48 8b 84 24 f8 01 00 	mov    0x1f8(%rsp),%rax
  410fbc:	00 
  410fbd:	48 83 e8 01          	sub    $0x1,%rax
  410fc1:	c6 00 01             	movb   $0x1,(%rax)
  410fc4:	48 8b 84 24 f8 01 00 	mov    0x1f8(%rsp),%rax
  410fcb:	00 
  410fcc:	48 83 e8 05          	sub    $0x5,%rax
  410fd0:	c7 00 03 03 02 02    	movl   $0x2020303,(%rax)
  410fd6:	e9 53 02 00 00       	jmpq   41122e <_ZL22__cocheck__init_systemiPPcS0_+0xdde>
  410fdb:	48 8b 84 24 f8 01 00 	mov    0x1f8(%rsp),%rax
  410fe2:	00 
  410fe3:	48 83 e8 02          	sub    $0x2,%rax
  410fe7:	66 c7 00 02 01       	movw   $0x102,(%rax)
  410fec:	48 8b 84 24 f8 01 00 	mov    0x1f8(%rsp),%rax
  410ff3:	00 
  410ff4:	48 83 e8 06          	sub    $0x6,%rax
  410ff8:	c7 00 03 03 03 02    	movl   $0x2030303,(%rax)
  410ffe:	e9 2b 02 00 00       	jmpq   41122e <_ZL22__cocheck__init_systemiPPcS0_+0xdde>
  411003:	48 8b 84 24 f8 01 00 	mov    0x1f8(%rsp),%rax
  41100a:	00 
  41100b:	48 83 e8 01          	sub    $0x1,%rax
  41100f:	c6 00 01             	movb   $0x1,(%rax)
  411012:	48 8b 84 24 f8 01 00 	mov    0x1f8(%rsp),%rax
  411019:	00 
  41101a:	48 83 e8 03          	sub    $0x3,%rax
  41101e:	66 c7 00 02 02       	movw   $0x202,(%rax)
  411023:	48 8b 84 24 f8 01 00 	mov    0x1f8(%rsp),%rax
  41102a:	00 
  41102b:	48 83 e8 07          	sub    $0x7,%rax
  41102f:	c7 00 03 03 03 03    	movl   $0x3030303,(%rax)
  411035:	e9 f4 01 00 00       	jmpq   41122e <_ZL22__cocheck__init_systemiPPcS0_+0xdde>
  41103a:	48 8b 84 24 f8 01 00 	mov    0x1f8(%rsp),%rax
  411041:	00 
  411042:	48 83 e8 08          	sub    $0x8,%rax
  411046:	48 b9 04 03 03 03 03 	movabs $0x102020303030304,%rcx
  41104d:	02 02 01 
  411050:	48 89 08             	mov    %rcx,(%rax)
  411053:	e9 d6 01 00 00       	jmpq   41122e <_ZL22__cocheck__init_systemiPPcS0_+0xdde>
  411058:	48 8b 84 24 f8 01 00 	mov    0x1f8(%rsp),%rax
  41105f:	00 
  411060:	48 83 e8 01          	sub    $0x1,%rax
  411064:	c6 00 01             	movb   $0x1,(%rax)
  411067:	48 8b 84 24 f8 01 00 	mov    0x1f8(%rsp),%rax
  41106e:	00 
  41106f:	48 83 e8 09          	sub    $0x9,%rax
  411073:	48 b9 04 04 03 03 03 	movabs $0x202030303030404,%rcx
  41107a:	03 02 02 
  41107d:	48 89 08             	mov    %rcx,(%rax)
  411080:	e9 a9 01 00 00       	jmpq   41122e <_ZL22__cocheck__init_systemiPPcS0_+0xdde>
  411085:	48 8b 84 24 f8 01 00 	mov    0x1f8(%rsp),%rax
  41108c:	00 
  41108d:	48 83 e8 02          	sub    $0x2,%rax
  411091:	66 c7 00 02 01       	movw   $0x102,(%rax)
  411096:	48 8b 84 24 f8 01 00 	mov    0x1f8(%rsp),%rax
  41109d:	00 
  41109e:	48 83 e8 0a          	sub    $0xa,%rax
  4110a2:	48 b9 04 04 04 03 03 	movabs $0x203030303040404,%rcx
  4110a9:	03 03 02 
  4110ac:	48 89 08             	mov    %rcx,(%rax)
  4110af:	e9 7a 01 00 00       	jmpq   41122e <_ZL22__cocheck__init_systemiPPcS0_+0xdde>
  4110b4:	48 8b 84 24 f8 01 00 	mov    0x1f8(%rsp),%rax
  4110bb:	00 
  4110bc:	48 83 e8 01          	sub    $0x1,%rax
  4110c0:	c6 00 01             	movb   $0x1,(%rax)
  4110c3:	48 8b 84 24 f8 01 00 	mov    0x1f8(%rsp),%rax
  4110ca:	00 
  4110cb:	48 83 e8 03          	sub    $0x3,%rax
  4110cf:	66 c7 00 02 02       	movw   $0x202,(%rax)
  4110d4:	48 8b 84 24 f8 01 00 	mov    0x1f8(%rsp),%rax
  4110db:	00 
  4110dc:	48 83 e8 0b          	sub    $0xb,%rax
  4110e0:	48 b9 04 04 04 04 03 	movabs $0x303030304040404,%rcx
  4110e7:	03 03 03 
  4110ea:	48 89 08             	mov    %rcx,(%rax)
  4110ed:	e9 3c 01 00 00       	jmpq   41122e <_ZL22__cocheck__init_systemiPPcS0_+0xdde>
  4110f2:	48 8b 84 24 f8 01 00 	mov    0x1f8(%rsp),%rax
  4110f9:	00 
  4110fa:	48 83 e8 04          	sub    $0x4,%rax
  4110fe:	c7 00 03 02 02 01    	movl   $0x1020203,(%rax)
  411104:	48 8b 84 24 f8 01 00 	mov    0x1f8(%rsp),%rax
  41110b:	00 
  41110c:	48 83 e8 0c          	sub    $0xc,%rax
  411110:	48 b9 04 04 04 04 04 	movabs $0x303030404040404,%rcx
  411117:	03 03 03 
  41111a:	48 89 08             	mov    %rcx,(%rax)
  41111d:	e9 0c 01 00 00       	jmpq   41122e <_ZL22__cocheck__init_systemiPPcS0_+0xdde>
  411122:	48 8b 84 24 f8 01 00 	mov    0x1f8(%rsp),%rax
  411129:	00 
  41112a:	48 83 e8 01          	sub    $0x1,%rax
  41112e:	c6 00 01             	movb   $0x1,(%rax)
  411131:	48 8b 84 24 f8 01 00 	mov    0x1f8(%rsp),%rax
  411138:	00 
  411139:	48 83 e8 05          	sub    $0x5,%rax
  41113d:	c7 00 03 03 02 02    	movl   $0x2020303,(%rax)
  411143:	48 8b 84 24 f8 01 00 	mov    0x1f8(%rsp),%rax
  41114a:	00 
  41114b:	48 83 e8 0d          	sub    $0xd,%rax
  41114f:	48 b9 04 04 04 04 04 	movabs $0x303040404040404,%rcx
  411156:	04 03 03 
  411159:	48 89 08             	mov    %rcx,(%rax)
  41115c:	e9 cd 00 00 00       	jmpq   41122e <_ZL22__cocheck__init_systemiPPcS0_+0xdde>
  411161:	48 8b 84 24 f8 01 00 	mov    0x1f8(%rsp),%rax
  411168:	00 
  411169:	48 83 e8 02          	sub    $0x2,%rax
  41116d:	66 c7 00 02 01       	movw   $0x102,(%rax)
  411172:	48 8b 84 24 f8 01 00 	mov    0x1f8(%rsp),%rax
  411179:	00 
  41117a:	48 83 e8 06          	sub    $0x6,%rax
  41117e:	c7 00 03 03 03 02    	movl   $0x2030303,(%rax)
  411184:	48 8b 84 24 f8 01 00 	mov    0x1f8(%rsp),%rax
  41118b:	00 
  41118c:	48 83 e8 0e          	sub    $0xe,%rax
  411190:	48 b9 04 04 04 04 04 	movabs $0x304040404040404,%rcx
  411197:	04 04 03 
  41119a:	48 89 08             	mov    %rcx,(%rax)
  41119d:	e9 8c 00 00 00       	jmpq   41122e <_ZL22__cocheck__init_systemiPPcS0_+0xdde>
  4111a2:	48 8b 84 24 f8 01 00 	mov    0x1f8(%rsp),%rax
  4111a9:	00 
  4111aa:	48 83 e8 01          	sub    $0x1,%rax
  4111ae:	c6 00 01             	movb   $0x1,(%rax)
  4111b1:	48 8b 84 24 f8 01 00 	mov    0x1f8(%rsp),%rax
  4111b8:	00 
  4111b9:	48 83 e8 03          	sub    $0x3,%rax
  4111bd:	66 c7 00 02 02       	movw   $0x202,(%rax)
  4111c2:	48 8b 84 24 f8 01 00 	mov    0x1f8(%rsp),%rax
  4111c9:	00 
  4111ca:	48 83 e8 07          	sub    $0x7,%rax
  4111ce:	c7 00 03 03 03 03    	movl   $0x3030303,(%rax)
  4111d4:	48 8b 84 24 f8 01 00 	mov    0x1f8(%rsp),%rax
  4111db:	00 
  4111dc:	48 83 e8 0f          	sub    $0xf,%rax
  4111e0:	48 b9 04 04 04 04 04 	movabs $0x404040404040404,%rcx
  4111e7:	04 04 04 
  4111ea:	48 89 08             	mov    %rcx,(%rax)
  4111ed:	e9 3c 00 00 00       	jmpq   41122e <_ZL22__cocheck__init_systemiPPcS0_+0xdde>
  4111f2:	48 8b 84 24 f8 01 00 	mov    0x1f8(%rsp),%rax
  4111f9:	00 
  4111fa:	48 83 e8 08          	sub    $0x8,%rax
  4111fe:	48 b9 04 03 03 03 03 	movabs $0x102020303030304,%rcx
  411205:	02 02 01 
  411208:	48 89 08             	mov    %rcx,(%rax)
  41120b:	48 8b 84 24 f8 01 00 	mov    0x1f8(%rsp),%rax
  411212:	00 
  411213:	48 83 e8 10          	sub    $0x10,%rax
  411217:	48 b9 05 04 04 04 04 	movabs $0x404040404040405,%rcx
  41121e:	04 04 04 
  411221:	48 89 08             	mov    %rcx,(%rax)
  411224:	e9 05 00 00 00       	jmpq   41122e <_ZL22__cocheck__init_systemiPPcS0_+0xdde>
  411229:	e9 00 00 00 00       	jmpq   41122e <_ZL22__cocheck__init_systemiPPcS0_+0xdde>
  41122e:	c7 84 24 ec 01 00 00 	movl   $0x1,0x1ec(%rsp)
  411235:	01 00 00 00 
  411239:	e9 4b 01 00 00       	jmpq   411389 <_ZL22__cocheck__init_systemiPPcS0_+0xf39>
  41123e:	48 8b 84 24 f8 01 00 	mov    0x1f8(%rsp),%rax
  411245:	00 
  411246:	48 83 e8 08          	sub    $0x8,%rax
  41124a:	48 b9 04 03 03 03 03 	movabs $0x102020303030304,%rcx
  411251:	02 02 01 
  411254:	48 89 08             	mov    %rcx,(%rax)
  411257:	48 8b 84 24 f8 01 00 	mov    0x1f8(%rsp),%rax
  41125e:	00 
  41125f:	48 83 e8 10          	sub    $0x10,%rax
  411263:	48 b9 05 04 04 04 04 	movabs $0x404040404040405,%rcx
  41126a:	04 04 04 
  41126d:	48 89 08             	mov    %rcx,(%rax)
  411270:	48 c7 84 24 e0 01 00 	movq   $0x4,0x1e0(%rsp)
  411277:	00 04 00 00 00 
  41127c:	48 8b 84 24 f8 01 00 	mov    0x1f8(%rsp),%rax
  411283:	00 
  411284:	48 8b 8c 24 e0 01 00 	mov    0x1e0(%rsp),%rcx
  41128b:	00 
  41128c:	ba 01 00 00 00       	mov    $0x1,%edx
  411291:	d3 e2                	shl    %cl,%edx
  411293:	89 d1                	mov    %edx,%ecx
  411295:	48 63 c9             	movslq %ecx,%rcx
  411298:	48 29 c8             	sub    %rcx,%rax
  41129b:	48 3b 84 24 00 02 00 	cmp    0x200(%rsp),%rax
  4112a2:	00 
  4112a3:	0f 83 1b 00 00 00    	jae    4112c4 <_ZL22__cocheck__init_systemiPPcS0_+0xe74>
  4112a9:	c7 84 24 ec 01 00 00 	movl   $0x3,0x1ec(%rsp)
  4112b0:	03 00 00 00 
  4112b4:	c7 84 24 ec 01 00 00 	movl   $0x0,0x1ec(%rsp)
  4112bb:	00 00 00 00 
  4112bf:	e9 c5 00 00 00       	jmpq   411389 <_ZL22__cocheck__init_systemiPPcS0_+0xf39>
  4112c4:	48 8b 84 24 f8 01 00 	mov    0x1f8(%rsp),%rax
  4112cb:	00 
  4112cc:	48 8b 8c 24 e0 01 00 	mov    0x1e0(%rsp),%rcx
  4112d3:	00 
  4112d4:	48 83 c1 01          	add    $0x1,%rcx
  4112d8:	ba 01 00 00 00       	mov    $0x1,%edx
  4112dd:	d3 e2                	shl    %cl,%edx
  4112df:	89 d1                	mov    %edx,%ecx
  4112e1:	48 63 c9             	movslq %ecx,%rcx
  4112e4:	48 29 c8             	sub    %rcx,%rax
  4112e7:	48 83 c0 01          	add    $0x1,%rax
  4112eb:	48 89 84 24 d8 01 00 	mov    %rax,0x1d8(%rsp)
  4112f2:	00 
  4112f3:	48 8b 84 24 f8 01 00 	mov    0x1f8(%rsp),%rax
  4112fa:	00 
  4112fb:	48 8b 8c 24 e0 01 00 	mov    0x1e0(%rsp),%rcx
  411302:	00 
  411303:	ba 01 00 00 00       	mov    $0x1,%edx
  411308:	d3 e2                	shl    %cl,%edx
  41130a:	89 d1                	mov    %edx,%ecx
  41130c:	48 63 c9             	movslq %ecx,%rcx
  41130f:	48 29 c8             	sub    %rcx,%rax
  411312:	48 89 84 24 d0 01 00 	mov    %rax,0x1d0(%rsp)
  411319:	00 
  41131a:	48 8b 84 24 d8 01 00 	mov    0x1d8(%rsp),%rax
  411321:	00 
  411322:	48 3b 84 24 00 02 00 	cmp    0x200(%rsp),%rax
  411329:	00 
  41132a:	0f 83 10 00 00 00    	jae    411340 <_ZL22__cocheck__init_systemiPPcS0_+0xef0>
  411330:	48 8b 84 24 00 02 00 	mov    0x200(%rsp),%rax
  411337:	00 
  411338:	48 89 84 24 d8 01 00 	mov    %rax,0x1d8(%rsp)
  41133f:	00 
  411340:	48 8b bc 24 d8 01 00 	mov    0x1d8(%rsp),%rdi
  411347:	00 
  411348:	48 8b 84 24 e0 01 00 	mov    0x1e0(%rsp),%rax
  41134f:	00 
  411350:	48 83 c0 01          	add    $0x1,%rax
  411354:	48 8b 94 24 d0 01 00 	mov    0x1d0(%rsp),%rdx
  41135b:	00 
  41135c:	48 2b 94 24 d8 01 00 	sub    0x1d8(%rsp),%rdx
  411363:	00 
  411364:	48 83 c2 01          	add    $0x1,%rdx
  411368:	0f b6 f0             	movzbl %al,%esi
  41136b:	e8 60 fd fe ff       	callq  4010d0 <memset@plt>
  411370:	48 8b 84 24 e0 01 00 	mov    0x1e0(%rsp),%rax
  411377:	00 
  411378:	48 83 c0 01          	add    $0x1,%rax
  41137c:	48 89 84 24 e0 01 00 	mov    %rax,0x1e0(%rsp)
  411383:	00 
  411384:	e9 f3 fe ff ff       	jmpq   41127c <_ZL22__cocheck__init_systemiPPcS0_+0xe2c>
  411389:	e9 35 00 00 00       	jmpq   4113c3 <_ZL22__cocheck__init_systemiPPcS0_+0xf73>
  41138e:	48 8b 84 24 c8 01 00 	mov    0x1c8(%rsp),%rax
  411395:	00 
  411396:	48 c1 e8 03          	shr    $0x3,%rax
  41139a:	48 05 00 80 ff 7f    	add    $0x7fff8000,%rax
  4113a0:	48 89 84 24 a0 01 00 	mov    %rax,0x1a0(%rsp)
  4113a7:	00 
  4113a8:	48 8b bc 24 a0 01 00 	mov    0x1a0(%rsp),%rdi
  4113af:	00 
  4113b0:	48 8b 94 24 c0 01 00 	mov    0x1c0(%rsp),%rdx
  4113b7:	00 
  4113b8:	48 c1 ea 03          	shr    $0x3,%rdx
  4113bc:	31 f6                	xor    %esi,%esi
  4113be:	e8 0d fd fe ff       	callq  4010d0 <memset@plt>
  4113c3:	48 8b 84 24 90 00 00 	mov    0x90(%rsp),%rax
  4113ca:	00 
  4113cb:	48 3b 44 24 70       	cmp    0x70(%rsp),%rax
  4113d0:	0f 84 2a 06 00 00    	je     411a00 <_ZL22__cocheck__init_systemiPPcS0_+0x15b0>
  4113d6:	48 8b 4c 24 70       	mov    0x70(%rsp),%rcx
  4113db:	48 8b 84 24 90 00 00 	mov    0x90(%rsp),%rax
  4113e2:	00 
  4113e3:	48 2b 44 24 70       	sub    0x70(%rsp),%rax
  4113e8:	48 89 8c 24 50 01 00 	mov    %rcx,0x150(%rsp)
  4113ef:	00 
  4113f0:	48 89 84 24 48 01 00 	mov    %rax,0x148(%rsp)
  4113f7:	00 
  4113f8:	c6 84 24 47 01 00 00 	movb   $0x0,0x147(%rsp)
  4113ff:	00 
  411400:	48 8b 84 24 50 01 00 	mov    0x150(%rsp),%rax
  411407:	00 
  411408:	48 c1 e8 08          	shr    $0x8,%rax
  41140c:	48 89 84 24 38 01 00 	mov    %rax,0x138(%rsp)
  411413:	00 
  411414:	48 8b 04 25 08 82 61 	mov    0x618208,%rax
  41141b:	00 
  41141c:	48 8b 8c 24 38 01 00 	mov    0x138(%rsp),%rcx
  411423:	00 
  411424:	80 3c 08 00          	cmpb   $0x0,(%rax,%rcx,1)
  411428:	0f 85 49 00 00 00    	jne    411477 <_ZL22__cocheck__init_systemiPPcS0_+0x1027>
  41142e:	48 8b 04 25 08 82 61 	mov    0x618208,%rax
  411435:	00 
  411436:	48 8b 8c 24 38 01 00 	mov    0x138(%rsp),%rcx
  41143d:	00 
  41143e:	c6 04 08 01          	movb   $0x1,(%rax,%rcx,1)
  411442:	48 8b 84 24 38 01 00 	mov    0x138(%rsp),%rax
  411449:	00 
  41144a:	48 c1 e0 08          	shl    $0x8,%rax
  41144e:	48 c1 e8 03          	shr    $0x3,%rax
  411452:	48 05 00 80 ff 7f    	add    $0x7fff8000,%rax
  411458:	48 89 84 24 30 01 00 	mov    %rax,0x130(%rsp)
  41145f:	00 
  411460:	48 8b bc 24 30 01 00 	mov    0x130(%rsp),%rdi
  411467:	00 
  411468:	be ff 00 00 00       	mov    $0xff,%esi
  41146d:	ba 20 00 00 00       	mov    $0x20,%edx
  411472:	e8 59 fc fe ff       	callq  4010d0 <memset@plt>
  411477:	80 bc 24 47 01 00 00 	cmpb   $0x0,0x147(%rsp)
  41147e:	00 
  41147f:	0f 85 f7 04 00 00    	jne    41197c <_ZL22__cocheck__init_systemiPPcS0_+0x152c>
  411485:	48 8b 8c 24 50 01 00 	mov    0x150(%rsp),%rcx
  41148c:	00 
  41148d:	48 8b 84 24 48 01 00 	mov    0x148(%rsp),%rax
  411494:	00 
  411495:	48 89 8c 24 98 01 00 	mov    %rcx,0x198(%rsp)
  41149c:	00 
  41149d:	48 89 84 24 90 01 00 	mov    %rax,0x190(%rsp)
  4114a4:	00 
  4114a5:	48 8b 84 24 98 01 00 	mov    0x198(%rsp),%rax
  4114ac:	00 
  4114ad:	48 c1 e8 03          	shr    $0x3,%rax
  4114b1:	48 05 00 80 ff 7f    	add    $0x7fff8000,%rax
  4114b7:	48 89 84 24 88 01 00 	mov    %rax,0x188(%rsp)
  4114be:	00 
  4114bf:	48 8b 84 24 98 01 00 	mov    0x198(%rsp),%rax
  4114c6:	00 
  4114c7:	48 03 84 24 90 01 00 	add    0x190(%rsp),%rax
  4114ce:	00 
  4114cf:	48 83 e8 01          	sub    $0x1,%rax
  4114d3:	48 c1 e8 03          	shr    $0x3,%rax
  4114d7:	48 05 00 80 ff 7f    	add    $0x7fff8000,%rax
  4114dd:	48 83 c0 01          	add    $0x1,%rax
  4114e1:	48 89 84 24 80 01 00 	mov    %rax,0x180(%rsp)
  4114e8:	00 
  4114e9:	48 81 bc 24 90 01 00 	cmpq   $0x80,0x190(%rsp)
  4114f0:	00 80 00 00 00 
  4114f5:	0f 87 31 03 00 00    	ja     41182c <_ZL22__cocheck__init_systemiPPcS0_+0x13dc>
  4114fb:	48 8b 84 24 90 01 00 	mov    0x190(%rsp),%rax
  411502:	00 
  411503:	48 83 c0 07          	add    $0x7,%rax
  411507:	48 c1 e8 03          	shr    $0x3,%rax
  41150b:	48 89 84 24 78 01 00 	mov    %rax,0x178(%rsp)
  411512:	00 
  411513:	48 8b 84 24 78 01 00 	mov    0x178(%rsp),%rax
  41151a:	00 
  41151b:	48 83 c0 ff          	add    $0xffffffffffffffff,%rax
  41151f:	48 89 44 24 18       	mov    %rax,0x18(%rsp)
  411524:	48 83 e8 0f          	sub    $0xf,%rax
  411528:	0f 87 e9 02 00 00    	ja     411817 <_ZL22__cocheck__init_systemiPPcS0_+0x13c7>
  41152e:	48 8b 44 24 18       	mov    0x18(%rsp),%rax
  411533:	48 8b 04 c5 68 58 41 	mov    0x415868(,%rax,8),%rax
  41153a:	00 
  41153b:	ff e0                	jmpq   *%rax
  41153d:	48 8b 84 24 80 01 00 	mov    0x180(%rsp),%rax
  411544:	00 
  411545:	48 83 e8 01          	sub    $0x1,%rax
  411549:	c6 00 01             	movb   $0x1,(%rax)
  41154c:	e9 cb 02 00 00       	jmpq   41181c <_ZL22__cocheck__init_systemiPPcS0_+0x13cc>
  411551:	48 8b 84 24 80 01 00 	mov    0x180(%rsp),%rax
  411558:	00 
  411559:	48 83 e8 02          	sub    $0x2,%rax
  41155d:	66 c7 00 02 01       	movw   $0x102,(%rax)
  411562:	e9 b5 02 00 00       	jmpq   41181c <_ZL22__cocheck__init_systemiPPcS0_+0x13cc>
  411567:	48 8b 84 24 80 01 00 	mov    0x180(%rsp),%rax
  41156e:	00 
  41156f:	48 83 e8 01          	sub    $0x1,%rax
  411573:	c6 00 01             	movb   $0x1,(%rax)
  411576:	48 8b 84 24 80 01 00 	mov    0x180(%rsp),%rax
  41157d:	00 
  41157e:	48 83 e8 03          	sub    $0x3,%rax
  411582:	66 c7 00 02 02       	movw   $0x202,(%rax)
  411587:	e9 90 02 00 00       	jmpq   41181c <_ZL22__cocheck__init_systemiPPcS0_+0x13cc>
  41158c:	48 8b 84 24 80 01 00 	mov    0x180(%rsp),%rax
  411593:	00 
  411594:	48 83 e8 04          	sub    $0x4,%rax
  411598:	c7 00 03 02 02 01    	movl   $0x1020203,(%rax)
  41159e:	e9 79 02 00 00       	jmpq   41181c <_ZL22__cocheck__init_systemiPPcS0_+0x13cc>
  4115a3:	48 8b 84 24 80 01 00 	mov    0x180(%rsp),%rax
  4115aa:	00 
  4115ab:	48 83 e8 01          	sub    $0x1,%rax
  4115af:	c6 00 01             	movb   $0x1,(%rax)
  4115b2:	48 8b 84 24 80 01 00 	mov    0x180(%rsp),%rax
  4115b9:	00 
  4115ba:	48 83 e8 05          	sub    $0x5,%rax
  4115be:	c7 00 03 03 02 02    	movl   $0x2020303,(%rax)
  4115c4:	e9 53 02 00 00       	jmpq   41181c <_ZL22__cocheck__init_systemiPPcS0_+0x13cc>
  4115c9:	48 8b 84 24 80 01 00 	mov    0x180(%rsp),%rax
  4115d0:	00 
  4115d1:	48 83 e8 02          	sub    $0x2,%rax
  4115d5:	66 c7 00 02 01       	movw   $0x102,(%rax)
  4115da:	48 8b 84 24 80 01 00 	mov    0x180(%rsp),%rax
  4115e1:	00 
  4115e2:	48 83 e8 06          	sub    $0x6,%rax
  4115e6:	c7 00 03 03 03 02    	movl   $0x2030303,(%rax)
  4115ec:	e9 2b 02 00 00       	jmpq   41181c <_ZL22__cocheck__init_systemiPPcS0_+0x13cc>
  4115f1:	48 8b 84 24 80 01 00 	mov    0x180(%rsp),%rax
  4115f8:	00 
  4115f9:	48 83 e8 01          	sub    $0x1,%rax
  4115fd:	c6 00 01             	movb   $0x1,(%rax)
  411600:	48 8b 84 24 80 01 00 	mov    0x180(%rsp),%rax
  411607:	00 
  411608:	48 83 e8 03          	sub    $0x3,%rax
  41160c:	66 c7 00 02 02       	movw   $0x202,(%rax)
  411611:	48 8b 84 24 80 01 00 	mov    0x180(%rsp),%rax
  411618:	00 
  411619:	48 83 e8 07          	sub    $0x7,%rax
  41161d:	c7 00 03 03 03 03    	movl   $0x3030303,(%rax)
  411623:	e9 f4 01 00 00       	jmpq   41181c <_ZL22__cocheck__init_systemiPPcS0_+0x13cc>
  411628:	48 8b 84 24 80 01 00 	mov    0x180(%rsp),%rax
  41162f:	00 
  411630:	48 83 e8 08          	sub    $0x8,%rax
  411634:	48 b9 04 03 03 03 03 	movabs $0x102020303030304,%rcx
  41163b:	02 02 01 
  41163e:	48 89 08             	mov    %rcx,(%rax)
  411641:	e9 d6 01 00 00       	jmpq   41181c <_ZL22__cocheck__init_systemiPPcS0_+0x13cc>
  411646:	48 8b 84 24 80 01 00 	mov    0x180(%rsp),%rax
  41164d:	00 
  41164e:	48 83 e8 01          	sub    $0x1,%rax
  411652:	c6 00 01             	movb   $0x1,(%rax)
  411655:	48 8b 84 24 80 01 00 	mov    0x180(%rsp),%rax
  41165c:	00 
  41165d:	48 83 e8 09          	sub    $0x9,%rax
  411661:	48 b9 04 04 03 03 03 	movabs $0x202030303030404,%rcx
  411668:	03 02 02 
  41166b:	48 89 08             	mov    %rcx,(%rax)
  41166e:	e9 a9 01 00 00       	jmpq   41181c <_ZL22__cocheck__init_systemiPPcS0_+0x13cc>
  411673:	48 8b 84 24 80 01 00 	mov    0x180(%rsp),%rax
  41167a:	00 
  41167b:	48 83 e8 02          	sub    $0x2,%rax
  41167f:	66 c7 00 02 01       	movw   $0x102,(%rax)
  411684:	48 8b 84 24 80 01 00 	mov    0x180(%rsp),%rax
  41168b:	00 
  41168c:	48 83 e8 0a          	sub    $0xa,%rax
  411690:	48 b9 04 04 04 03 03 	movabs $0x203030303040404,%rcx
  411697:	03 03 02 
  41169a:	48 89 08             	mov    %rcx,(%rax)
  41169d:	e9 7a 01 00 00       	jmpq   41181c <_ZL22__cocheck__init_systemiPPcS0_+0x13cc>
  4116a2:	48 8b 84 24 80 01 00 	mov    0x180(%rsp),%rax
  4116a9:	00 
  4116aa:	48 83 e8 01          	sub    $0x1,%rax
  4116ae:	c6 00 01             	movb   $0x1,(%rax)
  4116b1:	48 8b 84 24 80 01 00 	mov    0x180(%rsp),%rax
  4116b8:	00 
  4116b9:	48 83 e8 03          	sub    $0x3,%rax
  4116bd:	66 c7 00 02 02       	movw   $0x202,(%rax)
  4116c2:	48 8b 84 24 80 01 00 	mov    0x180(%rsp),%rax
  4116c9:	00 
  4116ca:	48 83 e8 0b          	sub    $0xb,%rax
  4116ce:	48 b9 04 04 04 04 03 	movabs $0x303030304040404,%rcx
  4116d5:	03 03 03 
  4116d8:	48 89 08             	mov    %rcx,(%rax)
  4116db:	e9 3c 01 00 00       	jmpq   41181c <_ZL22__cocheck__init_systemiPPcS0_+0x13cc>
  4116e0:	48 8b 84 24 80 01 00 	mov    0x180(%rsp),%rax
  4116e7:	00 
  4116e8:	48 83 e8 04          	sub    $0x4,%rax
  4116ec:	c7 00 03 02 02 01    	movl   $0x1020203,(%rax)
  4116f2:	48 8b 84 24 80 01 00 	mov    0x180(%rsp),%rax
  4116f9:	00 
  4116fa:	48 83 e8 0c          	sub    $0xc,%rax
  4116fe:	48 b9 04 04 04 04 04 	movabs $0x303030404040404,%rcx
  411705:	03 03 03 
  411708:	48 89 08             	mov    %rcx,(%rax)
  41170b:	e9 0c 01 00 00       	jmpq   41181c <_ZL22__cocheck__init_systemiPPcS0_+0x13cc>
  411710:	48 8b 84 24 80 01 00 	mov    0x180(%rsp),%rax
  411717:	00 
  411718:	48 83 e8 01          	sub    $0x1,%rax
  41171c:	c6 00 01             	movb   $0x1,(%rax)
  41171f:	48 8b 84 24 80 01 00 	mov    0x180(%rsp),%rax
  411726:	00 
  411727:	48 83 e8 05          	sub    $0x5,%rax
  41172b:	c7 00 03 03 02 02    	movl   $0x2020303,(%rax)
  411731:	48 8b 84 24 80 01 00 	mov    0x180(%rsp),%rax
  411738:	00 
  411739:	48 83 e8 0d          	sub    $0xd,%rax
  41173d:	48 b9 04 04 04 04 04 	movabs $0x303040404040404,%rcx
  411744:	04 03 03 
  411747:	48 89 08             	mov    %rcx,(%rax)
  41174a:	e9 cd 00 00 00       	jmpq   41181c <_ZL22__cocheck__init_systemiPPcS0_+0x13cc>
  41174f:	48 8b 84 24 80 01 00 	mov    0x180(%rsp),%rax
  411756:	00 
  411757:	48 83 e8 02          	sub    $0x2,%rax
  41175b:	66 c7 00 02 01       	movw   $0x102,(%rax)
  411760:	48 8b 84 24 80 01 00 	mov    0x180(%rsp),%rax
  411767:	00 
  411768:	48 83 e8 06          	sub    $0x6,%rax
  41176c:	c7 00 03 03 03 02    	movl   $0x2030303,(%rax)
  411772:	48 8b 84 24 80 01 00 	mov    0x180(%rsp),%rax
  411779:	00 
  41177a:	48 83 e8 0e          	sub    $0xe,%rax
  41177e:	48 b9 04 04 04 04 04 	movabs $0x304040404040404,%rcx
  411785:	04 04 03 
  411788:	48 89 08             	mov    %rcx,(%rax)
  41178b:	e9 8c 00 00 00       	jmpq   41181c <_ZL22__cocheck__init_systemiPPcS0_+0x13cc>
  411790:	48 8b 84 24 80 01 00 	mov    0x180(%rsp),%rax
  411797:	00 
  411798:	48 83 e8 01          	sub    $0x1,%rax
  41179c:	c6 00 01             	movb   $0x1,(%rax)
  41179f:	48 8b 84 24 80 01 00 	mov    0x180(%rsp),%rax
  4117a6:	00 
  4117a7:	48 83 e8 03          	sub    $0x3,%rax
  4117ab:	66 c7 00 02 02       	movw   $0x202,(%rax)
  4117b0:	48 8b 84 24 80 01 00 	mov    0x180(%rsp),%rax
  4117b7:	00 
  4117b8:	48 83 e8 07          	sub    $0x7,%rax
  4117bc:	c7 00 03 03 03 03    	movl   $0x3030303,(%rax)
  4117c2:	48 8b 84 24 80 01 00 	mov    0x180(%rsp),%rax
  4117c9:	00 
  4117ca:	48 83 e8 0f          	sub    $0xf,%rax
  4117ce:	48 b9 04 04 04 04 04 	movabs $0x404040404040404,%rcx
  4117d5:	04 04 04 
  4117d8:	48 89 08             	mov    %rcx,(%rax)
  4117db:	e9 3c 00 00 00       	jmpq   41181c <_ZL22__cocheck__init_systemiPPcS0_+0x13cc>
  4117e0:	48 8b 84 24 80 01 00 	mov    0x180(%rsp),%rax
  4117e7:	00 
  4117e8:	48 83 e8 08          	sub    $0x8,%rax
  4117ec:	48 b9 04 03 03 03 03 	movabs $0x102020303030304,%rcx
  4117f3:	02 02 01 
  4117f6:	48 89 08             	mov    %rcx,(%rax)
  4117f9:	48 8b 84 24 80 01 00 	mov    0x180(%rsp),%rax
  411800:	00 
  411801:	48 83 e8 10          	sub    $0x10,%rax
  411805:	48 b9 05 04 04 04 04 	movabs $0x404040404040405,%rcx
  41180c:	04 04 04 
  41180f:	48 89 08             	mov    %rcx,(%rax)
  411812:	e9 05 00 00 00       	jmpq   41181c <_ZL22__cocheck__init_systemiPPcS0_+0x13cc>
  411817:	e9 00 00 00 00       	jmpq   41181c <_ZL22__cocheck__init_systemiPPcS0_+0x13cc>
  41181c:	c7 84 24 74 01 00 00 	movl   $0x1,0x174(%rsp)
  411823:	01 00 00 00 
  411827:	e9 4b 01 00 00       	jmpq   411977 <_ZL22__cocheck__init_systemiPPcS0_+0x1527>
  41182c:	48 8b 84 24 80 01 00 	mov    0x180(%rsp),%rax
  411833:	00 
  411834:	48 83 e8 08          	sub    $0x8,%rax
  411838:	48 b9 04 03 03 03 03 	movabs $0x102020303030304,%rcx
  41183f:	02 02 01 
  411842:	48 89 08             	mov    %rcx,(%rax)
  411845:	48 8b 84 24 80 01 00 	mov    0x180(%rsp),%rax
  41184c:	00 
  41184d:	48 83 e8 10          	sub    $0x10,%rax
  411851:	48 b9 05 04 04 04 04 	movabs $0x404040404040405,%rcx
  411858:	04 04 04 
  41185b:	48 89 08             	mov    %rcx,(%rax)
  41185e:	48 c7 84 24 68 01 00 	movq   $0x4,0x168(%rsp)
  411865:	00 04 00 00 00 
  41186a:	48 8b 84 24 80 01 00 	mov    0x180(%rsp),%rax
  411871:	00 
  411872:	48 8b 8c 24 68 01 00 	mov    0x168(%rsp),%rcx
  411879:	00 
  41187a:	ba 01 00 00 00       	mov    $0x1,%edx
  41187f:	d3 e2                	shl    %cl,%edx
  411881:	89 d1                	mov    %edx,%ecx
  411883:	48 63 c9             	movslq %ecx,%rcx
  411886:	48 29 c8             	sub    %rcx,%rax
  411889:	48 3b 84 24 88 01 00 	cmp    0x188(%rsp),%rax
  411890:	00 
  411891:	0f 83 1b 00 00 00    	jae    4118b2 <_ZL22__cocheck__init_systemiPPcS0_+0x1462>
  411897:	c7 84 24 74 01 00 00 	movl   $0x3,0x174(%rsp)
  41189e:	03 00 00 00 
  4118a2:	c7 84 24 74 01 00 00 	movl   $0x0,0x174(%rsp)
  4118a9:	00 00 00 00 
  4118ad:	e9 c5 00 00 00       	jmpq   411977 <_ZL22__cocheck__init_systemiPPcS0_+0x1527>
  4118b2:	48 8b 84 24 80 01 00 	mov    0x180(%rsp),%rax
  4118b9:	00 
  4118ba:	48 8b 8c 24 68 01 00 	mov    0x168(%rsp),%rcx
  4118c1:	00 
  4118c2:	48 83 c1 01          	add    $0x1,%rcx
  4118c6:	ba 01 00 00 00       	mov    $0x1,%edx
  4118cb:	d3 e2                	shl    %cl,%edx
  4118cd:	89 d1                	mov    %edx,%ecx
  4118cf:	48 63 c9             	movslq %ecx,%rcx
  4118d2:	48 29 c8             	sub    %rcx,%rax
  4118d5:	48 83 c0 01          	add    $0x1,%rax
  4118d9:	48 89 84 24 60 01 00 	mov    %rax,0x160(%rsp)
  4118e0:	00 
  4118e1:	48 8b 84 24 80 01 00 	mov    0x180(%rsp),%rax
  4118e8:	00 
  4118e9:	48 8b 8c 24 68 01 00 	mov    0x168(%rsp),%rcx
  4118f0:	00 
  4118f1:	ba 01 00 00 00       	mov    $0x1,%edx
  4118f6:	d3 e2                	shl    %cl,%edx
  4118f8:	89 d1                	mov    %edx,%ecx
  4118fa:	48 63 c9             	movslq %ecx,%rcx
  4118fd:	48 29 c8             	sub    %rcx,%rax
  411900:	48 89 84 24 58 01 00 	mov    %rax,0x158(%rsp)
  411907:	00 
  411908:	48 8b 84 24 60 01 00 	mov    0x160(%rsp),%rax
  41190f:	00 
  411910:	48 3b 84 24 88 01 00 	cmp    0x188(%rsp),%rax
  411917:	00 
  411918:	0f 83 10 00 00 00    	jae    41192e <_ZL22__cocheck__init_systemiPPcS0_+0x14de>
  41191e:	48 8b 84 24 88 01 00 	mov    0x188(%rsp),%rax
  411925:	00 
  411926:	48 89 84 24 60 01 00 	mov    %rax,0x160(%rsp)
  41192d:	00 
  41192e:	48 8b bc 24 60 01 00 	mov    0x160(%rsp),%rdi
  411935:	00 
  411936:	48 8b 84 24 68 01 00 	mov    0x168(%rsp),%rax
  41193d:	00 
  41193e:	48 83 c0 01          	add    $0x1,%rax
  411942:	48 8b 94 24 58 01 00 	mov    0x158(%rsp),%rdx
  411949:	00 
  41194a:	48 2b 94 24 60 01 00 	sub    0x160(%rsp),%rdx
  411951:	00 
  411952:	48 83 c2 01          	add    $0x1,%rdx
  411956:	0f b6 f0             	movzbl %al,%esi
  411959:	e8 72 f7 fe ff       	callq  4010d0 <memset@plt>
  41195e:	48 8b 84 24 68 01 00 	mov    0x168(%rsp),%rax
  411965:	00 
  411966:	48 83 c0 01          	add    $0x1,%rax
  41196a:	48 89 84 24 68 01 00 	mov    %rax,0x168(%rsp)
  411971:	00 
  411972:	e9 f3 fe ff ff       	jmpq   41186a <_ZL22__cocheck__init_systemiPPcS0_+0x141a>
  411977:	e9 35 00 00 00       	jmpq   4119b1 <_ZL22__cocheck__init_systemiPPcS0_+0x1561>
  41197c:	48 8b 84 24 50 01 00 	mov    0x150(%rsp),%rax
  411983:	00 
  411984:	48 c1 e8 03          	shr    $0x3,%rax
  411988:	48 05 00 80 ff 7f    	add    $0x7fff8000,%rax
  41198e:	48 89 84 24 28 01 00 	mov    %rax,0x128(%rsp)
  411995:	00 
  411996:	48 8b bc 24 28 01 00 	mov    0x128(%rsp),%rdi
  41199d:	00 
  41199e:	48 8b 94 24 48 01 00 	mov    0x148(%rsp),%rdx
  4119a5:	00 
  4119a6:	48 c1 ea 03          	shr    $0x3,%rdx
  4119aa:	31 f6                	xor    %esi,%esi
  4119ac:	e8 1f f7 fe ff       	callq  4010d0 <memset@plt>
  4119b1:	48 8b 84 24 a0 00 00 	mov    0xa0(%rsp),%rax
  4119b8:	00 
  4119b9:	48 83 e0 07          	and    $0x7,%rax
  4119bd:	48 83 f8 00          	cmp    $0x0,%rax
  4119c1:	0f 84 34 00 00 00    	je     4119fb <_ZL22__cocheck__init_systemiPPcS0_+0x15ab>
  4119c7:	48 8b 84 24 a0 00 00 	mov    0xa0(%rsp),%rax
  4119ce:	00 
  4119cf:	48 83 e0 07          	and    $0x7,%rax
  4119d3:	ba 08 00 00 00       	mov    $0x8,%edx
  4119d8:	48 29 c2             	sub    %rax,%rdx
  4119db:	48 c1 e2 05          	shl    $0x5,%rdx
  4119df:	48 8b 84 24 90 00 00 	mov    0x90(%rsp),%rax
  4119e6:	00 
  4119e7:	48 c1 e8 03          	shr    $0x3,%rax
  4119eb:	0f b6 88 00 80 ff 7f 	movzbl 0x7fff8000(%rax),%ecx
  4119f2:	48 01 d1             	add    %rdx,%rcx
  4119f5:	88 88 00 80 ff 7f    	mov    %cl,0x7fff8000(%rax)
  4119fb:	e9 00 00 00 00       	jmpq   411a00 <_ZL22__cocheck__init_systemiPPcS0_+0x15b0>
  411a00:	e9 00 00 00 00       	jmpq   411a05 <_ZL22__cocheck__init_systemiPPcS0_+0x15b5>
  411a05:	48 b8 80 83 61 00 00 	movabs $0x618380,%rax
  411a0c:	00 00 00 
  411a0f:	48 89 84 24 58 02 00 	mov    %rax,0x258(%rsp)
  411a16:	00 
  411a17:	48 c7 84 24 50 02 00 	movq   $0x110,0x250(%rsp)
  411a1e:	00 10 01 00 00 
  411a23:	48 8b 84 24 58 02 00 	mov    0x258(%rsp),%rax
  411a2a:	00 
  411a2b:	48 89 84 24 48 02 00 	mov    %rax,0x248(%rsp)
  411a32:	00 
  411a33:	48 8b 84 24 48 02 00 	mov    0x248(%rsp),%rax
  411a3a:	00 
  411a3b:	48 03 84 24 50 02 00 	add    0x250(%rsp),%rax
  411a42:	00 
  411a43:	48 89 84 24 40 02 00 	mov    %rax,0x240(%rsp)
  411a4a:	00 
  411a4b:	48 8b 84 24 48 02 00 	mov    0x248(%rsp),%rax
  411a52:	00 
  411a53:	48 c1 e8 08          	shr    $0x8,%rax
  411a57:	48 89 84 24 38 02 00 	mov    %rax,0x238(%rsp)
  411a5e:	00 
  411a5f:	48 8b 84 24 38 02 00 	mov    0x238(%rsp),%rax
  411a66:	00 
  411a67:	48 c1 e0 08          	shl    $0x8,%rax
  411a6b:	48 89 84 24 30 02 00 	mov    %rax,0x230(%rsp)
  411a72:	00 
  411a73:	48 8b 84 24 40 02 00 	mov    0x240(%rsp),%rax
  411a7a:	00 
  411a7b:	48 c1 e8 08          	shr    $0x8,%rax
  411a7f:	48 89 84 24 28 02 00 	mov    %rax,0x228(%rsp)
  411a86:	00 
  411a87:	48 8b 84 24 28 02 00 	mov    0x228(%rsp),%rax
  411a8e:	00 
  411a8f:	48 c1 e0 08          	shl    $0x8,%rax
  411a93:	48 89 84 24 20 02 00 	mov    %rax,0x220(%rsp)
  411a9a:	00 
  411a9b:	48 8b 84 24 38 02 00 	mov    0x238(%rsp),%rax
  411aa2:	00 
  411aa3:	48 3b 84 24 28 02 00 	cmp    0x228(%rsp),%rax
  411aaa:	00 
  411aab:	0f 85 28 06 00 00    	jne    4120d9 <_ZL22__cocheck__init_systemiPPcS0_+0x1c89>
  411ab1:	48 8b 8c 24 58 02 00 	mov    0x258(%rsp),%rcx
  411ab8:	00 
  411ab9:	48 8b 84 24 50 02 00 	mov    0x250(%rsp),%rax
  411ac0:	00 
  411ac1:	48 89 8c 24 88 02 00 	mov    %rcx,0x288(%rsp)
  411ac8:	00 
  411ac9:	48 89 84 24 80 02 00 	mov    %rax,0x280(%rsp)
  411ad0:	00 
  411ad1:	c6 84 24 7f 02 00 00 	movb   $0x0,0x27f(%rsp)
  411ad8:	00 
  411ad9:	48 8b 84 24 88 02 00 	mov    0x288(%rsp),%rax
  411ae0:	00 
  411ae1:	48 c1 e8 08          	shr    $0x8,%rax
  411ae5:	48 89 84 24 70 02 00 	mov    %rax,0x270(%rsp)
  411aec:	00 
  411aed:	48 8b 04 25 08 82 61 	mov    0x618208,%rax
  411af4:	00 
  411af5:	48 8b 8c 24 70 02 00 	mov    0x270(%rsp),%rcx
  411afc:	00 
  411afd:	80 3c 08 00          	cmpb   $0x0,(%rax,%rcx,1)
  411b01:	0f 85 49 00 00 00    	jne    411b50 <_ZL22__cocheck__init_systemiPPcS0_+0x1700>
  411b07:	48 8b 04 25 08 82 61 	mov    0x618208,%rax
  411b0e:	00 
  411b0f:	48 8b 8c 24 70 02 00 	mov    0x270(%rsp),%rcx
  411b16:	00 
  411b17:	c6 04 08 01          	movb   $0x1,(%rax,%rcx,1)
  411b1b:	48 8b 84 24 70 02 00 	mov    0x270(%rsp),%rax
  411b22:	00 
  411b23:	48 c1 e0 08          	shl    $0x8,%rax
  411b27:	48 c1 e8 03          	shr    $0x3,%rax
  411b2b:	48 05 00 80 ff 7f    	add    $0x7fff8000,%rax
  411b31:	48 89 84 24 68 02 00 	mov    %rax,0x268(%rsp)
  411b38:	00 
  411b39:	48 8b bc 24 68 02 00 	mov    0x268(%rsp),%rdi
  411b40:	00 
  411b41:	be ff 00 00 00       	mov    $0xff,%esi
  411b46:	ba 20 00 00 00       	mov    $0x20,%edx
  411b4b:	e8 80 f5 fe ff       	callq  4010d0 <memset@plt>
  411b50:	80 bc 24 7f 02 00 00 	cmpb   $0x0,0x27f(%rsp)
  411b57:	00 
  411b58:	0f 85 f7 04 00 00    	jne    412055 <_ZL22__cocheck__init_systemiPPcS0_+0x1c05>
  411b5e:	48 8b 8c 24 88 02 00 	mov    0x288(%rsp),%rcx
  411b65:	00 
  411b66:	48 8b 84 24 80 02 00 	mov    0x280(%rsp),%rax
  411b6d:	00 
  411b6e:	48 89 8c 24 d0 02 00 	mov    %rcx,0x2d0(%rsp)
  411b75:	00 
  411b76:	48 89 84 24 c8 02 00 	mov    %rax,0x2c8(%rsp)
  411b7d:	00 
  411b7e:	48 8b 84 24 d0 02 00 	mov    0x2d0(%rsp),%rax
  411b85:	00 
  411b86:	48 c1 e8 03          	shr    $0x3,%rax
  411b8a:	48 05 00 80 ff 7f    	add    $0x7fff8000,%rax
  411b90:	48 89 84 24 c0 02 00 	mov    %rax,0x2c0(%rsp)
  411b97:	00 
  411b98:	48 8b 84 24 d0 02 00 	mov    0x2d0(%rsp),%rax
  411b9f:	00 
  411ba0:	48 03 84 24 c8 02 00 	add    0x2c8(%rsp),%rax
  411ba7:	00 
  411ba8:	48 83 e8 01          	sub    $0x1,%rax
  411bac:	48 c1 e8 03          	shr    $0x3,%rax
  411bb0:	48 05 00 80 ff 7f    	add    $0x7fff8000,%rax
  411bb6:	48 83 c0 01          	add    $0x1,%rax
  411bba:	48 89 84 24 b8 02 00 	mov    %rax,0x2b8(%rsp)
  411bc1:	00 
  411bc2:	48 81 bc 24 c8 02 00 	cmpq   $0x80,0x2c8(%rsp)
  411bc9:	00 80 00 00 00 
  411bce:	0f 87 31 03 00 00    	ja     411f05 <_ZL22__cocheck__init_systemiPPcS0_+0x1ab5>
  411bd4:	48 8b 84 24 c8 02 00 	mov    0x2c8(%rsp),%rax
  411bdb:	00 
  411bdc:	48 83 c0 07          	add    $0x7,%rax
  411be0:	48 c1 e8 03          	shr    $0x3,%rax
  411be4:	48 89 84 24 b0 02 00 	mov    %rax,0x2b0(%rsp)
  411beb:	00 
  411bec:	48 8b 84 24 b0 02 00 	mov    0x2b0(%rsp),%rax
  411bf3:	00 
  411bf4:	48 83 c0 ff          	add    $0xffffffffffffffff,%rax
  411bf8:	48 89 44 24 10       	mov    %rax,0x10(%rsp)
  411bfd:	48 83 e8 0f          	sub    $0xf,%rax
  411c01:	0f 87 e9 02 00 00    	ja     411ef0 <_ZL22__cocheck__init_systemiPPcS0_+0x1aa0>
  411c07:	48 8b 44 24 10       	mov    0x10(%rsp),%rax
  411c0c:	48 8b 04 c5 68 5a 41 	mov    0x415a68(,%rax,8),%rax
  411c13:	00 
  411c14:	ff e0                	jmpq   *%rax
  411c16:	48 8b 84 24 b8 02 00 	mov    0x2b8(%rsp),%rax
  411c1d:	00 
  411c1e:	48 83 e8 01          	sub    $0x1,%rax
  411c22:	c6 00 01             	movb   $0x1,(%rax)
  411c25:	e9 cb 02 00 00       	jmpq   411ef5 <_ZL22__cocheck__init_systemiPPcS0_+0x1aa5>
  411c2a:	48 8b 84 24 b8 02 00 	mov    0x2b8(%rsp),%rax
  411c31:	00 
  411c32:	48 83 e8 02          	sub    $0x2,%rax
  411c36:	66 c7 00 02 01       	movw   $0x102,(%rax)
  411c3b:	e9 b5 02 00 00       	jmpq   411ef5 <_ZL22__cocheck__init_systemiPPcS0_+0x1aa5>
  411c40:	48 8b 84 24 b8 02 00 	mov    0x2b8(%rsp),%rax
  411c47:	00 
  411c48:	48 83 e8 01          	sub    $0x1,%rax
  411c4c:	c6 00 01             	movb   $0x1,(%rax)
  411c4f:	48 8b 84 24 b8 02 00 	mov    0x2b8(%rsp),%rax
  411c56:	00 
  411c57:	48 83 e8 03          	sub    $0x3,%rax
  411c5b:	66 c7 00 02 02       	movw   $0x202,(%rax)
  411c60:	e9 90 02 00 00       	jmpq   411ef5 <_ZL22__cocheck__init_systemiPPcS0_+0x1aa5>
  411c65:	48 8b 84 24 b8 02 00 	mov    0x2b8(%rsp),%rax
  411c6c:	00 
  411c6d:	48 83 e8 04          	sub    $0x4,%rax
  411c71:	c7 00 03 02 02 01    	movl   $0x1020203,(%rax)
  411c77:	e9 79 02 00 00       	jmpq   411ef5 <_ZL22__cocheck__init_systemiPPcS0_+0x1aa5>
  411c7c:	48 8b 84 24 b8 02 00 	mov    0x2b8(%rsp),%rax
  411c83:	00 
  411c84:	48 83 e8 01          	sub    $0x1,%rax
  411c88:	c6 00 01             	movb   $0x1,(%rax)
  411c8b:	48 8b 84 24 b8 02 00 	mov    0x2b8(%rsp),%rax
  411c92:	00 
  411c93:	48 83 e8 05          	sub    $0x5,%rax
  411c97:	c7 00 03 03 02 02    	movl   $0x2020303,(%rax)
  411c9d:	e9 53 02 00 00       	jmpq   411ef5 <_ZL22__cocheck__init_systemiPPcS0_+0x1aa5>
  411ca2:	48 8b 84 24 b8 02 00 	mov    0x2b8(%rsp),%rax
  411ca9:	00 
  411caa:	48 83 e8 02          	sub    $0x2,%rax
  411cae:	66 c7 00 02 01       	movw   $0x102,(%rax)
  411cb3:	48 8b 84 24 b8 02 00 	mov    0x2b8(%rsp),%rax
  411cba:	00 
  411cbb:	48 83 e8 06          	sub    $0x6,%rax
  411cbf:	c7 00 03 03 03 02    	movl   $0x2030303,(%rax)
  411cc5:	e9 2b 02 00 00       	jmpq   411ef5 <_ZL22__cocheck__init_systemiPPcS0_+0x1aa5>
  411cca:	48 8b 84 24 b8 02 00 	mov    0x2b8(%rsp),%rax
  411cd1:	00 
  411cd2:	48 83 e8 01          	sub    $0x1,%rax
  411cd6:	c6 00 01             	movb   $0x1,(%rax)
  411cd9:	48 8b 84 24 b8 02 00 	mov    0x2b8(%rsp),%rax
  411ce0:	00 
  411ce1:	48 83 e8 03          	sub    $0x3,%rax
  411ce5:	66 c7 00 02 02       	movw   $0x202,(%rax)
  411cea:	48 8b 84 24 b8 02 00 	mov    0x2b8(%rsp),%rax
  411cf1:	00 
  411cf2:	48 83 e8 07          	sub    $0x7,%rax
  411cf6:	c7 00 03 03 03 03    	movl   $0x3030303,(%rax)
  411cfc:	e9 f4 01 00 00       	jmpq   411ef5 <_ZL22__cocheck__init_systemiPPcS0_+0x1aa5>
  411d01:	48 8b 84 24 b8 02 00 	mov    0x2b8(%rsp),%rax
  411d08:	00 
  411d09:	48 83 e8 08          	sub    $0x8,%rax
  411d0d:	48 b9 04 03 03 03 03 	movabs $0x102020303030304,%rcx
  411d14:	02 02 01 
  411d17:	48 89 08             	mov    %rcx,(%rax)
  411d1a:	e9 d6 01 00 00       	jmpq   411ef5 <_ZL22__cocheck__init_systemiPPcS0_+0x1aa5>
  411d1f:	48 8b 84 24 b8 02 00 	mov    0x2b8(%rsp),%rax
  411d26:	00 
  411d27:	48 83 e8 01          	sub    $0x1,%rax
  411d2b:	c6 00 01             	movb   $0x1,(%rax)
  411d2e:	48 8b 84 24 b8 02 00 	mov    0x2b8(%rsp),%rax
  411d35:	00 
  411d36:	48 83 e8 09          	sub    $0x9,%rax
  411d3a:	48 b9 04 04 03 03 03 	movabs $0x202030303030404,%rcx
  411d41:	03 02 02 
  411d44:	48 89 08             	mov    %rcx,(%rax)
  411d47:	e9 a9 01 00 00       	jmpq   411ef5 <_ZL22__cocheck__init_systemiPPcS0_+0x1aa5>
  411d4c:	48 8b 84 24 b8 02 00 	mov    0x2b8(%rsp),%rax
  411d53:	00 
  411d54:	48 83 e8 02          	sub    $0x2,%rax
  411d58:	66 c7 00 02 01       	movw   $0x102,(%rax)
  411d5d:	48 8b 84 24 b8 02 00 	mov    0x2b8(%rsp),%rax
  411d64:	00 
  411d65:	48 83 e8 0a          	sub    $0xa,%rax
  411d69:	48 b9 04 04 04 03 03 	movabs $0x203030303040404,%rcx
  411d70:	03 03 02 
  411d73:	48 89 08             	mov    %rcx,(%rax)
  411d76:	e9 7a 01 00 00       	jmpq   411ef5 <_ZL22__cocheck__init_systemiPPcS0_+0x1aa5>
  411d7b:	48 8b 84 24 b8 02 00 	mov    0x2b8(%rsp),%rax
  411d82:	00 
  411d83:	48 83 e8 01          	sub    $0x1,%rax
  411d87:	c6 00 01             	movb   $0x1,(%rax)
  411d8a:	48 8b 84 24 b8 02 00 	mov    0x2b8(%rsp),%rax
  411d91:	00 
  411d92:	48 83 e8 03          	sub    $0x3,%rax
  411d96:	66 c7 00 02 02       	movw   $0x202,(%rax)
  411d9b:	48 8b 84 24 b8 02 00 	mov    0x2b8(%rsp),%rax
  411da2:	00 
  411da3:	48 83 e8 0b          	sub    $0xb,%rax
  411da7:	48 b9 04 04 04 04 03 	movabs $0x303030304040404,%rcx
  411dae:	03 03 03 
  411db1:	48 89 08             	mov    %rcx,(%rax)
  411db4:	e9 3c 01 00 00       	jmpq   411ef5 <_ZL22__cocheck__init_systemiPPcS0_+0x1aa5>
  411db9:	48 8b 84 24 b8 02 00 	mov    0x2b8(%rsp),%rax
  411dc0:	00 
  411dc1:	48 83 e8 04          	sub    $0x4,%rax
  411dc5:	c7 00 03 02 02 01    	movl   $0x1020203,(%rax)
  411dcb:	48 8b 84 24 b8 02 00 	mov    0x2b8(%rsp),%rax
  411dd2:	00 
  411dd3:	48 83 e8 0c          	sub    $0xc,%rax
  411dd7:	48 b9 04 04 04 04 04 	movabs $0x303030404040404,%rcx
  411dde:	03 03 03 
  411de1:	48 89 08             	mov    %rcx,(%rax)
  411de4:	e9 0c 01 00 00       	jmpq   411ef5 <_ZL22__cocheck__init_systemiPPcS0_+0x1aa5>
  411de9:	48 8b 84 24 b8 02 00 	mov    0x2b8(%rsp),%rax
  411df0:	00 
  411df1:	48 83 e8 01          	sub    $0x1,%rax
  411df5:	c6 00 01             	movb   $0x1,(%rax)
  411df8:	48 8b 84 24 b8 02 00 	mov    0x2b8(%rsp),%rax
  411dff:	00 
  411e00:	48 83 e8 05          	sub    $0x5,%rax
  411e04:	c7 00 03 03 02 02    	movl   $0x2020303,(%rax)
  411e0a:	48 8b 84 24 b8 02 00 	mov    0x2b8(%rsp),%rax
  411e11:	00 
  411e12:	48 83 e8 0d          	sub    $0xd,%rax
  411e16:	48 b9 04 04 04 04 04 	movabs $0x303040404040404,%rcx
  411e1d:	04 03 03 
  411e20:	48 89 08             	mov    %rcx,(%rax)
  411e23:	e9 cd 00 00 00       	jmpq   411ef5 <_ZL22__cocheck__init_systemiPPcS0_+0x1aa5>
  411e28:	48 8b 84 24 b8 02 00 	mov    0x2b8(%rsp),%rax
  411e2f:	00 
  411e30:	48 83 e8 02          	sub    $0x2,%rax
  411e34:	66 c7 00 02 01       	movw   $0x102,(%rax)
  411e39:	48 8b 84 24 b8 02 00 	mov    0x2b8(%rsp),%rax
  411e40:	00 
  411e41:	48 83 e8 06          	sub    $0x6,%rax
  411e45:	c7 00 03 03 03 02    	movl   $0x2030303,(%rax)
  411e4b:	48 8b 84 24 b8 02 00 	mov    0x2b8(%rsp),%rax
  411e52:	00 
  411e53:	48 83 e8 0e          	sub    $0xe,%rax
  411e57:	48 b9 04 04 04 04 04 	movabs $0x304040404040404,%rcx
  411e5e:	04 04 03 
  411e61:	48 89 08             	mov    %rcx,(%rax)
  411e64:	e9 8c 00 00 00       	jmpq   411ef5 <_ZL22__cocheck__init_systemiPPcS0_+0x1aa5>
  411e69:	48 8b 84 24 b8 02 00 	mov    0x2b8(%rsp),%rax
  411e70:	00 
  411e71:	48 83 e8 01          	sub    $0x1,%rax
  411e75:	c6 00 01             	movb   $0x1,(%rax)
  411e78:	48 8b 84 24 b8 02 00 	mov    0x2b8(%rsp),%rax
  411e7f:	00 
  411e80:	48 83 e8 03          	sub    $0x3,%rax
  411e84:	66 c7 00 02 02       	movw   $0x202,(%rax)
  411e89:	48 8b 84 24 b8 02 00 	mov    0x2b8(%rsp),%rax
  411e90:	00 
  411e91:	48 83 e8 07          	sub    $0x7,%rax
  411e95:	c7 00 03 03 03 03    	movl   $0x3030303,(%rax)
  411e9b:	48 8b 84 24 b8 02 00 	mov    0x2b8(%rsp),%rax
  411ea2:	00 
  411ea3:	48 83 e8 0f          	sub    $0xf,%rax
  411ea7:	48 b9 04 04 04 04 04 	movabs $0x404040404040404,%rcx
  411eae:	04 04 04 
  411eb1:	48 89 08             	mov    %rcx,(%rax)
  411eb4:	e9 3c 00 00 00       	jmpq   411ef5 <_ZL22__cocheck__init_systemiPPcS0_+0x1aa5>
  411eb9:	48 8b 84 24 b8 02 00 	mov    0x2b8(%rsp),%rax
  411ec0:	00 
  411ec1:	48 83 e8 08          	sub    $0x8,%rax
  411ec5:	48 b9 04 03 03 03 03 	movabs $0x102020303030304,%rcx
  411ecc:	02 02 01 
  411ecf:	48 89 08             	mov    %rcx,(%rax)
  411ed2:	48 8b 84 24 b8 02 00 	mov    0x2b8(%rsp),%rax
  411ed9:	00 
  411eda:	48 83 e8 10          	sub    $0x10,%rax
  411ede:	48 b9 05 04 04 04 04 	movabs $0x404040404040405,%rcx
  411ee5:	04 04 04 
  411ee8:	48 89 08             	mov    %rcx,(%rax)
  411eeb:	e9 05 00 00 00       	jmpq   411ef5 <_ZL22__cocheck__init_systemiPPcS0_+0x1aa5>
  411ef0:	e9 00 00 00 00       	jmpq   411ef5 <_ZL22__cocheck__init_systemiPPcS0_+0x1aa5>
  411ef5:	c7 84 24 ac 02 00 00 	movl   $0x1,0x2ac(%rsp)
  411efc:	01 00 00 00 
  411f00:	e9 4b 01 00 00       	jmpq   412050 <_ZL22__cocheck__init_systemiPPcS0_+0x1c00>
  411f05:	48 8b 84 24 b8 02 00 	mov    0x2b8(%rsp),%rax
  411f0c:	00 
  411f0d:	48 83 e8 08          	sub    $0x8,%rax
  411f11:	48 b9 04 03 03 03 03 	movabs $0x102020303030304,%rcx
  411f18:	02 02 01 
  411f1b:	48 89 08             	mov    %rcx,(%rax)
  411f1e:	48 8b 84 24 b8 02 00 	mov    0x2b8(%rsp),%rax
  411f25:	00 
  411f26:	48 83 e8 10          	sub    $0x10,%rax
  411f2a:	48 b9 05 04 04 04 04 	movabs $0x404040404040405,%rcx
  411f31:	04 04 04 
  411f34:	48 89 08             	mov    %rcx,(%rax)
  411f37:	48 c7 84 24 a0 02 00 	movq   $0x4,0x2a0(%rsp)
  411f3e:	00 04 00 00 00 
  411f43:	48 8b 84 24 b8 02 00 	mov    0x2b8(%rsp),%rax
  411f4a:	00 
  411f4b:	48 8b 8c 24 a0 02 00 	mov    0x2a0(%rsp),%rcx
  411f52:	00 
  411f53:	ba 01 00 00 00       	mov    $0x1,%edx
  411f58:	d3 e2                	shl    %cl,%edx
  411f5a:	89 d1                	mov    %edx,%ecx
  411f5c:	48 63 c9             	movslq %ecx,%rcx
  411f5f:	48 29 c8             	sub    %rcx,%rax
  411f62:	48 3b 84 24 c0 02 00 	cmp    0x2c0(%rsp),%rax
  411f69:	00 
  411f6a:	0f 83 1b 00 00 00    	jae    411f8b <_ZL22__cocheck__init_systemiPPcS0_+0x1b3b>
  411f70:	c7 84 24 ac 02 00 00 	movl   $0x3,0x2ac(%rsp)
  411f77:	03 00 00 00 
  411f7b:	c7 84 24 ac 02 00 00 	movl   $0x0,0x2ac(%rsp)
  411f82:	00 00 00 00 
  411f86:	e9 c5 00 00 00       	jmpq   412050 <_ZL22__cocheck__init_systemiPPcS0_+0x1c00>
  411f8b:	48 8b 84 24 b8 02 00 	mov    0x2b8(%rsp),%rax
  411f92:	00 
  411f93:	48 8b 8c 24 a0 02 00 	mov    0x2a0(%rsp),%rcx
  411f9a:	00 
  411f9b:	48 83 c1 01          	add    $0x1,%rcx
  411f9f:	ba 01 00 00 00       	mov    $0x1,%edx
  411fa4:	d3 e2                	shl    %cl,%edx
  411fa6:	89 d1                	mov    %edx,%ecx
  411fa8:	48 63 c9             	movslq %ecx,%rcx
  411fab:	48 29 c8             	sub    %rcx,%rax
  411fae:	48 83 c0 01          	add    $0x1,%rax
  411fb2:	48 89 84 24 98 02 00 	mov    %rax,0x298(%rsp)
  411fb9:	00 
  411fba:	48 8b 84 24 b8 02 00 	mov    0x2b8(%rsp),%rax
  411fc1:	00 
  411fc2:	48 8b 8c 24 a0 02 00 	mov    0x2a0(%rsp),%rcx
  411fc9:	00 
  411fca:	ba 01 00 00 00       	mov    $0x1,%edx
  411fcf:	d3 e2                	shl    %cl,%edx
  411fd1:	89 d1                	mov    %edx,%ecx
  411fd3:	48 63 c9             	movslq %ecx,%rcx
  411fd6:	48 29 c8             	sub    %rcx,%rax
  411fd9:	48 89 84 24 90 02 00 	mov    %rax,0x290(%rsp)
  411fe0:	00 
  411fe1:	48 8b 84 24 98 02 00 	mov    0x298(%rsp),%rax
  411fe8:	00 
  411fe9:	48 3b 84 24 c0 02 00 	cmp    0x2c0(%rsp),%rax
  411ff0:	00 
  411ff1:	0f 83 10 00 00 00    	jae    412007 <_ZL22__cocheck__init_systemiPPcS0_+0x1bb7>
  411ff7:	48 8b 84 24 c0 02 00 	mov    0x2c0(%rsp),%rax
  411ffe:	00 
  411fff:	48 89 84 24 98 02 00 	mov    %rax,0x298(%rsp)
  412006:	00 
  412007:	48 8b bc 24 98 02 00 	mov    0x298(%rsp),%rdi
  41200e:	00 
  41200f:	48 8b 84 24 a0 02 00 	mov    0x2a0(%rsp),%rax
  412016:	00 
  412017:	48 83 c0 01          	add    $0x1,%rax
  41201b:	48 8b 94 24 90 02 00 	mov    0x290(%rsp),%rdx
  412022:	00 
  412023:	48 2b 94 24 98 02 00 	sub    0x298(%rsp),%rdx
  41202a:	00 
  41202b:	48 83 c2 01          	add    $0x1,%rdx
  41202f:	0f b6 f0             	movzbl %al,%esi
  412032:	e8 99 f0 fe ff       	callq  4010d0 <memset@plt>
  412037:	48 8b 84 24 a0 02 00 	mov    0x2a0(%rsp),%rax
  41203e:	00 
  41203f:	48 83 c0 01          	add    $0x1,%rax
  412043:	48 89 84 24 a0 02 00 	mov    %rax,0x2a0(%rsp)
  41204a:	00 
  41204b:	e9 f3 fe ff ff       	jmpq   411f43 <_ZL22__cocheck__init_systemiPPcS0_+0x1af3>
  412050:	e9 35 00 00 00       	jmpq   41208a <_ZL22__cocheck__init_systemiPPcS0_+0x1c3a>
  412055:	48 8b 84 24 88 02 00 	mov    0x288(%rsp),%rax
  41205c:	00 
  41205d:	48 c1 e8 03          	shr    $0x3,%rax
  412061:	48 05 00 80 ff 7f    	add    $0x7fff8000,%rax
  412067:	48 89 84 24 60 02 00 	mov    %rax,0x260(%rsp)
  41206e:	00 
  41206f:	48 8b bc 24 60 02 00 	mov    0x260(%rsp),%rdi
  412076:	00 
  412077:	48 8b 94 24 80 02 00 	mov    0x280(%rsp),%rdx
  41207e:	00 
  41207f:	48 c1 ea 03          	shr    $0x3,%rdx
  412083:	31 f6                	xor    %esi,%esi
  412085:	e8 46 f0 fe ff       	callq  4010d0 <memset@plt>
  41208a:	48 8b 84 24 50 02 00 	mov    0x250(%rsp),%rax
  412091:	00 
  412092:	48 83 e0 07          	and    $0x7,%rax
  412096:	48 83 f8 00          	cmp    $0x0,%rax
  41209a:	0f 84 34 00 00 00    	je     4120d4 <_ZL22__cocheck__init_systemiPPcS0_+0x1c84>
  4120a0:	48 8b 84 24 50 02 00 	mov    0x250(%rsp),%rax
  4120a7:	00 
  4120a8:	48 83 e0 07          	and    $0x7,%rax
  4120ac:	ba 08 00 00 00       	mov    $0x8,%edx
  4120b1:	48 29 c2             	sub    %rax,%rdx
  4120b4:	48 c1 e2 05          	shl    $0x5,%rdx
  4120b8:	48 8b 84 24 40 02 00 	mov    0x240(%rsp),%rax
  4120bf:	00 
  4120c0:	48 c1 e8 03          	shr    $0x3,%rax
  4120c4:	0f b6 88 00 80 ff 7f 	movzbl 0x7fff8000(%rax),%ecx
  4120cb:	48 01 d1             	add    %rdx,%rcx
  4120ce:	88 88 00 80 ff 7f    	mov    %cl,0x7fff8000(%rax)
  4120d4:	e9 39 0d 00 00       	jmpq   412e12 <_ZL22__cocheck__init_systemiPPcS0_+0x29c2>
  4120d9:	48 8b 84 24 38 02 00 	mov    0x238(%rsp),%rax
  4120e0:	00 
  4120e1:	48 89 84 24 18 02 00 	mov    %rax,0x218(%rsp)
  4120e8:	00 
  4120e9:	48 8b 84 24 18 02 00 	mov    0x218(%rsp),%rax
  4120f0:	00 
  4120f1:	48 3b 84 24 28 02 00 	cmp    0x228(%rsp),%rax
  4120f8:	00 
  4120f9:	0f 85 1b 00 00 00    	jne    41211a <_ZL22__cocheck__init_systemiPPcS0_+0x1cca>
  4120ff:	48 8b 84 24 48 02 00 	mov    0x248(%rsp),%rax
  412106:	00 
  412107:	48 3b 84 24 30 02 00 	cmp    0x230(%rsp),%rax
  41210e:	00 
  41210f:	0f 85 cd 00 00 00    	jne    4121e2 <_ZL22__cocheck__init_systemiPPcS0_+0x1d92>
  412115:	e9 ae 00 00 00       	jmpq   4121c8 <_ZL22__cocheck__init_systemiPPcS0_+0x1d78>
  41211a:	48 8b 04 25 00 82 61 	mov    0x618200,%rax
  412121:	00 
  412122:	48 8b 8c 24 18 02 00 	mov    0x218(%rsp),%rcx
  412129:	00 
  41212a:	80 3c 08 00          	cmpb   $0x0,(%rax,%rcx,1)
  41212e:	0f 84 4f 00 00 00    	je     412183 <_ZL22__cocheck__init_systemiPPcS0_+0x1d33>
  412134:	48 8b 84 24 18 02 00 	mov    0x218(%rsp),%rax
  41213b:	00 
  41213c:	48 3b 84 24 38 02 00 	cmp    0x238(%rsp),%rax
  412143:	00 
  412144:	0f 85 16 00 00 00    	jne    412160 <_ZL22__cocheck__init_systemiPPcS0_+0x1d10>
  41214a:	48 8b 84 24 48 02 00 	mov    0x248(%rsp),%rax
  412151:	00 
  412152:	48 3b 84 24 30 02 00 	cmp    0x230(%rsp),%rax
  412159:	00 
  41215a:	0f 85 23 00 00 00    	jne    412183 <_ZL22__cocheck__init_systemiPPcS0_+0x1d33>
  412160:	48 8b bc 24 18 02 00 	mov    0x218(%rsp),%rdi
  412167:	00 
  412168:	48 c1 e7 08          	shl    $0x8,%rdi
  41216c:	48 c1 ef 03          	shr    $0x3,%rdi
  412170:	48 81 c7 00 80 ff 7f 	add    $0x7fff8000,%rdi
  412177:	31 f6                	xor    %esi,%esi
  412179:	ba 20 00 00 00       	mov    $0x20,%edx
  41217e:	e8 4d ef fe ff       	callq  4010d0 <memset@plt>
  412183:	48 8b 84 24 40 02 00 	mov    0x240(%rsp),%rax
  41218a:	00 
  41218b:	48 8b 8c 24 18 02 00 	mov    0x218(%rsp),%rcx
  412192:	00 
  412193:	48 c1 e1 08          	shl    $0x8,%rcx
  412197:	48 29 c8             	sub    %rcx,%rax
  41219a:	89 c2                	mov    %eax,%edx
  41219c:	48 8b 04 25 f8 81 61 	mov    0x6181f8,%rax
  4121a3:	00 
  4121a4:	48 8b 8c 24 18 02 00 	mov    0x218(%rsp),%rcx
  4121ab:	00 
  4121ac:	89 14 88             	mov    %edx,(%rax,%rcx,4)
  4121af:	48 8b 84 24 18 02 00 	mov    0x218(%rsp),%rax
  4121b6:	00 
  4121b7:	48 83 c0 01          	add    $0x1,%rax
  4121bb:	48 89 84 24 18 02 00 	mov    %rax,0x218(%rsp)
  4121c2:	00 
  4121c3:	e9 21 ff ff ff       	jmpq   4120e9 <_ZL22__cocheck__init_systemiPPcS0_+0x1c99>
  4121c8:	48 8b 04 25 00 82 61 	mov    0x618200,%rax
  4121cf:	00 
  4121d0:	48 8b 8c 24 38 02 00 	mov    0x238(%rsp),%rcx
  4121d7:	00 
  4121d8:	80 3c 08 00          	cmpb   $0x0,(%rax,%rcx,1)
  4121dc:	0f 84 e7 05 00 00    	je     4127c9 <_ZL22__cocheck__init_systemiPPcS0_+0x2379>
  4121e2:	48 8b 8c 24 48 02 00 	mov    0x248(%rsp),%rcx
  4121e9:	00 
  4121ea:	48 8b 84 24 30 02 00 	mov    0x230(%rsp),%rax
  4121f1:	00 
  4121f2:	48 2b 84 24 48 02 00 	sub    0x248(%rsp),%rax
  4121f9:	00 
  4121fa:	48 05 00 01 00 00    	add    $0x100,%rax
  412200:	48 89 8c 24 78 03 00 	mov    %rcx,0x378(%rsp)
  412207:	00 
  412208:	48 89 84 24 70 03 00 	mov    %rax,0x370(%rsp)
  41220f:	00 
  412210:	c6 84 24 6f 03 00 00 	movb   $0x1,0x36f(%rsp)
  412217:	01 
  412218:	48 8b 84 24 78 03 00 	mov    0x378(%rsp),%rax
  41221f:	00 
  412220:	48 c1 e8 08          	shr    $0x8,%rax
  412224:	48 89 84 24 60 03 00 	mov    %rax,0x360(%rsp)
  41222b:	00 
  41222c:	48 8b 04 25 08 82 61 	mov    0x618208,%rax
  412233:	00 
  412234:	48 8b 8c 24 60 03 00 	mov    0x360(%rsp),%rcx
  41223b:	00 
  41223c:	80 3c 08 00          	cmpb   $0x0,(%rax,%rcx,1)
  412240:	0f 85 49 00 00 00    	jne    41228f <_ZL22__cocheck__init_systemiPPcS0_+0x1e3f>
  412246:	48 8b 04 25 08 82 61 	mov    0x618208,%rax
  41224d:	00 
  41224e:	48 8b 8c 24 60 03 00 	mov    0x360(%rsp),%rcx
  412255:	00 
  412256:	c6 04 08 01          	movb   $0x1,(%rax,%rcx,1)
  41225a:	48 8b 84 24 60 03 00 	mov    0x360(%rsp),%rax
  412261:	00 
  412262:	48 c1 e0 08          	shl    $0x8,%rax
  412266:	48 c1 e8 03          	shr    $0x3,%rax
  41226a:	48 05 00 80 ff 7f    	add    $0x7fff8000,%rax
  412270:	48 89 84 24 58 03 00 	mov    %rax,0x358(%rsp)
  412277:	00 
  412278:	48 8b bc 24 58 03 00 	mov    0x358(%rsp),%rdi
  41227f:	00 
  412280:	be ff 00 00 00       	mov    $0xff,%esi
  412285:	ba 20 00 00 00       	mov    $0x20,%edx
  41228a:	e8 41 ee fe ff       	callq  4010d0 <memset@plt>
  41228f:	80 bc 24 6f 03 00 00 	cmpb   $0x0,0x36f(%rsp)
  412296:	00 
  412297:	0f 85 f7 04 00 00    	jne    412794 <_ZL22__cocheck__init_systemiPPcS0_+0x2344>
  41229d:	48 8b 8c 24 78 03 00 	mov    0x378(%rsp),%rcx
  4122a4:	00 
  4122a5:	48 8b 84 24 70 03 00 	mov    0x370(%rsp),%rax
  4122ac:	00 
  4122ad:	48 89 8c 24 c0 03 00 	mov    %rcx,0x3c0(%rsp)
  4122b4:	00 
  4122b5:	48 89 84 24 b8 03 00 	mov    %rax,0x3b8(%rsp)
  4122bc:	00 
  4122bd:	48 8b 84 24 c0 03 00 	mov    0x3c0(%rsp),%rax
  4122c4:	00 
  4122c5:	48 c1 e8 03          	shr    $0x3,%rax
  4122c9:	48 05 00 80 ff 7f    	add    $0x7fff8000,%rax
  4122cf:	48 89 84 24 b0 03 00 	mov    %rax,0x3b0(%rsp)
  4122d6:	00 
  4122d7:	48 8b 84 24 c0 03 00 	mov    0x3c0(%rsp),%rax
  4122de:	00 
  4122df:	48 03 84 24 b8 03 00 	add    0x3b8(%rsp),%rax
  4122e6:	00 
  4122e7:	48 83 e8 01          	sub    $0x1,%rax
  4122eb:	48 c1 e8 03          	shr    $0x3,%rax
  4122ef:	48 05 00 80 ff 7f    	add    $0x7fff8000,%rax
  4122f5:	48 83 c0 01          	add    $0x1,%rax
  4122f9:	48 89 84 24 a8 03 00 	mov    %rax,0x3a8(%rsp)
  412300:	00 
  412301:	48 81 bc 24 b8 03 00 	cmpq   $0x80,0x3b8(%rsp)
  412308:	00 80 00 00 00 
  41230d:	0f 87 31 03 00 00    	ja     412644 <_ZL22__cocheck__init_systemiPPcS0_+0x21f4>
  412313:	48 8b 84 24 b8 03 00 	mov    0x3b8(%rsp),%rax
  41231a:	00 
  41231b:	48 83 c0 07          	add    $0x7,%rax
  41231f:	48 c1 e8 03          	shr    $0x3,%rax
  412323:	48 89 84 24 a0 03 00 	mov    %rax,0x3a0(%rsp)
  41232a:	00 
  41232b:	48 8b 84 24 a0 03 00 	mov    0x3a0(%rsp),%rax
  412332:	00 
  412333:	48 83 c0 ff          	add    $0xffffffffffffffff,%rax
  412337:	48 89 44 24 08       	mov    %rax,0x8(%rsp)
  41233c:	48 83 e8 0f          	sub    $0xf,%rax
  412340:	0f 87 e9 02 00 00    	ja     41262f <_ZL22__cocheck__init_systemiPPcS0_+0x21df>
  412346:	48 8b 44 24 08       	mov    0x8(%rsp),%rax
  41234b:	48 8b 04 c5 68 59 41 	mov    0x415968(,%rax,8),%rax
  412352:	00 
  412353:	ff e0                	jmpq   *%rax
  412355:	48 8b 84 24 a8 03 00 	mov    0x3a8(%rsp),%rax
  41235c:	00 
  41235d:	48 83 e8 01          	sub    $0x1,%rax
  412361:	c6 00 01             	movb   $0x1,(%rax)
  412364:	e9 cb 02 00 00       	jmpq   412634 <_ZL22__cocheck__init_systemiPPcS0_+0x21e4>
  412369:	48 8b 84 24 a8 03 00 	mov    0x3a8(%rsp),%rax
  412370:	00 
  412371:	48 83 e8 02          	sub    $0x2,%rax
  412375:	66 c7 00 02 01       	movw   $0x102,(%rax)
  41237a:	e9 b5 02 00 00       	jmpq   412634 <_ZL22__cocheck__init_systemiPPcS0_+0x21e4>
  41237f:	48 8b 84 24 a8 03 00 	mov    0x3a8(%rsp),%rax
  412386:	00 
  412387:	48 83 e8 01          	sub    $0x1,%rax
  41238b:	c6 00 01             	movb   $0x1,(%rax)
  41238e:	48 8b 84 24 a8 03 00 	mov    0x3a8(%rsp),%rax
  412395:	00 
  412396:	48 83 e8 03          	sub    $0x3,%rax
  41239a:	66 c7 00 02 02       	movw   $0x202,(%rax)
  41239f:	e9 90 02 00 00       	jmpq   412634 <_ZL22__cocheck__init_systemiPPcS0_+0x21e4>
  4123a4:	48 8b 84 24 a8 03 00 	mov    0x3a8(%rsp),%rax
  4123ab:	00 
  4123ac:	48 83 e8 04          	sub    $0x4,%rax
  4123b0:	c7 00 03 02 02 01    	movl   $0x1020203,(%rax)
  4123b6:	e9 79 02 00 00       	jmpq   412634 <_ZL22__cocheck__init_systemiPPcS0_+0x21e4>
  4123bb:	48 8b 84 24 a8 03 00 	mov    0x3a8(%rsp),%rax
  4123c2:	00 
  4123c3:	48 83 e8 01          	sub    $0x1,%rax
  4123c7:	c6 00 01             	movb   $0x1,(%rax)
  4123ca:	48 8b 84 24 a8 03 00 	mov    0x3a8(%rsp),%rax
  4123d1:	00 
  4123d2:	48 83 e8 05          	sub    $0x5,%rax
  4123d6:	c7 00 03 03 02 02    	movl   $0x2020303,(%rax)
  4123dc:	e9 53 02 00 00       	jmpq   412634 <_ZL22__cocheck__init_systemiPPcS0_+0x21e4>
  4123e1:	48 8b 84 24 a8 03 00 	mov    0x3a8(%rsp),%rax
  4123e8:	00 
  4123e9:	48 83 e8 02          	sub    $0x2,%rax
  4123ed:	66 c7 00 02 01       	movw   $0x102,(%rax)
  4123f2:	48 8b 84 24 a8 03 00 	mov    0x3a8(%rsp),%rax
  4123f9:	00 
  4123fa:	48 83 e8 06          	sub    $0x6,%rax
  4123fe:	c7 00 03 03 03 02    	movl   $0x2030303,(%rax)
  412404:	e9 2b 02 00 00       	jmpq   412634 <_ZL22__cocheck__init_systemiPPcS0_+0x21e4>
  412409:	48 8b 84 24 a8 03 00 	mov    0x3a8(%rsp),%rax
  412410:	00 
  412411:	48 83 e8 01          	sub    $0x1,%rax
  412415:	c6 00 01             	movb   $0x1,(%rax)
  412418:	48 8b 84 24 a8 03 00 	mov    0x3a8(%rsp),%rax
  41241f:	00 
  412420:	48 83 e8 03          	sub    $0x3,%rax
  412424:	66 c7 00 02 02       	movw   $0x202,(%rax)
  412429:	48 8b 84 24 a8 03 00 	mov    0x3a8(%rsp),%rax
  412430:	00 
  412431:	48 83 e8 07          	sub    $0x7,%rax
  412435:	c7 00 03 03 03 03    	movl   $0x3030303,(%rax)
  41243b:	e9 f4 01 00 00       	jmpq   412634 <_ZL22__cocheck__init_systemiPPcS0_+0x21e4>
  412440:	48 8b 84 24 a8 03 00 	mov    0x3a8(%rsp),%rax
  412447:	00 
  412448:	48 83 e8 08          	sub    $0x8,%rax
  41244c:	48 b9 04 03 03 03 03 	movabs $0x102020303030304,%rcx
  412453:	02 02 01 
  412456:	48 89 08             	mov    %rcx,(%rax)
  412459:	e9 d6 01 00 00       	jmpq   412634 <_ZL22__cocheck__init_systemiPPcS0_+0x21e4>
  41245e:	48 8b 84 24 a8 03 00 	mov    0x3a8(%rsp),%rax
  412465:	00 
  412466:	48 83 e8 01          	sub    $0x1,%rax
  41246a:	c6 00 01             	movb   $0x1,(%rax)
  41246d:	48 8b 84 24 a8 03 00 	mov    0x3a8(%rsp),%rax
  412474:	00 
  412475:	48 83 e8 09          	sub    $0x9,%rax
  412479:	48 b9 04 04 03 03 03 	movabs $0x202030303030404,%rcx
  412480:	03 02 02 
  412483:	48 89 08             	mov    %rcx,(%rax)
  412486:	e9 a9 01 00 00       	jmpq   412634 <_ZL22__cocheck__init_systemiPPcS0_+0x21e4>
  41248b:	48 8b 84 24 a8 03 00 	mov    0x3a8(%rsp),%rax
  412492:	00 
  412493:	48 83 e8 02          	sub    $0x2,%rax
  412497:	66 c7 00 02 01       	movw   $0x102,(%rax)
  41249c:	48 8b 84 24 a8 03 00 	mov    0x3a8(%rsp),%rax
  4124a3:	00 
  4124a4:	48 83 e8 0a          	sub    $0xa,%rax
  4124a8:	48 b9 04 04 04 03 03 	movabs $0x203030303040404,%rcx
  4124af:	03 03 02 
  4124b2:	48 89 08             	mov    %rcx,(%rax)
  4124b5:	e9 7a 01 00 00       	jmpq   412634 <_ZL22__cocheck__init_systemiPPcS0_+0x21e4>
  4124ba:	48 8b 84 24 a8 03 00 	mov    0x3a8(%rsp),%rax
  4124c1:	00 
  4124c2:	48 83 e8 01          	sub    $0x1,%rax
  4124c6:	c6 00 01             	movb   $0x1,(%rax)
  4124c9:	48 8b 84 24 a8 03 00 	mov    0x3a8(%rsp),%rax
  4124d0:	00 
  4124d1:	48 83 e8 03          	sub    $0x3,%rax
  4124d5:	66 c7 00 02 02       	movw   $0x202,(%rax)
  4124da:	48 8b 84 24 a8 03 00 	mov    0x3a8(%rsp),%rax
  4124e1:	00 
  4124e2:	48 83 e8 0b          	sub    $0xb,%rax
  4124e6:	48 b9 04 04 04 04 03 	movabs $0x303030304040404,%rcx
  4124ed:	03 03 03 
  4124f0:	48 89 08             	mov    %rcx,(%rax)
  4124f3:	e9 3c 01 00 00       	jmpq   412634 <_ZL22__cocheck__init_systemiPPcS0_+0x21e4>
  4124f8:	48 8b 84 24 a8 03 00 	mov    0x3a8(%rsp),%rax
  4124ff:	00 
  412500:	48 83 e8 04          	sub    $0x4,%rax
  412504:	c7 00 03 02 02 01    	movl   $0x1020203,(%rax)
  41250a:	48 8b 84 24 a8 03 00 	mov    0x3a8(%rsp),%rax
  412511:	00 
  412512:	48 83 e8 0c          	sub    $0xc,%rax
  412516:	48 b9 04 04 04 04 04 	movabs $0x303030404040404,%rcx
  41251d:	03 03 03 
  412520:	48 89 08             	mov    %rcx,(%rax)
  412523:	e9 0c 01 00 00       	jmpq   412634 <_ZL22__cocheck__init_systemiPPcS0_+0x21e4>
  412528:	48 8b 84 24 a8 03 00 	mov    0x3a8(%rsp),%rax
  41252f:	00 
  412530:	48 83 e8 01          	sub    $0x1,%rax
  412534:	c6 00 01             	movb   $0x1,(%rax)
  412537:	48 8b 84 24 a8 03 00 	mov    0x3a8(%rsp),%rax
  41253e:	00 
  41253f:	48 83 e8 05          	sub    $0x5,%rax
  412543:	c7 00 03 03 02 02    	movl   $0x2020303,(%rax)
  412549:	48 8b 84 24 a8 03 00 	mov    0x3a8(%rsp),%rax
  412550:	00 
  412551:	48 83 e8 0d          	sub    $0xd,%rax
  412555:	48 b9 04 04 04 04 04 	movabs $0x303040404040404,%rcx
  41255c:	04 03 03 
  41255f:	48 89 08             	mov    %rcx,(%rax)
  412562:	e9 cd 00 00 00       	jmpq   412634 <_ZL22__cocheck__init_systemiPPcS0_+0x21e4>
  412567:	48 8b 84 24 a8 03 00 	mov    0x3a8(%rsp),%rax
  41256e:	00 
  41256f:	48 83 e8 02          	sub    $0x2,%rax
  412573:	66 c7 00 02 01       	movw   $0x102,(%rax)
  412578:	48 8b 84 24 a8 03 00 	mov    0x3a8(%rsp),%rax
  41257f:	00 
  412580:	48 83 e8 06          	sub    $0x6,%rax
  412584:	c7 00 03 03 03 02    	movl   $0x2030303,(%rax)
  41258a:	48 8b 84 24 a8 03 00 	mov    0x3a8(%rsp),%rax
  412591:	00 
  412592:	48 83 e8 0e          	sub    $0xe,%rax
  412596:	48 b9 04 04 04 04 04 	movabs $0x304040404040404,%rcx
  41259d:	04 04 03 
  4125a0:	48 89 08             	mov    %rcx,(%rax)
  4125a3:	e9 8c 00 00 00       	jmpq   412634 <_ZL22__cocheck__init_systemiPPcS0_+0x21e4>
  4125a8:	48 8b 84 24 a8 03 00 	mov    0x3a8(%rsp),%rax
  4125af:	00 
  4125b0:	48 83 e8 01          	sub    $0x1,%rax
  4125b4:	c6 00 01             	movb   $0x1,(%rax)
  4125b7:	48 8b 84 24 a8 03 00 	mov    0x3a8(%rsp),%rax
  4125be:	00 
  4125bf:	48 83 e8 03          	sub    $0x3,%rax
  4125c3:	66 c7 00 02 02       	movw   $0x202,(%rax)
  4125c8:	48 8b 84 24 a8 03 00 	mov    0x3a8(%rsp),%rax
  4125cf:	00 
  4125d0:	48 83 e8 07          	sub    $0x7,%rax
  4125d4:	c7 00 03 03 03 03    	movl   $0x3030303,(%rax)
  4125da:	48 8b 84 24 a8 03 00 	mov    0x3a8(%rsp),%rax
  4125e1:	00 
  4125e2:	48 83 e8 0f          	sub    $0xf,%rax
  4125e6:	48 b9 04 04 04 04 04 	movabs $0x404040404040404,%rcx
  4125ed:	04 04 04 
  4125f0:	48 89 08             	mov    %rcx,(%rax)
  4125f3:	e9 3c 00 00 00       	jmpq   412634 <_ZL22__cocheck__init_systemiPPcS0_+0x21e4>
  4125f8:	48 8b 84 24 a8 03 00 	mov    0x3a8(%rsp),%rax
  4125ff:	00 
  412600:	48 83 e8 08          	sub    $0x8,%rax
  412604:	48 b9 04 03 03 03 03 	movabs $0x102020303030304,%rcx
  41260b:	02 02 01 
  41260e:	48 89 08             	mov    %rcx,(%rax)
  412611:	48 8b 84 24 a8 03 00 	mov    0x3a8(%rsp),%rax
  412618:	00 
  412619:	48 83 e8 10          	sub    $0x10,%rax
  41261d:	48 b9 05 04 04 04 04 	movabs $0x404040404040405,%rcx
  412624:	04 04 04 
  412627:	48 89 08             	mov    %rcx,(%rax)
  41262a:	e9 05 00 00 00       	jmpq   412634 <_ZL22__cocheck__init_systemiPPcS0_+0x21e4>
  41262f:	e9 00 00 00 00       	jmpq   412634 <_ZL22__cocheck__init_systemiPPcS0_+0x21e4>
  412634:	c7 84 24 9c 03 00 00 	movl   $0x1,0x39c(%rsp)
  41263b:	01 00 00 00 
  41263f:	e9 4b 01 00 00       	jmpq   41278f <_ZL22__cocheck__init_systemiPPcS0_+0x233f>
  412644:	48 8b 84 24 a8 03 00 	mov    0x3a8(%rsp),%rax
  41264b:	00 
  41264c:	48 83 e8 08          	sub    $0x8,%rax
  412650:	48 b9 04 03 03 03 03 	movabs $0x102020303030304,%rcx
  412657:	02 02 01 
  41265a:	48 89 08             	mov    %rcx,(%rax)
  41265d:	48 8b 84 24 a8 03 00 	mov    0x3a8(%rsp),%rax
  412664:	00 
  412665:	48 83 e8 10          	sub    $0x10,%rax
  412669:	48 b9 05 04 04 04 04 	movabs $0x404040404040405,%rcx
  412670:	04 04 04 
  412673:	48 89 08             	mov    %rcx,(%rax)
  412676:	48 c7 84 24 90 03 00 	movq   $0x4,0x390(%rsp)
  41267d:	00 04 00 00 00 
  412682:	48 8b 84 24 a8 03 00 	mov    0x3a8(%rsp),%rax
  412689:	00 
  41268a:	48 8b 8c 24 90 03 00 	mov    0x390(%rsp),%rcx
  412691:	00 
  412692:	ba 01 00 00 00       	mov    $0x1,%edx
  412697:	d3 e2                	shl    %cl,%edx
  412699:	89 d1                	mov    %edx,%ecx
  41269b:	48 63 c9             	movslq %ecx,%rcx
  41269e:	48 29 c8             	sub    %rcx,%rax
  4126a1:	48 3b 84 24 b0 03 00 	cmp    0x3b0(%rsp),%rax
  4126a8:	00 
  4126a9:	0f 83 1b 00 00 00    	jae    4126ca <_ZL22__cocheck__init_systemiPPcS0_+0x227a>
  4126af:	c7 84 24 9c 03 00 00 	movl   $0x3,0x39c(%rsp)
  4126b6:	03 00 00 00 
  4126ba:	c7 84 24 9c 03 00 00 	movl   $0x0,0x39c(%rsp)
  4126c1:	00 00 00 00 
  4126c5:	e9 c5 00 00 00       	jmpq   41278f <_ZL22__cocheck__init_systemiPPcS0_+0x233f>
  4126ca:	48 8b 84 24 a8 03 00 	mov    0x3a8(%rsp),%rax
  4126d1:	00 
  4126d2:	48 8b 8c 24 90 03 00 	mov    0x390(%rsp),%rcx
  4126d9:	00 
  4126da:	48 83 c1 01          	add    $0x1,%rcx
  4126de:	ba 01 00 00 00       	mov    $0x1,%edx
  4126e3:	d3 e2                	shl    %cl,%edx
  4126e5:	89 d1                	mov    %edx,%ecx
  4126e7:	48 63 c9             	movslq %ecx,%rcx
  4126ea:	48 29 c8             	sub    %rcx,%rax
  4126ed:	48 83 c0 01          	add    $0x1,%rax
  4126f1:	48 89 84 24 88 03 00 	mov    %rax,0x388(%rsp)
  4126f8:	00 
  4126f9:	48 8b 84 24 a8 03 00 	mov    0x3a8(%rsp),%rax
  412700:	00 
  412701:	48 8b 8c 24 90 03 00 	mov    0x390(%rsp),%rcx
  412708:	00 
  412709:	ba 01 00 00 00       	mov    $0x1,%edx
  41270e:	d3 e2                	shl    %cl,%edx
  412710:	89 d1                	mov    %edx,%ecx
  412712:	48 63 c9             	movslq %ecx,%rcx
  412715:	48 29 c8             	sub    %rcx,%rax
  412718:	48 89 84 24 80 03 00 	mov    %rax,0x380(%rsp)
  41271f:	00 
  412720:	48 8b 84 24 88 03 00 	mov    0x388(%rsp),%rax
  412727:	00 
  412728:	48 3b 84 24 b0 03 00 	cmp    0x3b0(%rsp),%rax
  41272f:	00 
  412730:	0f 83 10 00 00 00    	jae    412746 <_ZL22__cocheck__init_systemiPPcS0_+0x22f6>
  412736:	48 8b 84 24 b0 03 00 	mov    0x3b0(%rsp),%rax
  41273d:	00 
  41273e:	48 89 84 24 88 03 00 	mov    %rax,0x388(%rsp)
  412745:	00 
  412746:	48 8b bc 24 88 03 00 	mov    0x388(%rsp),%rdi
  41274d:	00 
  41274e:	48 8b 84 24 90 03 00 	mov    0x390(%rsp),%rax
  412755:	00 
  412756:	48 83 c0 01          	add    $0x1,%rax
  41275a:	48 8b 94 24 80 03 00 	mov    0x380(%rsp),%rdx
  412761:	00 
  412762:	48 2b 94 24 88 03 00 	sub    0x388(%rsp),%rdx
  412769:	00 
  41276a:	48 83 c2 01          	add    $0x1,%rdx
  41276e:	0f b6 f0             	movzbl %al,%esi
  412771:	e8 5a e9 fe ff       	callq  4010d0 <memset@plt>
  412776:	48 8b 84 24 90 03 00 	mov    0x390(%rsp),%rax
  41277d:	00 
  41277e:	48 83 c0 01          	add    $0x1,%rax
  412782:	48 89 84 24 90 03 00 	mov    %rax,0x390(%rsp)
  412789:	00 
  41278a:	e9 f3 fe ff ff       	jmpq   412682 <_ZL22__cocheck__init_systemiPPcS0_+0x2232>
  41278f:	e9 35 00 00 00       	jmpq   4127c9 <_ZL22__cocheck__init_systemiPPcS0_+0x2379>
  412794:	48 8b 84 24 78 03 00 	mov    0x378(%rsp),%rax
  41279b:	00 
  41279c:	48 c1 e8 03          	shr    $0x3,%rax
  4127a0:	48 05 00 80 ff 7f    	add    $0x7fff8000,%rax
  4127a6:	48 89 84 24 50 03 00 	mov    %rax,0x350(%rsp)
  4127ad:	00 
  4127ae:	48 8b bc 24 50 03 00 	mov    0x350(%rsp),%rdi
  4127b5:	00 
  4127b6:	48 8b 94 24 70 03 00 	mov    0x370(%rsp),%rdx
  4127bd:	00 
  4127be:	48 c1 ea 03          	shr    $0x3,%rdx
  4127c2:	31 f6                	xor    %esi,%esi
  4127c4:	e8 07 e9 fe ff       	callq  4010d0 <memset@plt>
  4127c9:	48 8b 84 24 40 02 00 	mov    0x240(%rsp),%rax
  4127d0:	00 
  4127d1:	48 3b 84 24 20 02 00 	cmp    0x220(%rsp),%rax
  4127d8:	00 
  4127d9:	0f 84 2e 06 00 00    	je     412e0d <_ZL22__cocheck__init_systemiPPcS0_+0x29bd>
  4127df:	48 8b 8c 24 20 02 00 	mov    0x220(%rsp),%rcx
  4127e6:	00 
  4127e7:	48 8b 84 24 40 02 00 	mov    0x240(%rsp),%rax
  4127ee:	00 
  4127ef:	48 2b 84 24 20 02 00 	sub    0x220(%rsp),%rax
  4127f6:	00 
  4127f7:	48 89 8c 24 00 03 00 	mov    %rcx,0x300(%rsp)
  4127fe:	00 
  4127ff:	48 89 84 24 f8 02 00 	mov    %rax,0x2f8(%rsp)
  412806:	00 
  412807:	c6 84 24 f7 02 00 00 	movb   $0x0,0x2f7(%rsp)
  41280e:	00 
  41280f:	48 8b 84 24 00 03 00 	mov    0x300(%rsp),%rax
  412816:	00 
  412817:	48 c1 e8 08          	shr    $0x8,%rax
  41281b:	48 89 84 24 e8 02 00 	mov    %rax,0x2e8(%rsp)
  412822:	00 
  412823:	48 8b 04 25 08 82 61 	mov    0x618208,%rax
  41282a:	00 
  41282b:	48 8b 8c 24 e8 02 00 	mov    0x2e8(%rsp),%rcx
  412832:	00 
  412833:	80 3c 08 00          	cmpb   $0x0,(%rax,%rcx,1)
  412837:	0f 85 49 00 00 00    	jne    412886 <_ZL22__cocheck__init_systemiPPcS0_+0x2436>
  41283d:	48 8b 04 25 08 82 61 	mov    0x618208,%rax
  412844:	00 
  412845:	48 8b 8c 24 e8 02 00 	mov    0x2e8(%rsp),%rcx
  41284c:	00 
  41284d:	c6 04 08 01          	movb   $0x1,(%rax,%rcx,1)
  412851:	48 8b 84 24 e8 02 00 	mov    0x2e8(%rsp),%rax
  412858:	00 
  412859:	48 c1 e0 08          	shl    $0x8,%rax
  41285d:	48 c1 e8 03          	shr    $0x3,%rax
  412861:	48 05 00 80 ff 7f    	add    $0x7fff8000,%rax
  412867:	48 89 84 24 e0 02 00 	mov    %rax,0x2e0(%rsp)
  41286e:	00 
  41286f:	48 8b bc 24 e0 02 00 	mov    0x2e0(%rsp),%rdi
  412876:	00 
  412877:	be ff 00 00 00       	mov    $0xff,%esi
  41287c:	ba 20 00 00 00       	mov    $0x20,%edx
  412881:	e8 4a e8 fe ff       	callq  4010d0 <memset@plt>
  412886:	80 bc 24 f7 02 00 00 	cmpb   $0x0,0x2f7(%rsp)
  41288d:	00 
  41288e:	0f 85 f5 04 00 00    	jne    412d89 <_ZL22__cocheck__init_systemiPPcS0_+0x2939>
  412894:	48 8b 8c 24 00 03 00 	mov    0x300(%rsp),%rcx
  41289b:	00 
  41289c:	48 8b 84 24 f8 02 00 	mov    0x2f8(%rsp),%rax
  4128a3:	00 
  4128a4:	48 89 8c 24 48 03 00 	mov    %rcx,0x348(%rsp)
  4128ab:	00 
  4128ac:	48 89 84 24 40 03 00 	mov    %rax,0x340(%rsp)
  4128b3:	00 
  4128b4:	48 8b 84 24 48 03 00 	mov    0x348(%rsp),%rax
  4128bb:	00 
  4128bc:	48 c1 e8 03          	shr    $0x3,%rax
  4128c0:	48 05 00 80 ff 7f    	add    $0x7fff8000,%rax
  4128c6:	48 89 84 24 38 03 00 	mov    %rax,0x338(%rsp)
  4128cd:	00 
  4128ce:	48 8b 84 24 48 03 00 	mov    0x348(%rsp),%rax
  4128d5:	00 
  4128d6:	48 03 84 24 40 03 00 	add    0x340(%rsp),%rax
  4128dd:	00 
  4128de:	48 83 e8 01          	sub    $0x1,%rax
  4128e2:	48 c1 e8 03          	shr    $0x3,%rax
  4128e6:	48 05 00 80 ff 7f    	add    $0x7fff8000,%rax
  4128ec:	48 83 c0 01          	add    $0x1,%rax
  4128f0:	48 89 84 24 30 03 00 	mov    %rax,0x330(%rsp)
  4128f7:	00 
  4128f8:	48 81 bc 24 40 03 00 	cmpq   $0x80,0x340(%rsp)
  4128ff:	00 80 00 00 00 
  412904:	0f 87 2f 03 00 00    	ja     412c39 <_ZL22__cocheck__init_systemiPPcS0_+0x27e9>
  41290a:	48 8b 84 24 40 03 00 	mov    0x340(%rsp),%rax
  412911:	00 
  412912:	48 83 c0 07          	add    $0x7,%rax
  412916:	48 c1 e8 03          	shr    $0x3,%rax
  41291a:	48 89 84 24 28 03 00 	mov    %rax,0x328(%rsp)
  412921:	00 
  412922:	48 8b 84 24 28 03 00 	mov    0x328(%rsp),%rax
  412929:	00 
  41292a:	48 83 c0 ff          	add    $0xffffffffffffffff,%rax
  41292e:	48 89 04 24          	mov    %rax,(%rsp)
  412932:	48 83 e8 0f          	sub    $0xf,%rax
  412936:	0f 87 e8 02 00 00    	ja     412c24 <_ZL22__cocheck__init_systemiPPcS0_+0x27d4>
  41293c:	48 8b 04 24          	mov    (%rsp),%rax
  412940:	48 8b 04 c5 e8 59 41 	mov    0x4159e8(,%rax,8),%rax
  412947:	00 
  412948:	ff e0                	jmpq   *%rax
  41294a:	48 8b 84 24 30 03 00 	mov    0x330(%rsp),%rax
  412951:	00 
  412952:	48 83 e8 01          	sub    $0x1,%rax
  412956:	c6 00 01             	movb   $0x1,(%rax)
  412959:	e9 cb 02 00 00       	jmpq   412c29 <_ZL22__cocheck__init_systemiPPcS0_+0x27d9>
  41295e:	48 8b 84 24 30 03 00 	mov    0x330(%rsp),%rax
  412965:	00 
  412966:	48 83 e8 02          	sub    $0x2,%rax
  41296a:	66 c7 00 02 01       	movw   $0x102,(%rax)
  41296f:	e9 b5 02 00 00       	jmpq   412c29 <_ZL22__cocheck__init_systemiPPcS0_+0x27d9>
  412974:	48 8b 84 24 30 03 00 	mov    0x330(%rsp),%rax
  41297b:	00 
  41297c:	48 83 e8 01          	sub    $0x1,%rax
  412980:	c6 00 01             	movb   $0x1,(%rax)
  412983:	48 8b 84 24 30 03 00 	mov    0x330(%rsp),%rax
  41298a:	00 
  41298b:	48 83 e8 03          	sub    $0x3,%rax
  41298f:	66 c7 00 02 02       	movw   $0x202,(%rax)
  412994:	e9 90 02 00 00       	jmpq   412c29 <_ZL22__cocheck__init_systemiPPcS0_+0x27d9>
  412999:	48 8b 84 24 30 03 00 	mov    0x330(%rsp),%rax
  4129a0:	00 
  4129a1:	48 83 e8 04          	sub    $0x4,%rax
  4129a5:	c7 00 03 02 02 01    	movl   $0x1020203,(%rax)
  4129ab:	e9 79 02 00 00       	jmpq   412c29 <_ZL22__cocheck__init_systemiPPcS0_+0x27d9>
  4129b0:	48 8b 84 24 30 03 00 	mov    0x330(%rsp),%rax
  4129b7:	00 
  4129b8:	48 83 e8 01          	sub    $0x1,%rax
  4129bc:	c6 00 01             	movb   $0x1,(%rax)
  4129bf:	48 8b 84 24 30 03 00 	mov    0x330(%rsp),%rax
  4129c6:	00 
  4129c7:	48 83 e8 05          	sub    $0x5,%rax
  4129cb:	c7 00 03 03 02 02    	movl   $0x2020303,(%rax)
  4129d1:	e9 53 02 00 00       	jmpq   412c29 <_ZL22__cocheck__init_systemiPPcS0_+0x27d9>
  4129d6:	48 8b 84 24 30 03 00 	mov    0x330(%rsp),%rax
  4129dd:	00 
  4129de:	48 83 e8 02          	sub    $0x2,%rax
  4129e2:	66 c7 00 02 01       	movw   $0x102,(%rax)
  4129e7:	48 8b 84 24 30 03 00 	mov    0x330(%rsp),%rax
  4129ee:	00 
  4129ef:	48 83 e8 06          	sub    $0x6,%rax
  4129f3:	c7 00 03 03 03 02    	movl   $0x2030303,(%rax)
  4129f9:	e9 2b 02 00 00       	jmpq   412c29 <_ZL22__cocheck__init_systemiPPcS0_+0x27d9>
  4129fe:	48 8b 84 24 30 03 00 	mov    0x330(%rsp),%rax
  412a05:	00 
  412a06:	48 83 e8 01          	sub    $0x1,%rax
  412a0a:	c6 00 01             	movb   $0x1,(%rax)
  412a0d:	48 8b 84 24 30 03 00 	mov    0x330(%rsp),%rax
  412a14:	00 
  412a15:	48 83 e8 03          	sub    $0x3,%rax
  412a19:	66 c7 00 02 02       	movw   $0x202,(%rax)
  412a1e:	48 8b 84 24 30 03 00 	mov    0x330(%rsp),%rax
  412a25:	00 
  412a26:	48 83 e8 07          	sub    $0x7,%rax
  412a2a:	c7 00 03 03 03 03    	movl   $0x3030303,(%rax)
  412a30:	e9 f4 01 00 00       	jmpq   412c29 <_ZL22__cocheck__init_systemiPPcS0_+0x27d9>
  412a35:	48 8b 84 24 30 03 00 	mov    0x330(%rsp),%rax
  412a3c:	00 
  412a3d:	48 83 e8 08          	sub    $0x8,%rax
  412a41:	48 b9 04 03 03 03 03 	movabs $0x102020303030304,%rcx
  412a48:	02 02 01 
  412a4b:	48 89 08             	mov    %rcx,(%rax)
  412a4e:	e9 d6 01 00 00       	jmpq   412c29 <_ZL22__cocheck__init_systemiPPcS0_+0x27d9>
  412a53:	48 8b 84 24 30 03 00 	mov    0x330(%rsp),%rax
  412a5a:	00 
  412a5b:	48 83 e8 01          	sub    $0x1,%rax
  412a5f:	c6 00 01             	movb   $0x1,(%rax)
  412a62:	48 8b 84 24 30 03 00 	mov    0x330(%rsp),%rax
  412a69:	00 
  412a6a:	48 83 e8 09          	sub    $0x9,%rax
  412a6e:	48 b9 04 04 03 03 03 	movabs $0x202030303030404,%rcx
  412a75:	03 02 02 
  412a78:	48 89 08             	mov    %rcx,(%rax)
  412a7b:	e9 a9 01 00 00       	jmpq   412c29 <_ZL22__cocheck__init_systemiPPcS0_+0x27d9>
  412a80:	48 8b 84 24 30 03 00 	mov    0x330(%rsp),%rax
  412a87:	00 
  412a88:	48 83 e8 02          	sub    $0x2,%rax
  412a8c:	66 c7 00 02 01       	movw   $0x102,(%rax)
  412a91:	48 8b 84 24 30 03 00 	mov    0x330(%rsp),%rax
  412a98:	00 
  412a99:	48 83 e8 0a          	sub    $0xa,%rax
  412a9d:	48 b9 04 04 04 03 03 	movabs $0x203030303040404,%rcx
  412aa4:	03 03 02 
  412aa7:	48 89 08             	mov    %rcx,(%rax)
  412aaa:	e9 7a 01 00 00       	jmpq   412c29 <_ZL22__cocheck__init_systemiPPcS0_+0x27d9>
  412aaf:	48 8b 84 24 30 03 00 	mov    0x330(%rsp),%rax
  412ab6:	00 
  412ab7:	48 83 e8 01          	sub    $0x1,%rax
  412abb:	c6 00 01             	movb   $0x1,(%rax)
  412abe:	48 8b 84 24 30 03 00 	mov    0x330(%rsp),%rax
  412ac5:	00 
  412ac6:	48 83 e8 03          	sub    $0x3,%rax
  412aca:	66 c7 00 02 02       	movw   $0x202,(%rax)
  412acf:	48 8b 84 24 30 03 00 	mov    0x330(%rsp),%rax
  412ad6:	00 
  412ad7:	48 83 e8 0b          	sub    $0xb,%rax
  412adb:	48 b9 04 04 04 04 03 	movabs $0x303030304040404,%rcx
  412ae2:	03 03 03 
  412ae5:	48 89 08             	mov    %rcx,(%rax)
  412ae8:	e9 3c 01 00 00       	jmpq   412c29 <_ZL22__cocheck__init_systemiPPcS0_+0x27d9>
  412aed:	48 8b 84 24 30 03 00 	mov    0x330(%rsp),%rax
  412af4:	00 
  412af5:	48 83 e8 04          	sub    $0x4,%rax
  412af9:	c7 00 03 02 02 01    	movl   $0x1020203,(%rax)
  412aff:	48 8b 84 24 30 03 00 	mov    0x330(%rsp),%rax
  412b06:	00 
  412b07:	48 83 e8 0c          	sub    $0xc,%rax
  412b0b:	48 b9 04 04 04 04 04 	movabs $0x303030404040404,%rcx
  412b12:	03 03 03 
  412b15:	48 89 08             	mov    %rcx,(%rax)
  412b18:	e9 0c 01 00 00       	jmpq   412c29 <_ZL22__cocheck__init_systemiPPcS0_+0x27d9>
  412b1d:	48 8b 84 24 30 03 00 	mov    0x330(%rsp),%rax
  412b24:	00 
  412b25:	48 83 e8 01          	sub    $0x1,%rax
  412b29:	c6 00 01             	movb   $0x1,(%rax)
  412b2c:	48 8b 84 24 30 03 00 	mov    0x330(%rsp),%rax
  412b33:	00 
  412b34:	48 83 e8 05          	sub    $0x5,%rax
  412b38:	c7 00 03 03 02 02    	movl   $0x2020303,(%rax)
  412b3e:	48 8b 84 24 30 03 00 	mov    0x330(%rsp),%rax
  412b45:	00 
  412b46:	48 83 e8 0d          	sub    $0xd,%rax
  412b4a:	48 b9 04 04 04 04 04 	movabs $0x303040404040404,%rcx
  412b51:	04 03 03 
  412b54:	48 89 08             	mov    %rcx,(%rax)
  412b57:	e9 cd 00 00 00       	jmpq   412c29 <_ZL22__cocheck__init_systemiPPcS0_+0x27d9>
  412b5c:	48 8b 84 24 30 03 00 	mov    0x330(%rsp),%rax
  412b63:	00 
  412b64:	48 83 e8 02          	sub    $0x2,%rax
  412b68:	66 c7 00 02 01       	movw   $0x102,(%rax)
  412b6d:	48 8b 84 24 30 03 00 	mov    0x330(%rsp),%rax
  412b74:	00 
  412b75:	48 83 e8 06          	sub    $0x6,%rax
  412b79:	c7 00 03 03 03 02    	movl   $0x2030303,(%rax)
  412b7f:	48 8b 84 24 30 03 00 	mov    0x330(%rsp),%rax
  412b86:	00 
  412b87:	48 83 e8 0e          	sub    $0xe,%rax
  412b8b:	48 b9 04 04 04 04 04 	movabs $0x304040404040404,%rcx
  412b92:	04 04 03 
  412b95:	48 89 08             	mov    %rcx,(%rax)
  412b98:	e9 8c 00 00 00       	jmpq   412c29 <_ZL22__cocheck__init_systemiPPcS0_+0x27d9>
  412b9d:	48 8b 84 24 30 03 00 	mov    0x330(%rsp),%rax
  412ba4:	00 
  412ba5:	48 83 e8 01          	sub    $0x1,%rax
  412ba9:	c6 00 01             	movb   $0x1,(%rax)
  412bac:	48 8b 84 24 30 03 00 	mov    0x330(%rsp),%rax
  412bb3:	00 
  412bb4:	48 83 e8 03          	sub    $0x3,%rax
  412bb8:	66 c7 00 02 02       	movw   $0x202,(%rax)
  412bbd:	48 8b 84 24 30 03 00 	mov    0x330(%rsp),%rax
  412bc4:	00 
  412bc5:	48 83 e8 07          	sub    $0x7,%rax
  412bc9:	c7 00 03 03 03 03    	movl   $0x3030303,(%rax)
  412bcf:	48 8b 84 24 30 03 00 	mov    0x330(%rsp),%rax
  412bd6:	00 
  412bd7:	48 83 e8 0f          	sub    $0xf,%rax
  412bdb:	48 b9 04 04 04 04 04 	movabs $0x404040404040404,%rcx
  412be2:	04 04 04 
  412be5:	48 89 08             	mov    %rcx,(%rax)
  412be8:	e9 3c 00 00 00       	jmpq   412c29 <_ZL22__cocheck__init_systemiPPcS0_+0x27d9>
  412bed:	48 8b 84 24 30 03 00 	mov    0x330(%rsp),%rax
  412bf4:	00 
  412bf5:	48 83 e8 08          	sub    $0x8,%rax
  412bf9:	48 b9 04 03 03 03 03 	movabs $0x102020303030304,%rcx
  412c00:	02 02 01 
  412c03:	48 89 08             	mov    %rcx,(%rax)
  412c06:	48 8b 84 24 30 03 00 	mov    0x330(%rsp),%rax
  412c0d:	00 
  412c0e:	48 83 e8 10          	sub    $0x10,%rax
  412c12:	48 b9 05 04 04 04 04 	movabs $0x404040404040405,%rcx
  412c19:	04 04 04 
  412c1c:	48 89 08             	mov    %rcx,(%rax)
  412c1f:	e9 05 00 00 00       	jmpq   412c29 <_ZL22__cocheck__init_systemiPPcS0_+0x27d9>
  412c24:	e9 00 00 00 00       	jmpq   412c29 <_ZL22__cocheck__init_systemiPPcS0_+0x27d9>
  412c29:	c7 84 24 24 03 00 00 	movl   $0x1,0x324(%rsp)
  412c30:	01 00 00 00 
  412c34:	e9 4b 01 00 00       	jmpq   412d84 <_ZL22__cocheck__init_systemiPPcS0_+0x2934>
  412c39:	48 8b 84 24 30 03 00 	mov    0x330(%rsp),%rax
  412c40:	00 
  412c41:	48 83 e8 08          	sub    $0x8,%rax
  412c45:	48 b9 04 03 03 03 03 	movabs $0x102020303030304,%rcx
  412c4c:	02 02 01 
  412c4f:	48 89 08             	mov    %rcx,(%rax)
  412c52:	48 8b 84 24 30 03 00 	mov    0x330(%rsp),%rax
  412c59:	00 
  412c5a:	48 83 e8 10          	sub    $0x10,%rax
  412c5e:	48 b9 05 04 04 04 04 	movabs $0x404040404040405,%rcx
  412c65:	04 04 04 
  412c68:	48 89 08             	mov    %rcx,(%rax)
  412c6b:	48 c7 84 24 18 03 00 	movq   $0x4,0x318(%rsp)
  412c72:	00 04 00 00 00 
  412c77:	48 8b 84 24 30 03 00 	mov    0x330(%rsp),%rax
  412c7e:	00 
  412c7f:	48 8b 8c 24 18 03 00 	mov    0x318(%rsp),%rcx
  412c86:	00 
  412c87:	ba 01 00 00 00       	mov    $0x1,%edx
  412c8c:	d3 e2                	shl    %cl,%edx
  412c8e:	89 d1                	mov    %edx,%ecx
  412c90:	48 63 c9             	movslq %ecx,%rcx
  412c93:	48 29 c8             	sub    %rcx,%rax
  412c96:	48 3b 84 24 38 03 00 	cmp    0x338(%rsp),%rax
  412c9d:	00 
  412c9e:	0f 83 1b 00 00 00    	jae    412cbf <_ZL22__cocheck__init_systemiPPcS0_+0x286f>
  412ca4:	c7 84 24 24 03 00 00 	movl   $0x3,0x324(%rsp)
  412cab:	03 00 00 00 
  412caf:	c7 84 24 24 03 00 00 	movl   $0x0,0x324(%rsp)
  412cb6:	00 00 00 00 
  412cba:	e9 c5 00 00 00       	jmpq   412d84 <_ZL22__cocheck__init_systemiPPcS0_+0x2934>
  412cbf:	48 8b 84 24 30 03 00 	mov    0x330(%rsp),%rax
  412cc6:	00 
  412cc7:	48 8b 8c 24 18 03 00 	mov    0x318(%rsp),%rcx
  412cce:	00 
  412ccf:	48 83 c1 01          	add    $0x1,%rcx
  412cd3:	ba 01 00 00 00       	mov    $0x1,%edx
  412cd8:	d3 e2                	shl    %cl,%edx
  412cda:	89 d1                	mov    %edx,%ecx
  412cdc:	48 63 c9             	movslq %ecx,%rcx
  412cdf:	48 29 c8             	sub    %rcx,%rax
  412ce2:	48 83 c0 01          	add    $0x1,%rax
  412ce6:	48 89 84 24 10 03 00 	mov    %rax,0x310(%rsp)
  412ced:	00 
  412cee:	48 8b 84 24 30 03 00 	mov    0x330(%rsp),%rax
  412cf5:	00 
  412cf6:	48 8b 8c 24 18 03 00 	mov    0x318(%rsp),%rcx
  412cfd:	00 
  412cfe:	ba 01 00 00 00       	mov    $0x1,%edx
  412d03:	d3 e2                	shl    %cl,%edx
  412d05:	89 d1                	mov    %edx,%ecx
  412d07:	48 63 c9             	movslq %ecx,%rcx
  412d0a:	48 29 c8             	sub    %rcx,%rax
  412d0d:	48 89 84 24 08 03 00 	mov    %rax,0x308(%rsp)
  412d14:	00 
  412d15:	48 8b 84 24 10 03 00 	mov    0x310(%rsp),%rax
  412d1c:	00 
  412d1d:	48 3b 84 24 38 03 00 	cmp    0x338(%rsp),%rax
  412d24:	00 
  412d25:	0f 83 10 00 00 00    	jae    412d3b <_ZL22__cocheck__init_systemiPPcS0_+0x28eb>
  412d2b:	48 8b 84 24 38 03 00 	mov    0x338(%rsp),%rax
  412d32:	00 
  412d33:	48 89 84 24 10 03 00 	mov    %rax,0x310(%rsp)
  412d3a:	00 
  412d3b:	48 8b bc 24 10 03 00 	mov    0x310(%rsp),%rdi
  412d42:	00 
  412d43:	48 8b 84 24 18 03 00 	mov    0x318(%rsp),%rax
  412d4a:	00 
  412d4b:	48 83 c0 01          	add    $0x1,%rax
  412d4f:	48 8b 94 24 08 03 00 	mov    0x308(%rsp),%rdx
  412d56:	00 
  412d57:	48 2b 94 24 10 03 00 	sub    0x310(%rsp),%rdx
  412d5e:	00 
  412d5f:	48 83 c2 01          	add    $0x1,%rdx
  412d63:	0f b6 f0             	movzbl %al,%esi
  412d66:	e8 65 e3 fe ff       	callq  4010d0 <memset@plt>
  412d6b:	48 8b 84 24 18 03 00 	mov    0x318(%rsp),%rax
  412d72:	00 
  412d73:	48 83 c0 01          	add    $0x1,%rax
  412d77:	48 89 84 24 18 03 00 	mov    %rax,0x318(%rsp)
  412d7e:	00 
  412d7f:	e9 f3 fe ff ff       	jmpq   412c77 <_ZL22__cocheck__init_systemiPPcS0_+0x2827>
  412d84:	e9 35 00 00 00       	jmpq   412dbe <_ZL22__cocheck__init_systemiPPcS0_+0x296e>
  412d89:	48 8b 84 24 00 03 00 	mov    0x300(%rsp),%rax
  412d90:	00 
  412d91:	48 c1 e8 03          	shr    $0x3,%rax
  412d95:	48 05 00 80 ff 7f    	add    $0x7fff8000,%rax
  412d9b:	48 89 84 24 d8 02 00 	mov    %rax,0x2d8(%rsp)
  412da2:	00 
  412da3:	48 8b bc 24 d8 02 00 	mov    0x2d8(%rsp),%rdi
  412daa:	00 
  412dab:	48 8b 94 24 f8 02 00 	mov    0x2f8(%rsp),%rdx
  412db2:	00 
  412db3:	48 c1 ea 03          	shr    $0x3,%rdx
  412db7:	31 f6                	xor    %esi,%esi
  412db9:	e8 12 e3 fe ff       	callq  4010d0 <memset@plt>
  412dbe:	48 8b 84 24 50 02 00 	mov    0x250(%rsp),%rax
  412dc5:	00 
  412dc6:	48 83 e0 07          	and    $0x7,%rax
  412dca:	48 83 f8 00          	cmp    $0x0,%rax
  412dce:	0f 84 34 00 00 00    	je     412e08 <_ZL22__cocheck__init_systemiPPcS0_+0x29b8>
  412dd4:	48 8b 84 24 50 02 00 	mov    0x250(%rsp),%rax
  412ddb:	00 
  412ddc:	48 83 e0 07          	and    $0x7,%rax
  412de0:	ba 08 00 00 00       	mov    $0x8,%edx
  412de5:	48 29 c2             	sub    %rax,%rdx
  412de8:	48 c1 e2 05          	shl    $0x5,%rdx
  412dec:	48 8b 84 24 40 02 00 	mov    0x240(%rsp),%rax
  412df3:	00 
  412df4:	48 c1 e8 03          	shr    $0x3,%rax
  412df8:	0f b6 88 00 80 ff 7f 	movzbl 0x7fff8000(%rax),%ecx
  412dff:	48 01 d1             	add    %rdx,%rcx
  412e02:	88 88 00 80 ff 7f    	mov    %cl,0x7fff8000(%rax)
  412e08:	e9 00 00 00 00       	jmpq   412e0d <_ZL22__cocheck__init_systemiPPcS0_+0x29bd>
  412e0d:	e9 00 00 00 00       	jmpq   412e12 <_ZL22__cocheck__init_systemiPPcS0_+0x29c2>
  412e12:	48 81 c4 c8 03 00 00 	add    $0x3c8,%rsp
  412e19:	c3                   	retq   
  412e1a:	66 0f 1f 44 00 00    	nopw   0x0(%rax,%rax,1)

0000000000412e20 <_ZL22__cocheck__fini_systemv>:
  412e20:	48 83 ec 28          	sub    $0x28,%rsp
  412e24:	48 8b 3c 25 60 83 61 	mov    0x618360,%rdi
  412e2b:	00 
  412e2c:	48 be 1f 5d 41 00 00 	movabs $0x415d1f,%rsi
  412e33:	00 00 00 
  412e36:	b0 00                	mov    $0x0,%al
  412e38:	e8 13 e4 fe ff       	callq  401250 <fprintf@plt>
  412e3d:	48 83 3c 25 b8 84 61 	cmpq   $0x0,0x6184b8
  412e44:	00 00 
  412e46:	0f 84 8f 00 00 00    	je     412edb <_ZL22__cocheck__fini_systemv+0xbb>
  412e4c:	48 8b 04 25 b8 84 61 	mov    0x6184b8,%rax
  412e53:	00 
  412e54:	48 89 44 24 20       	mov    %rax,0x20(%rsp)
  412e59:	48 8b 7c 24 20       	mov    0x20(%rsp),%rdi
  412e5e:	e8 1d 05 00 00       	callq  413380 <_ZNSt3mapImmSt4lessImESaISt4pairIKmmEEE5beginEv>
  412e63:	48 89 44 24 18       	mov    %rax,0x18(%rsp)
  412e68:	48 8b 7c 24 20       	mov    0x20(%rsp),%rdi
  412e6d:	e8 3e 05 00 00       	callq  4133b0 <_ZNSt3mapImmSt4lessImESaISt4pairIKmmEEE3endEv>
  412e72:	48 89 44 24 10       	mov    %rax,0x10(%rsp)
  412e77:	48 8d 7c 24 18       	lea    0x18(%rsp),%rdi
  412e7c:	48 8d 74 24 10       	lea    0x10(%rsp),%rsi
  412e81:	e8 5a 05 00 00       	callq  4133e0 <_ZNKSt17_Rb_tree_iteratorISt4pairIKmmEEneERKS3_>
  412e86:	a8 01                	test   $0x1,%al
  412e88:	0f 85 05 00 00 00    	jne    412e93 <_ZL22__cocheck__fini_systemv+0x73>
  412e8e:	e9 43 00 00 00       	jmpq   412ed6 <_ZL22__cocheck__fini_systemv+0xb6>
  412e93:	48 8d 7c 24 18       	lea    0x18(%rsp),%rdi
  412e98:	e8 73 05 00 00       	callq  413410 <_ZNKSt17_Rb_tree_iteratorISt4pairIKmmEEdeEv>
  412e9d:	48 8b 08             	mov    (%rax),%rcx
  412ea0:	48 89 0c 24          	mov    %rcx,(%rsp)
  412ea4:	48 8b 40 08          	mov    0x8(%rax),%rax
  412ea8:	48 89 44 24 08       	mov    %rax,0x8(%rsp)
  412ead:	48 8b 34 24          	mov    (%rsp),%rsi
  412eb1:	48 8b 54 24 08       	mov    0x8(%rsp),%rdx
  412eb6:	48 bf 53 5b 41 00 00 	movabs $0x415b53,%rdi
  412ebd:	00 00 00 
  412ec0:	b0 00                	mov    $0x0,%al
  412ec2:	e8 99 e1 fe ff       	callq  401060 <printf@plt>
  412ec7:	48 8d 7c 24 18       	lea    0x18(%rsp),%rdi
  412ecc:	e8 5f 05 00 00       	callq  413430 <_ZNSt17_Rb_tree_iteratorISt4pairIKmmEEppEv>
  412ed1:	e9 a1 ff ff ff       	jmpq   412e77 <_ZL22__cocheck__fini_systemv+0x57>
  412ed6:	e9 00 00 00 00       	jmpq   412edb <_ZL22__cocheck__fini_systemv+0xbb>
  412edb:	48 83 c4 28          	add    $0x28,%rsp
  412edf:	c3                   	retq   

0000000000412ee0 <cc_strcpy>:
  412ee0:	48 83 ec 18          	sub    $0x18,%rsp
  412ee4:	48 89 7c 24 10       	mov    %rdi,0x10(%rsp)
  412ee9:	48 89 74 24 08       	mov    %rsi,0x8(%rsp)
  412eee:	48 8b 7c 24 08       	mov    0x8(%rsp),%rdi
  412ef3:	e8 a8 e1 fe ff       	callq  4010a0 <strlen@plt>
  412ef8:	48 89 04 24          	mov    %rax,(%rsp)
  412efc:	48 8b 7c 24 10       	mov    0x10(%rsp),%rdi
  412f01:	48 8b 34 24          	mov    (%rsp),%rsi
  412f05:	48 83 c6 01          	add    $0x1,%rsi
  412f09:	31 c0                	xor    %eax,%eax
  412f0b:	89 c2                	mov    %eax,%edx
  412f0d:	e8 be 28 ff ff       	callq  4057d0 <__cocheck__SequentCheck>
  412f12:	48 8b 7c 24 08       	mov    0x8(%rsp),%rdi
  412f17:	48 8b 34 24          	mov    (%rsp),%rsi
  412f1b:	48 83 c6 01          	add    $0x1,%rsi
  412f1f:	31 c0                	xor    %eax,%eax
  412f21:	89 c2                	mov    %eax,%edx
  412f23:	e8 a8 28 ff ff       	callq  4057d0 <__cocheck__SequentCheck>
  412f28:	48 8b 7c 24 10       	mov    0x10(%rsp),%rdi
  412f2d:	48 8b 74 24 08       	mov    0x8(%rsp),%rsi
  412f32:	e8 29 e2 fe ff       	callq  401160 <strcpy@plt>
  412f37:	48 83 c4 18          	add    $0x18,%rsp
  412f3b:	c3                   	retq   
  412f3c:	0f 1f 40 00          	nopl   0x0(%rax)

0000000000412f40 <cc_strcat>:
  412f40:	48 83 ec 28          	sub    $0x28,%rsp
  412f44:	48 89 7c 24 20       	mov    %rdi,0x20(%rsp)
  412f49:	48 89 74 24 18       	mov    %rsi,0x18(%rsp)
  412f4e:	48 8b 7c 24 20       	mov    0x20(%rsp),%rdi
  412f53:	e8 48 e1 fe ff       	callq  4010a0 <strlen@plt>
  412f58:	48 89 44 24 10       	mov    %rax,0x10(%rsp)
  412f5d:	48 8b 7c 24 18       	mov    0x18(%rsp),%rdi
  412f62:	e8 39 e1 fe ff       	callq  4010a0 <strlen@plt>
  412f67:	48 89 44 24 08       	mov    %rax,0x8(%rsp)
  412f6c:	48 8b 7c 24 20       	mov    0x20(%rsp),%rdi
  412f71:	48 8b 74 24 10       	mov    0x10(%rsp),%rsi
  412f76:	48 03 74 24 08       	add    0x8(%rsp),%rsi
  412f7b:	48 83 c6 01          	add    $0x1,%rsi
  412f7f:	31 c0                	xor    %eax,%eax
  412f81:	89 c2                	mov    %eax,%edx
  412f83:	e8 48 28 ff ff       	callq  4057d0 <__cocheck__SequentCheck>
  412f88:	48 8b 7c 24 18       	mov    0x18(%rsp),%rdi
  412f8d:	48 8b 74 24 08       	mov    0x8(%rsp),%rsi
  412f92:	48 83 c6 01          	add    $0x1,%rsi
  412f96:	31 c0                	xor    %eax,%eax
  412f98:	89 c2                	mov    %eax,%edx
  412f9a:	e8 31 28 ff ff       	callq  4057d0 <__cocheck__SequentCheck>
  412f9f:	48 8b 7c 24 20       	mov    0x20(%rsp),%rdi
  412fa4:	48 8b 74 24 18       	mov    0x18(%rsp),%rsi
  412fa9:	e8 22 e3 fe ff       	callq  4012d0 <strcat@plt>
  412fae:	48 83 c4 28          	add    $0x28,%rsp
  412fb2:	c3                   	retq   
  412fb3:	66 2e 0f 1f 84 00 00 	nopw   %cs:0x0(%rax,%rax,1)
  412fba:	00 00 00 
  412fbd:	0f 1f 00             	nopl   (%rax)

0000000000412fc0 <cc_strncat>:
  412fc0:	48 83 ec 28          	sub    $0x28,%rsp
  412fc4:	48 89 7c 24 20       	mov    %rdi,0x20(%rsp)
  412fc9:	48 89 74 24 18       	mov    %rsi,0x18(%rsp)
  412fce:	48 89 54 24 10       	mov    %rdx,0x10(%rsp)
  412fd3:	48 8b 7c 24 20       	mov    0x20(%rsp),%rdi
  412fd8:	e8 c3 e0 fe ff       	callq  4010a0 <strlen@plt>
  412fdd:	48 89 44 24 08       	mov    %rax,0x8(%rsp)
  412fe2:	48 8b 7c 24 20       	mov    0x20(%rsp),%rdi
  412fe7:	48 8b 74 24 08       	mov    0x8(%rsp),%rsi
  412fec:	48 03 74 24 10       	add    0x10(%rsp),%rsi
  412ff1:	48 83 c6 01          	add    $0x1,%rsi
  412ff5:	31 c0                	xor    %eax,%eax
  412ff7:	89 c2                	mov    %eax,%edx
  412ff9:	e8 d2 27 ff ff       	callq  4057d0 <__cocheck__SequentCheck>
  412ffe:	48 8b 7c 24 18       	mov    0x18(%rsp),%rdi
  413003:	48 8b 74 24 10       	mov    0x10(%rsp),%rsi
  413008:	48 83 c6 01          	add    $0x1,%rsi
  41300c:	31 c0                	xor    %eax,%eax
  41300e:	89 c2                	mov    %eax,%edx
  413010:	e8 bb 27 ff ff       	callq  4057d0 <__cocheck__SequentCheck>
  413015:	48 8b 7c 24 20       	mov    0x20(%rsp),%rdi
  41301a:	48 8b 74 24 18       	mov    0x18(%rsp),%rsi
  41301f:	48 8b 54 24 10       	mov    0x10(%rsp),%rdx
  413024:	e8 e7 e0 fe ff       	callq  401110 <strncat@plt>
  413029:	48 83 c4 28          	add    $0x28,%rsp
  41302d:	c3                   	retq   
  41302e:	66 90                	xchg   %ax,%ax

0000000000413030 <cc_snprintf>:
  413030:	48 89 7c 24 f8       	mov    %rdi,-0x8(%rsp)
  413035:	48 89 74 24 f0       	mov    %rsi,-0x10(%rsp)
  41303a:	48 89 54 24 e8       	mov    %rdx,-0x18(%rsp)
  41303f:	31 c0                	xor    %eax,%eax
  413041:	c3                   	retq   
  413042:	66 2e 0f 1f 84 00 00 	nopw   %cs:0x0(%rax,%rax,1)
  413049:	00 00 00 
  41304c:	0f 1f 40 00          	nopl   0x0(%rax)

0000000000413050 <_ZNSt3mapImmSt4lessImESaISt4pairIKmmEEEC2Ev>:
  413050:	50                   	push   %rax
  413051:	48 89 3c 24          	mov    %rdi,(%rsp)
  413055:	48 8b 3c 24          	mov    (%rsp),%rdi
  413059:	e8 52 02 00 00       	callq  4132b0 <_ZNSt8_Rb_treeImSt4pairIKmmESt10_Select1stIS2_ESt4lessImESaIS2_EEC2Ev>
  41305e:	58                   	pop    %rax
  41305f:	c3                   	retq   

0000000000413060 <_ZNSt3mapImmSt4lessImESaISt4pairIKmmEEEixERS3_>:
  413060:	48 83 ec 68          	sub    $0x68,%rsp
  413064:	48 89 7c 24 60       	mov    %rdi,0x60(%rsp)
  413069:	48 89 74 24 58       	mov    %rsi,0x58(%rsp)
  41306e:	48 8b 7c 24 60       	mov    0x60(%rsp),%rdi
  413073:	48 89 7c 24 08       	mov    %rdi,0x8(%rsp)
  413078:	48 8b 74 24 58       	mov    0x58(%rsp),%rsi
  41307d:	e8 9e 04 00 00       	callq  413520 <_ZNSt3mapImmSt4lessImESaISt4pairIKmmEEE11lower_boundERS3_>
  413082:	48 8b 7c 24 08       	mov    0x8(%rsp),%rdi
  413087:	48 89 44 24 50       	mov    %rax,0x50(%rsp)
  41308c:	e8 1f 03 00 00       	callq  4133b0 <_ZNSt3mapImmSt4lessImESaISt4pairIKmmEEE3endEv>
  413091:	48 89 44 24 48       	mov    %rax,0x48(%rsp)
  413096:	48 8d 7c 24 50       	lea    0x50(%rsp),%rdi
  41309b:	48 8d 74 24 48       	lea    0x48(%rsp),%rsi
  4130a0:	e8 ab 04 00 00       	callq  413550 <_ZNKSt17_Rb_tree_iteratorISt4pairIKmmEEeqERKS3_>
  4130a5:	88 c1                	mov    %al,%cl
  4130a7:	b0 01                	mov    $0x1,%al
  4130a9:	f6 c1 01             	test   $0x1,%cl
  4130ac:	88 44 24 17          	mov    %al,0x17(%rsp)
  4130b0:	0f 85 32 00 00 00    	jne    4130e8 <_ZNSt3mapImmSt4lessImESaISt4pairIKmmEEEixERS3_+0x88>
  4130b6:	48 8b 7c 24 08       	mov    0x8(%rsp),%rdi
  4130bb:	e8 c0 04 00 00       	callq  413580 <_ZNKSt3mapImmSt4lessImESaISt4pairIKmmEEE8key_compEv>
  4130c0:	48 8b 44 24 58       	mov    0x58(%rsp),%rax
  4130c5:	48 89 04 24          	mov    %rax,(%rsp)
  4130c9:	48 8d 7c 24 50       	lea    0x50(%rsp),%rdi
  4130ce:	e8 3d 03 00 00       	callq  413410 <_ZNKSt17_Rb_tree_iteratorISt4pairIKmmEEdeEv>
  4130d3:	48 8b 34 24          	mov    (%rsp),%rsi
  4130d7:	48 89 c2             	mov    %rax,%rdx
  4130da:	48 8d 7c 24 40       	lea    0x40(%rsp),%rdi
  4130df:	e8 bc 04 00 00       	callq  4135a0 <_ZNKSt4lessImEclERKmS2_>
  4130e4:	88 44 24 17          	mov    %al,0x17(%rsp)
  4130e8:	8a 44 24 17          	mov    0x17(%rsp),%al
  4130ec:	a8 01                	test   $0x1,%al
  4130ee:	0f 85 05 00 00 00    	jne    4130f9 <_ZNSt3mapImmSt4lessImESaISt4pairIKmmEEEixERS3_+0x99>
  4130f4:	e9 50 00 00 00       	jmpq   413149 <_ZNSt3mapImmSt4lessImESaISt4pairIKmmEEEixERS3_+0xe9>
  4130f9:	48 8d 7c 24 28       	lea    0x28(%rsp),%rdi
  4130fe:	48 8d 74 24 50       	lea    0x50(%rsp),%rsi
  413103:	e8 d8 05 00 00       	callq  4136e0 <_ZNSt23_Rb_tree_const_iteratorISt4pairIKmmEEC2ERKSt17_Rb_tree_iteratorIS2_E>
  413108:	48 8b 74 24 58       	mov    0x58(%rsp),%rsi
  41310d:	48 8d 7c 24 20       	lea    0x20(%rsp),%rdi
  413112:	e8 e9 05 00 00       	callq  413700 <_ZNSt5tupleIJRKmEEC2IvLb1EEES1_>
  413117:	48 8b 7c 24 08       	mov    0x8(%rsp),%rdi
  41311c:	48 8b 74 24 28       	mov    0x28(%rsp),%rsi
  413121:	48 ba e8 5a 41 00 00 	movabs $0x415ae8,%rdx
  413128:	00 00 00 
  41312b:	48 8d 4c 24 20       	lea    0x20(%rsp),%rcx
  413130:	4c 8d 44 24 18       	lea    0x18(%rsp),%r8
  413135:	e8 96 04 00 00       	callq  4135d0 <_ZNSt8_Rb_treeImSt4pairIKmmESt10_Select1stIS2_ESt4lessImESaIS2_EE22_M_emplace_hint_uniqueIJRKSt21piecewise_construct_tSt5tupleIJRS1_EESD_IJEEEEESt17_Rb_tree_iteratorIS2_ESt23_Rb_tree_const_iteratorIS2_EDpOT_>
  41313a:	48 89 44 24 30       	mov    %rax,0x30(%rsp)
  41313f:	48 8b 44 24 30       	mov    0x30(%rsp),%rax
  413144:	48 89 44 24 50       	mov    %rax,0x50(%rsp)
  413149:	48 8d 7c 24 50       	lea    0x50(%rsp),%rdi
  41314e:	e8 bd 02 00 00       	callq  413410 <_ZNKSt17_Rb_tree_iteratorISt4pairIKmmEEdeEv>
  413153:	48 83 c0 08          	add    $0x8,%rax
  413157:	48 83 c4 68          	add    $0x68,%rsp
  41315b:	c3                   	retq   
  41315c:	0f 1f 40 00          	nopl   0x0(%rax)

0000000000413160 <_Z9load_realm>:
  413160:	48 89 7c 24 f0       	mov    %rdi,-0x10(%rsp)
  413165:	48 8b 44 24 f0       	mov    -0x10(%rsp),%rax
  41316a:	48 c1 e8 03          	shr    $0x3,%rax
  41316e:	48 05 00 80 ff 7f    	add    $0x7fff8000,%rax
  413174:	48 89 44 24 e8       	mov    %rax,-0x18(%rsp)
  413179:	48 8b 44 24 e8       	mov    -0x18(%rsp),%rax
  41317e:	0f b6 00             	movzbl (%rax),%eax
  413181:	83 e8 01             	sub    $0x1,%eax
  413184:	88 44 24 e7          	mov    %al,-0x19(%rsp)
  413188:	0f b6 44 24 e7       	movzbl -0x19(%rsp),%eax
  41318d:	3d fe 00 00 00       	cmp    $0xfe,%eax
  413192:	0f 85 16 00 00 00    	jne    4131ae <_Z9load_realm+0x4e>
  413198:	48 c7 44 24 f8 00 00 	movq   $0x0,-0x8(%rsp)
  41319f:	00 00 
  4131a1:	c7 44 24 e0 01 00 00 	movl   $0x1,-0x20(%rsp)
  4131a8:	00 
  4131a9:	e9 f4 00 00 00       	jmpq   4132a2 <_Z9load_realm+0x142>
  4131ae:	0f b6 44 24 e7       	movzbl -0x19(%rsp),%eax
  4131b3:	3d ff 00 00 00       	cmp    $0xff,%eax
  4131b8:	0f 85 42 00 00 00    	jne    413200 <_Z9load_realm+0xa0>
  4131be:	48 8b 44 24 f0       	mov    -0x10(%rsp),%rax
  4131c3:	48 c1 e8 08          	shr    $0x8,%rax
  4131c7:	48 89 44 24 d8       	mov    %rax,-0x28(%rsp)
  4131cc:	48 8b 04 25 30 82 61 	mov    0x618230,%rax
  4131d3:	00 
  4131d4:	48 8b 4c 24 d8       	mov    -0x28(%rsp),%rcx
  4131d9:	48 63 04 88          	movslq (%rax,%rcx,4),%rax
  4131dd:	48 8b 4c 24 d8       	mov    -0x28(%rsp),%rcx
  4131e2:	48 c1 e1 08          	shl    $0x8,%rcx
  4131e6:	48 01 c8             	add    %rcx,%rax
  4131e9:	48 2b 44 24 f0       	sub    -0x10(%rsp),%rax
  4131ee:	48 89 44 24 f8       	mov    %rax,-0x8(%rsp)
  4131f3:	c7 44 24 e0 01 00 00 	movl   $0x1,-0x20(%rsp)
  4131fa:	00 
  4131fb:	e9 a2 00 00 00       	jmpq   4132a2 <_Z9load_realm+0x142>
  413200:	48 8b 44 24 e8       	mov    -0x18(%rsp),%rax
  413205:	0f b6 4c 24 e7       	movzbl -0x19(%rsp),%ecx
  41320a:	ba 01 00 00 00       	mov    $0x1,%edx
  41320f:	d3 e2                	shl    %cl,%edx
  413211:	89 d1                	mov    %edx,%ecx
  413213:	48 63 c9             	movslq %ecx,%rcx
  413216:	48 01 c8             	add    %rcx,%rax
  413219:	48 83 e8 01          	sub    $0x1,%rax
  41321d:	48 89 44 24 d0       	mov    %rax,-0x30(%rsp)
  413222:	48 8b 44 24 d0       	mov    -0x30(%rsp),%rax
  413227:	0f b6 00             	movzbl (%rax),%eax
  41322a:	83 e8 01             	sub    $0x1,%eax
  41322d:	88 44 24 e7          	mov    %al,-0x19(%rsp)
  413231:	0f b6 c0             	movzbl %al,%eax
  413234:	83 f8 00             	cmp    $0x0,%eax
  413237:	0f 84 46 00 00 00    	je     413283 <_Z9load_realm+0x123>
  41323d:	0f b6 44 24 e7       	movzbl -0x19(%rsp),%eax
  413242:	3d ff 00 00 00       	cmp    $0xff,%eax
  413247:	0f 85 16 00 00 00    	jne    413263 <_Z9load_realm+0x103>
  41324d:	48 c7 44 24 f8 00 00 	movq   $0x0,-0x8(%rsp)
  413254:	00 00 
  413256:	c7 44 24 e0 01 00 00 	movl   $0x1,-0x20(%rsp)
  41325d:	00 
  41325e:	e9 3f 00 00 00       	jmpq   4132a2 <_Z9load_realm+0x142>
  413263:	0f b6 4c 24 e7       	movzbl -0x19(%rsp),%ecx
  413268:	b8 01 00 00 00       	mov    $0x1,%eax
  41326d:	d3 e0                	shl    %cl,%eax
  41326f:	83 e8 01             	sub    $0x1,%eax
  413272:	48 98                	cltq   
  413274:	48 03 44 24 d0       	add    -0x30(%rsp),%rax
  413279:	48 89 44 24 d0       	mov    %rax,-0x30(%rsp)
  41327e:	e9 9f ff ff ff       	jmpq   413222 <_Z9load_realm+0xc2>
  413283:	48 8b 44 24 d0       	mov    -0x30(%rsp),%rax
  413288:	48 2b 44 24 e8       	sub    -0x18(%rsp),%rax
  41328d:	48 83 c0 01          	add    $0x1,%rax
  413291:	48 c1 e0 03          	shl    $0x3,%rax
  413295:	48 89 44 24 f8       	mov    %rax,-0x8(%rsp)
  41329a:	c7 44 24 e0 01 00 00 	movl   $0x1,-0x20(%rsp)
  4132a1:	00 
  4132a2:	48 8b 44 24 f8       	mov    -0x8(%rsp),%rax
  4132a7:	c3                   	retq   
  4132a8:	0f 1f 84 00 00 00 00 	nopl   0x0(%rax,%rax,1)
  4132af:	00 

00000000004132b0 <_ZNSt8_Rb_treeImSt4pairIKmmESt10_Select1stIS2_ESt4lessImESaIS2_EEC2Ev>:
  4132b0:	50                   	push   %rax
  4132b1:	48 89 3c 24          	mov    %rdi,(%rsp)
  4132b5:	48 8b 3c 24          	mov    (%rsp),%rdi
  4132b9:	e8 02 00 00 00       	callq  4132c0 <_ZNSt8_Rb_treeImSt4pairIKmmESt10_Select1stIS2_ESt4lessImESaIS2_EE13_Rb_tree_implIS6_Lb1EEC2Ev>
  4132be:	58                   	pop    %rax
  4132bf:	c3                   	retq   

00000000004132c0 <_ZNSt8_Rb_treeImSt4pairIKmmESt10_Select1stIS2_ESt4lessImESaIS2_EE13_Rb_tree_implIS6_Lb1EEC2Ev>:
  4132c0:	48 83 ec 18          	sub    $0x18,%rsp
  4132c4:	48 89 7c 24 10       	mov    %rdi,0x10(%rsp)
  4132c9:	48 8b 7c 24 10       	mov    0x10(%rsp),%rdi
  4132ce:	48 89 7c 24 08       	mov    %rdi,0x8(%rsp)
  4132d3:	e8 28 00 00 00       	callq  413300 <_ZNSaISt13_Rb_tree_nodeISt4pairIKmmEEEC2Ev>
  4132d8:	48 8b 7c 24 08       	mov    0x8(%rsp),%rdi
  4132dd:	e8 2e 00 00 00       	callq  413310 <_ZNSt20_Rb_tree_key_compareISt4lessImEEC2Ev>
  4132e2:	48 8b 7c 24 08       	mov    0x8(%rsp),%rdi
  4132e7:	48 83 c7 08          	add    $0x8,%rdi
  4132eb:	e8 30 00 00 00       	callq  413320 <_ZNSt15_Rb_tree_headerC2Ev>
  4132f0:	48 83 c4 18          	add    $0x18,%rsp
  4132f4:	c3                   	retq   
  4132f5:	66 2e 0f 1f 84 00 00 	nopw   %cs:0x0(%rax,%rax,1)
  4132fc:	00 00 00 
  4132ff:	90                   	nop

0000000000413300 <_ZNSaISt13_Rb_tree_nodeISt4pairIKmmEEEC2Ev>:
  413300:	50                   	push   %rax
  413301:	48 89 3c 24          	mov    %rdi,(%rsp)
  413305:	48 8b 3c 24          	mov    (%rsp),%rdi
  413309:	e8 32 00 00 00       	callq  413340 <_ZN9__gnu_cxx13new_allocatorISt13_Rb_tree_nodeISt4pairIKmmEEEC2Ev>
  41330e:	58                   	pop    %rax
  41330f:	c3                   	retq   

0000000000413310 <_ZNSt20_Rb_tree_key_compareISt4lessImEEC2Ev>:
  413310:	48 89 7c 24 f8       	mov    %rdi,-0x8(%rsp)
  413315:	c3                   	retq   
  413316:	66 2e 0f 1f 84 00 00 	nopw   %cs:0x0(%rax,%rax,1)
  41331d:	00 00 00 

0000000000413320 <_ZNSt15_Rb_tree_headerC2Ev>:
  413320:	50                   	push   %rax
  413321:	48 89 3c 24          	mov    %rdi,(%rsp)
  413325:	48 8b 3c 24          	mov    (%rsp),%rdi
  413329:	c7 07 00 00 00 00    	movl   $0x0,(%rdi)
  41332f:	e8 1c 00 00 00       	callq  413350 <_ZNSt15_Rb_tree_header8_M_resetEv>
  413334:	58                   	pop    %rax
  413335:	c3                   	retq   
  413336:	66 2e 0f 1f 84 00 00 	nopw   %cs:0x0(%rax,%rax,1)
  41333d:	00 00 00 

0000000000413340 <_ZN9__gnu_cxx13new_allocatorISt13_Rb_tree_nodeISt4pairIKmmEEEC2Ev>:
  413340:	48 89 7c 24 f8       	mov    %rdi,-0x8(%rsp)
  413345:	c3                   	retq   
  413346:	66 2e 0f 1f 84 00 00 	nopw   %cs:0x0(%rax,%rax,1)
  41334d:	00 00 00 

0000000000413350 <_ZNSt15_Rb_tree_header8_M_resetEv>:
  413350:	48 89 7c 24 f8       	mov    %rdi,-0x8(%rsp)
  413355:	48 8b 44 24 f8       	mov    -0x8(%rsp),%rax
  41335a:	48 c7 40 08 00 00 00 	movq   $0x0,0x8(%rax)
  413361:	00 
  413362:	48 89 40 10          	mov    %rax,0x10(%rax)
  413366:	48 89 40 18          	mov    %rax,0x18(%rax)
  41336a:	48 c7 40 20 00 00 00 	movq   $0x0,0x20(%rax)
  413371:	00 
  413372:	c3                   	retq   
  413373:	66 2e 0f 1f 84 00 00 	nopw   %cs:0x0(%rax,%rax,1)
  41337a:	00 00 00 
  41337d:	0f 1f 00             	nopl   (%rax)

0000000000413380 <_ZNSt3mapImmSt4lessImESaISt4pairIKmmEEE5beginEv>:
  413380:	48 83 ec 18          	sub    $0x18,%rsp
  413384:	48 89 7c 24 08       	mov    %rdi,0x8(%rsp)
  413389:	48 8b 7c 24 08       	mov    0x8(%rsp),%rdi
  41338e:	e8 cd 00 00 00       	callq  413460 <_ZNSt8_Rb_treeImSt4pairIKmmESt10_Select1stIS2_ESt4lessImESaIS2_EE5beginEv>
  413393:	48 89 44 24 10       	mov    %rax,0x10(%rsp)
  413398:	48 8b 44 24 10       	mov    0x10(%rsp),%rax
  41339d:	48 83 c4 18          	add    $0x18,%rsp
  4133a1:	c3                   	retq   
  4133a2:	66 2e 0f 1f 84 00 00 	nopw   %cs:0x0(%rax,%rax,1)
  4133a9:	00 00 00 
  4133ac:	0f 1f 40 00          	nopl   0x0(%rax)

00000000004133b0 <_ZNSt3mapImmSt4lessImESaISt4pairIKmmEEE3endEv>:
  4133b0:	48 83 ec 18          	sub    $0x18,%rsp
  4133b4:	48 89 7c 24 08       	mov    %rdi,0x8(%rsp)
  4133b9:	48 8b 7c 24 08       	mov    0x8(%rsp),%rdi
  4133be:	e8 ed 00 00 00       	callq  4134b0 <_ZNSt8_Rb_treeImSt4pairIKmmESt10_Select1stIS2_ESt4lessImESaIS2_EE3endEv>
  4133c3:	48 89 44 24 10       	mov    %rax,0x10(%rsp)
  4133c8:	48 8b 44 24 10       	mov    0x10(%rsp),%rax
  4133cd:	48 83 c4 18          	add    $0x18,%rsp
  4133d1:	c3                   	retq   
  4133d2:	66 2e 0f 1f 84 00 00 	nopw   %cs:0x0(%rax,%rax,1)
  4133d9:	00 00 00 
  4133dc:	0f 1f 40 00          	nopl   0x0(%rax)

00000000004133e0 <_ZNKSt17_Rb_tree_iteratorISt4pairIKmmEEneERKS3_>:
  4133e0:	48 89 7c 24 f8       	mov    %rdi,-0x8(%rsp)
  4133e5:	48 89 74 24 f0       	mov    %rsi,-0x10(%rsp)
  4133ea:	48 8b 44 24 f8       	mov    -0x8(%rsp),%rax
  4133ef:	48 8b 00             	mov    (%rax),%rax
  4133f2:	48 8b 4c 24 f0       	mov    -0x10(%rsp),%rcx
  4133f7:	48 3b 01             	cmp    (%rcx),%rax
  4133fa:	0f 95 c0             	setne  %al
  4133fd:	24 01                	and    $0x1,%al
  4133ff:	0f b6 c0             	movzbl %al,%eax
  413402:	c3                   	retq   
  413403:	66 2e 0f 1f 84 00 00 	nopw   %cs:0x0(%rax,%rax,1)
  41340a:	00 00 00 
  41340d:	0f 1f 00             	nopl   (%rax)

0000000000413410 <_ZNKSt17_Rb_tree_iteratorISt4pairIKmmEEdeEv>:
  413410:	50                   	push   %rax
  413411:	48 89 3c 24          	mov    %rdi,(%rsp)
  413415:	48 8b 04 24          	mov    (%rsp),%rax
  413419:	48 8b 38             	mov    (%rax),%rdi
  41341c:	e8 bf 00 00 00       	callq  4134e0 <_ZNSt13_Rb_tree_nodeISt4pairIKmmEE9_M_valptrEv>
  413421:	59                   	pop    %rcx
  413422:	c3                   	retq   
  413423:	66 2e 0f 1f 84 00 00 	nopw   %cs:0x0(%rax,%rax,1)
  41342a:	00 00 00 
  41342d:	0f 1f 00             	nopl   (%rax)

0000000000413430 <_ZNSt17_Rb_tree_iteratorISt4pairIKmmEEppEv>:
  413430:	48 83 ec 18          	sub    $0x18,%rsp
  413434:	48 89 7c 24 10       	mov    %rdi,0x10(%rsp)
  413439:	48 8b 44 24 10       	mov    0x10(%rsp),%rax
  41343e:	48 89 44 24 08       	mov    %rax,0x8(%rsp)
  413443:	48 8b 38             	mov    (%rax),%rdi
  413446:	e8 d5 dc fe ff       	callq  401120 <_ZSt18_Rb_tree_incrementPSt18_Rb_tree_node_base@plt>
  41344b:	48 89 c1             	mov    %rax,%rcx
  41344e:	48 8b 44 24 08       	mov    0x8(%rsp),%rax
  413453:	48 89 08             	mov    %rcx,(%rax)
  413456:	48 83 c4 18          	add    $0x18,%rsp
  41345a:	c3                   	retq   
  41345b:	0f 1f 44 00 00       	nopl   0x0(%rax,%rax,1)

0000000000413460 <_ZNSt8_Rb_treeImSt4pairIKmmESt10_Select1stIS2_ESt4lessImESaIS2_EE5beginEv>:
  413460:	48 83 ec 18          	sub    $0x18,%rsp
  413464:	48 89 7c 24 08       	mov    %rdi,0x8(%rsp)
  413469:	48 8b 44 24 08       	mov    0x8(%rsp),%rax
  41346e:	48 8b 70 18          	mov    0x18(%rax),%rsi
  413472:	48 8d 7c 24 10       	lea    0x10(%rsp),%rdi
  413477:	e8 14 00 00 00       	callq  413490 <_ZNSt17_Rb_tree_iteratorISt4pairIKmmEEC2EPSt18_Rb_tree_node_base>
  41347c:	48 8b 44 24 10       	mov    0x10(%rsp),%rax
  413481:	48 83 c4 18          	add    $0x18,%rsp
  413485:	c3                   	retq   
  413486:	66 2e 0f 1f 84 00 00 	nopw   %cs:0x0(%rax,%rax,1)
  41348d:	00 00 00 

0000000000413490 <_ZNSt17_Rb_tree_iteratorISt4pairIKmmEEC2EPSt18_Rb_tree_node_base>:
  413490:	48 89 7c 24 f8       	mov    %rdi,-0x8(%rsp)
  413495:	48 89 74 24 f0       	mov    %rsi,-0x10(%rsp)
  41349a:	48 8b 44 24 f8       	mov    -0x8(%rsp),%rax
  41349f:	48 8b 4c 24 f0       	mov    -0x10(%rsp),%rcx
  4134a4:	48 89 08             	mov    %rcx,(%rax)
  4134a7:	c3                   	retq   
  4134a8:	0f 1f 84 00 00 00 00 	nopl   0x0(%rax,%rax,1)
  4134af:	00 

00000000004134b0 <_ZNSt8_Rb_treeImSt4pairIKmmESt10_Select1stIS2_ESt4lessImESaIS2_EE3endEv>:
  4134b0:	48 83 ec 18          	sub    $0x18,%rsp
  4134b4:	48 89 7c 24 08       	mov    %rdi,0x8(%rsp)
  4134b9:	48 8b 74 24 08       	mov    0x8(%rsp),%rsi
  4134be:	48 83 c6 08          	add    $0x8,%rsi
  4134c2:	48 8d 7c 24 10       	lea    0x10(%rsp),%rdi
  4134c7:	e8 c4 ff ff ff       	callq  413490 <_ZNSt17_Rb_tree_iteratorISt4pairIKmmEEC2EPSt18_Rb_tree_node_base>
  4134cc:	48 8b 44 24 10       	mov    0x10(%rsp),%rax
  4134d1:	48 83 c4 18          	add    $0x18,%rsp
  4134d5:	c3                   	retq   
  4134d6:	66 2e 0f 1f 84 00 00 	nopw   %cs:0x0(%rax,%rax,1)
  4134dd:	00 00 00 

00000000004134e0 <_ZNSt13_Rb_tree_nodeISt4pairIKmmEE9_M_valptrEv>:
  4134e0:	50                   	push   %rax
  4134e1:	48 89 3c 24          	mov    %rdi,(%rsp)
  4134e5:	48 8b 3c 24          	mov    (%rsp),%rdi
  4134e9:	48 83 c7 20          	add    $0x20,%rdi
  4134ed:	e8 0e 00 00 00       	callq  413500 <_ZN9__gnu_cxx16__aligned_membufISt4pairIKmmEE6_M_ptrEv>
  4134f2:	59                   	pop    %rcx
  4134f3:	c3                   	retq   
  4134f4:	66 2e 0f 1f 84 00 00 	nopw   %cs:0x0(%rax,%rax,1)
  4134fb:	00 00 00 
  4134fe:	66 90                	xchg   %ax,%ax

0000000000413500 <_ZN9__gnu_cxx16__aligned_membufISt4pairIKmmEE6_M_ptrEv>:
  413500:	50                   	push   %rax
  413501:	48 89 3c 24          	mov    %rdi,(%rsp)
  413505:	48 8b 3c 24          	mov    (%rsp),%rdi
  413509:	e8 02 00 00 00       	callq  413510 <_ZN9__gnu_cxx16__aligned_membufISt4pairIKmmEE7_M_addrEv>
  41350e:	59                   	pop    %rcx
  41350f:	c3                   	retq   

0000000000413510 <_ZN9__gnu_cxx16__aligned_membufISt4pairIKmmEE7_M_addrEv>:
  413510:	48 89 7c 24 f8       	mov    %rdi,-0x8(%rsp)
  413515:	48 8b 44 24 f8       	mov    -0x8(%rsp),%rax
  41351a:	c3                   	retq   
  41351b:	0f 1f 44 00 00       	nopl   0x0(%rax,%rax,1)

0000000000413520 <_ZNSt3mapImmSt4lessImESaISt4pairIKmmEEE11lower_boundERS3_>:
  413520:	48 83 ec 18          	sub    $0x18,%rsp
  413524:	48 89 7c 24 08       	mov    %rdi,0x8(%rsp)
  413529:	48 89 34 24          	mov    %rsi,(%rsp)
  41352d:	48 8b 7c 24 08       	mov    0x8(%rsp),%rdi
  413532:	48 8b 34 24          	mov    (%rsp),%rsi
  413536:	e8 f5 01 00 00       	callq  413730 <_ZNSt8_Rb_treeImSt4pairIKmmESt10_Select1stIS2_ESt4lessImESaIS2_EE11lower_boundERS1_>
  41353b:	48 89 44 24 10       	mov    %rax,0x10(%rsp)
  413540:	48 8b 44 24 10       	mov    0x10(%rsp),%rax
  413545:	48 83 c4 18          	add    $0x18,%rsp
  413549:	c3                   	retq   
  41354a:	66 0f 1f 44 00 00    	nopw   0x0(%rax,%rax,1)

0000000000413550 <_ZNKSt17_Rb_tree_iteratorISt4pairIKmmEEeqERKS3_>:
  413550:	48 89 7c 24 f8       	mov    %rdi,-0x8(%rsp)
  413555:	48 89 74 24 f0       	mov    %rsi,-0x10(%rsp)
  41355a:	48 8b 44 24 f8       	mov    -0x8(%rsp),%rax
  41355f:	48 8b 00             	mov    (%rax),%rax
  413562:	48 8b 4c 24 f0       	mov    -0x10(%rsp),%rcx
  413567:	48 3b 01             	cmp    (%rcx),%rax
  41356a:	0f 94 c0             	sete   %al
  41356d:	24 01                	and    $0x1,%al
  41356f:	0f b6 c0             	movzbl %al,%eax
  413572:	c3                   	retq   
  413573:	66 2e 0f 1f 84 00 00 	nopw   %cs:0x0(%rax,%rax,1)
  41357a:	00 00 00 
  41357d:	0f 1f 00             	nopl   (%rax)

0000000000413580 <_ZNKSt3mapImmSt4lessImESaISt4pairIKmmEEE8key_compEv>:
  413580:	48 83 ec 18          	sub    $0x18,%rsp
  413584:	48 89 7c 24 10       	mov    %rdi,0x10(%rsp)
  413589:	48 8b 7c 24 10       	mov    0x10(%rsp),%rdi
  41358e:	e8 6d 03 00 00       	callq  413900 <_ZNKSt8_Rb_treeImSt4pairIKmmESt10_Select1stIS2_ESt4lessImESaIS2_EE8key_compEv>
  413593:	48 83 c4 18          	add    $0x18,%rsp
  413597:	c3                   	retq   
  413598:	0f 1f 84 00 00 00 00 	nopl   0x0(%rax,%rax,1)
  41359f:	00 

00000000004135a0 <_ZNKSt4lessImEclERKmS2_>:
  4135a0:	48 89 7c 24 f8       	mov    %rdi,-0x8(%rsp)
  4135a5:	48 89 74 24 f0       	mov    %rsi,-0x10(%rsp)
  4135aa:	48 89 54 24 e8       	mov    %rdx,-0x18(%rsp)
  4135af:	48 8b 44 24 f0       	mov    -0x10(%rsp),%rax
  4135b4:	48 8b 00             	mov    (%rax),%rax
  4135b7:	48 8b 4c 24 e8       	mov    -0x18(%rsp),%rcx
  4135bc:	48 3b 01             	cmp    (%rcx),%rax
  4135bf:	0f 92 c0             	setb   %al
  4135c2:	24 01                	and    $0x1,%al
  4135c4:	0f b6 c0             	movzbl %al,%eax
  4135c7:	c3                   	retq   
  4135c8:	0f 1f 84 00 00 00 00 	nopl   0x0(%rax,%rax,1)
  4135cf:	00 

00000000004135d0 <_ZNSt8_Rb_treeImSt4pairIKmmESt10_Select1stIS2_ESt4lessImESaIS2_EE22_M_emplace_hint_uniqueIJRKSt21piecewise_construct_tSt5tupleIJRS1_EESD_IJEEEEESt17_Rb_tree_iteratorIS2_ESt23_Rb_tree_const_iteratorIS2_EDpOT_>:
  4135d0:	48 83 ec 78          	sub    $0x78,%rsp
  4135d4:	48 89 74 24 68       	mov    %rsi,0x68(%rsp)
  4135d9:	48 89 7c 24 60       	mov    %rdi,0x60(%rsp)
  4135de:	48 89 54 24 58       	mov    %rdx,0x58(%rsp)
  4135e3:	48 89 4c 24 50       	mov    %rcx,0x50(%rsp)
  4135e8:	4c 89 44 24 48       	mov    %r8,0x48(%rsp)
  4135ed:	48 8b 44 24 60       	mov    0x60(%rsp),%rax
  4135f2:	48 89 44 24 18       	mov    %rax,0x18(%rsp)
  4135f7:	48 8b 7c 24 58       	mov    0x58(%rsp),%rdi
  4135fc:	e8 9f 03 00 00       	callq  4139a0 <_ZSt7forwardIRKSt21piecewise_construct_tEOT_RNSt16remove_referenceIS3_E4typeE>
  413601:	48 89 44 24 08       	mov    %rax,0x8(%rsp)
  413606:	48 8b 7c 24 50       	mov    0x50(%rsp),%rdi
  41360b:	e8 a0 03 00 00       	callq  4139b0 <_ZSt7forwardISt5tupleIJRKmEEEOT_RNSt16remove_referenceIS4_E4typeE>
  413610:	48 89 44 24 10       	mov    %rax,0x10(%rsp)
  413615:	48 8b 7c 24 48       	mov    0x48(%rsp),%rdi
  41361a:	e8 a1 03 00 00       	callq  4139c0 <_ZSt7forwardISt5tupleIJEEEOT_RNSt16remove_referenceIS2_E4typeE>
  41361f:	48 8b 74 24 08       	mov    0x8(%rsp),%rsi
  413624:	48 8b 54 24 10       	mov    0x10(%rsp),%rdx
  413629:	48 8b 7c 24 18       	mov    0x18(%rsp),%rdi
  41362e:	48 89 c1             	mov    %rax,%rcx
  413631:	e8 da 02 00 00       	callq  413910 <_ZNSt8_Rb_treeImSt4pairIKmmESt10_Select1stIS2_ESt4lessImESaIS2_EE14_M_create_nodeIJRKSt21piecewise_construct_tSt5tupleIJRS1_EESD_IJEEEEEPSt13_Rb_tree_nodeIS2_EDpOT_>
  413636:	48 89 44 24 40       	mov    %rax,0x40(%rsp)
  41363b:	48 8b 44 24 68       	mov    0x68(%rsp),%rax
  413640:	48 89 44 24 28       	mov    %rax,0x28(%rsp)
  413645:	48 8b 7c 24 40       	mov    0x40(%rsp),%rdi
  41364a:	e8 01 02 00 00       	callq  413850 <_ZNSt8_Rb_treeImSt4pairIKmmESt10_Select1stIS2_ESt4lessImESaIS2_EE6_S_keyEPKSt13_Rb_tree_nodeIS2_E>
  41364f:	48 8b 7c 24 18       	mov    0x18(%rsp),%rdi
  413654:	48 89 c2             	mov    %rax,%rdx
  413657:	48 8b 74 24 28       	mov    0x28(%rsp),%rsi
  41365c:	e8 6f 03 00 00       	callq  4139d0 <_ZNSt8_Rb_treeImSt4pairIKmmESt10_Select1stIS2_ESt4lessImESaIS2_EE29_M_get_insert_hint_unique_posESt23_Rb_tree_const_iteratorIS2_ERS1_>
  413661:	48 89 44 24 30       	mov    %rax,0x30(%rsp)
  413666:	48 89 54 24 38       	mov    %rdx,0x38(%rsp)
  41366b:	48 83 7c 24 38 00    	cmpq   $0x0,0x38(%rsp)
  413671:	0f 84 2b 00 00 00    	je     4136a2 <_ZNSt8_Rb_treeImSt4pairIKmmESt10_Select1stIS2_ESt4lessImESaIS2_EE22_M_emplace_hint_uniqueIJRKSt21piecewise_construct_tSt5tupleIJRS1_EESD_IJEEEEESt17_Rb_tree_iteratorIS2_ESt23_Rb_tree_const_iteratorIS2_EDpOT_+0xd2>
  413677:	48 8b 7c 24 18       	mov    0x18(%rsp),%rdi
  41367c:	48 8b 74 24 30       	mov    0x30(%rsp),%rsi
  413681:	48 8b 54 24 38       	mov    0x38(%rsp),%rdx
  413686:	48 8b 4c 24 40       	mov    0x40(%rsp),%rcx
  41368b:	e8 00 08 00 00       	callq  413e90 <_ZNSt8_Rb_treeImSt4pairIKmmESt10_Select1stIS2_ESt4lessImESaIS2_EE14_M_insert_nodeEPSt18_Rb_tree_node_baseSA_PSt13_Rb_tree_nodeIS2_E>
  413690:	48 89 44 24 70       	mov    %rax,0x70(%rsp)
  413695:	c7 44 24 24 01 00 00 	movl   $0x1,0x24(%rsp)
  41369c:	00 
  41369d:	e9 26 00 00 00       	jmpq   4136c8 <_ZNSt8_Rb_treeImSt4pairIKmmESt10_Select1stIS2_ESt4lessImESaIS2_EE22_M_emplace_hint_uniqueIJRKSt21piecewise_construct_tSt5tupleIJRS1_EESD_IJEEEEESt17_Rb_tree_iteratorIS2_ESt23_Rb_tree_const_iteratorIS2_EDpOT_+0xf8>
  4136a2:	48 8b 7c 24 18       	mov    0x18(%rsp),%rdi
  4136a7:	48 8b 74 24 40       	mov    0x40(%rsp),%rsi
  4136ac:	e8 cf 08 00 00       	callq  413f80 <_ZNSt8_Rb_treeImSt4pairIKmmESt10_Select1stIS2_ESt4lessImESaIS2_EE12_M_drop_nodeEPSt13_Rb_tree_nodeIS2_E>
  4136b1:	48 8b 74 24 30       	mov    0x30(%rsp),%rsi
  4136b6:	48 8d 7c 24 70       	lea    0x70(%rsp),%rdi
  4136bb:	e8 d0 fd ff ff       	callq  413490 <_ZNSt17_Rb_tree_iteratorISt4pairIKmmEEC2EPSt18_Rb_tree_node_base>
  4136c0:	c7 44 24 24 01 00 00 	movl   $0x1,0x24(%rsp)
  4136c7:	00 
  4136c8:	48 8b 44 24 70       	mov    0x70(%rsp),%rax
  4136cd:	48 83 c4 78          	add    $0x78,%rsp
  4136d1:	c3                   	retq   
  4136d2:	66 2e 0f 1f 84 00 00 	nopw   %cs:0x0(%rax,%rax,1)
  4136d9:	00 00 00 
  4136dc:	0f 1f 40 00          	nopl   0x0(%rax)

00000000004136e0 <_ZNSt23_Rb_tree_const_iteratorISt4pairIKmmEEC2ERKSt17_Rb_tree_iteratorIS2_E>:
  4136e0:	48 89 7c 24 f8       	mov    %rdi,-0x8(%rsp)
  4136e5:	48 89 74 24 f0       	mov    %rsi,-0x10(%rsp)
  4136ea:	48 8b 44 24 f8       	mov    -0x8(%rsp),%rax
  4136ef:	48 8b 4c 24 f0       	mov    -0x10(%rsp),%rcx
  4136f4:	48 8b 09             	mov    (%rcx),%rcx
  4136f7:	48 89 08             	mov    %rcx,(%rax)
  4136fa:	c3                   	retq   
  4136fb:	0f 1f 44 00 00       	nopl   0x0(%rax,%rax,1)

0000000000413700 <_ZNSt5tupleIJRKmEEC2IvLb1EEES1_>:
  413700:	48 83 ec 18          	sub    $0x18,%rsp
  413704:	48 89 7c 24 10       	mov    %rdi,0x10(%rsp)
  413709:	48 89 74 24 08       	mov    %rsi,0x8(%rsp)
  41370e:	48 8b 7c 24 10       	mov    0x10(%rsp),%rdi
  413713:	48 8b 74 24 08       	mov    0x8(%rsp),%rsi
  413718:	e8 83 11 00 00       	callq  4148a0 <_ZNSt11_Tuple_implILm0EJRKmEEC2ES1_>
  41371d:	48 83 c4 18          	add    $0x18,%rsp
  413721:	c3                   	retq   
  413722:	66 2e 0f 1f 84 00 00 	nopw   %cs:0x0(%rax,%rax,1)
  413729:	00 00 00 
  41372c:	0f 1f 40 00          	nopl   0x0(%rax)

0000000000413730 <_ZNSt8_Rb_treeImSt4pairIKmmESt10_Select1stIS2_ESt4lessImESaIS2_EE11lower_boundERS1_>:
  413730:	48 83 ec 28          	sub    $0x28,%rsp
  413734:	48 89 7c 24 18       	mov    %rdi,0x18(%rsp)
  413739:	48 89 74 24 10       	mov    %rsi,0x10(%rsp)
  41373e:	48 8b 7c 24 18       	mov    0x18(%rsp),%rdi
  413743:	48 89 3c 24          	mov    %rdi,(%rsp)
  413747:	e8 e4 00 00 00       	callq  413830 <_ZNSt8_Rb_treeImSt4pairIKmmESt10_Select1stIS2_ESt4lessImESaIS2_EE8_M_beginEv>
  41374c:	48 8b 3c 24          	mov    (%rsp),%rdi
  413750:	48 89 44 24 08       	mov    %rax,0x8(%rsp)
  413755:	e8 e6 00 00 00       	callq  413840 <_ZNSt8_Rb_treeImSt4pairIKmmESt10_Select1stIS2_ESt4lessImESaIS2_EE6_M_endEv>
  41375a:	48 8b 3c 24          	mov    (%rsp),%rdi
  41375e:	48 8b 74 24 08       	mov    0x8(%rsp),%rsi
  413763:	48 89 c2             	mov    %rax,%rdx
  413766:	48 8b 4c 24 10       	mov    0x10(%rsp),%rcx
  41376b:	e8 10 00 00 00       	callq  413780 <_ZNSt8_Rb_treeImSt4pairIKmmESt10_Select1stIS2_ESt4lessImESaIS2_EE14_M_lower_boundEPSt13_Rb_tree_nodeIS2_EPSt18_Rb_tree_node_baseRS1_>
  413770:	48 89 44 24 20       	mov    %rax,0x20(%rsp)
  413775:	48 8b 44 24 20       	mov    0x20(%rsp),%rax
  41377a:	48 83 c4 28          	add    $0x28,%rsp
  41377e:	c3                   	retq   
  41377f:	90                   	nop

0000000000413780 <_ZNSt8_Rb_treeImSt4pairIKmmESt10_Select1stIS2_ESt4lessImESaIS2_EE14_M_lower_boundEPSt13_Rb_tree_nodeIS2_EPSt18_Rb_tree_node_baseRS1_>:
  413780:	48 83 ec 38          	sub    $0x38,%rsp
  413784:	48 89 7c 24 28       	mov    %rdi,0x28(%rsp)
  413789:	48 89 74 24 20       	mov    %rsi,0x20(%rsp)
  41378e:	48 89 54 24 18       	mov    %rdx,0x18(%rsp)
  413793:	48 89 4c 24 10       	mov    %rcx,0x10(%rsp)
  413798:	48 8b 44 24 28       	mov    0x28(%rsp),%rax
  41379d:	48 89 44 24 08       	mov    %rax,0x8(%rsp)
  4137a2:	48 83 7c 24 20 00    	cmpq   $0x0,0x20(%rsp)
  4137a8:	0f 84 5e 00 00 00    	je     41380c <_ZNSt8_Rb_treeImSt4pairIKmmESt10_Select1stIS2_ESt4lessImESaIS2_EE14_M_lower_boundEPSt13_Rb_tree_nodeIS2_EPSt18_Rb_tree_node_baseRS1_+0x8c>
  4137ae:	48 8b 44 24 08       	mov    0x8(%rsp),%rax
  4137b3:	48 89 04 24          	mov    %rax,(%rsp)
  4137b7:	48 8b 7c 24 20       	mov    0x20(%rsp),%rdi
  4137bc:	e8 8f 00 00 00       	callq  413850 <_ZNSt8_Rb_treeImSt4pairIKmmESt10_Select1stIS2_ESt4lessImESaIS2_EE6_S_keyEPKSt13_Rb_tree_nodeIS2_E>
  4137c1:	48 8b 3c 24          	mov    (%rsp),%rdi
  4137c5:	48 89 c6             	mov    %rax,%rsi
  4137c8:	48 8b 54 24 10       	mov    0x10(%rsp),%rdx
  4137cd:	e8 ce fd ff ff       	callq  4135a0 <_ZNKSt4lessImEclERKmS2_>
  4137d2:	a8 01                	test   $0x1,%al
  4137d4:	0f 85 1e 00 00 00    	jne    4137f8 <_ZNSt8_Rb_treeImSt4pairIKmmESt10_Select1stIS2_ESt4lessImESaIS2_EE14_M_lower_boundEPSt13_Rb_tree_nodeIS2_EPSt18_Rb_tree_node_baseRS1_+0x78>
  4137da:	48 8b 44 24 20       	mov    0x20(%rsp),%rax
  4137df:	48 89 44 24 18       	mov    %rax,0x18(%rsp)
  4137e4:	48 8b 7c 24 20       	mov    0x20(%rsp),%rdi
  4137e9:	e8 92 00 00 00       	callq  413880 <_ZNSt8_Rb_treeImSt4pairIKmmESt10_Select1stIS2_ESt4lessImESaIS2_EE7_S_leftEPSt18_Rb_tree_node_base>
  4137ee:	48 89 44 24 20       	mov    %rax,0x20(%rsp)
  4137f3:	e9 0f 00 00 00       	jmpq   413807 <_ZNSt8_Rb_treeImSt4pairIKmmESt10_Select1stIS2_ESt4lessImESaIS2_EE14_M_lower_boundEPSt13_Rb_tree_nodeIS2_EPSt18_Rb_tree_node_baseRS1_+0x87>
  4137f8:	48 8b 7c 24 20       	mov    0x20(%rsp),%rdi
  4137fd:	e8 8e 00 00 00       	callq  413890 <_ZNSt8_Rb_treeImSt4pairIKmmESt10_Select1stIS2_ESt4lessImESaIS2_EE8_S_rightEPSt18_Rb_tree_node_base>
  413802:	48 89 44 24 20       	mov    %rax,0x20(%rsp)
  413807:	e9 96 ff ff ff       	jmpq   4137a2 <_ZNSt8_Rb_treeImSt4pairIKmmESt10_Select1stIS2_ESt4lessImESaIS2_EE14_M_lower_boundEPSt13_Rb_tree_nodeIS2_EPSt18_Rb_tree_node_baseRS1_+0x22>
  41380c:	48 8b 74 24 18       	mov    0x18(%rsp),%rsi
  413811:	48 8d 7c 24 30       	lea    0x30(%rsp),%rdi
  413816:	e8 75 fc ff ff       	callq  413490 <_ZNSt17_Rb_tree_iteratorISt4pairIKmmEEC2EPSt18_Rb_tree_node_base>
  41381b:	48 8b 44 24 30       	mov    0x30(%rsp),%rax
  413820:	48 83 c4 38          	add    $0x38,%rsp
  413824:	c3                   	retq   
  413825:	66 2e 0f 1f 84 00 00 	nopw   %cs:0x0(%rax,%rax,1)
  41382c:	00 00 00 
  41382f:	90                   	nop

0000000000413830 <_ZNSt8_Rb_treeImSt4pairIKmmESt10_Select1stIS2_ESt4lessImESaIS2_EE8_M_beginEv>:
  413830:	48 89 7c 24 f8       	mov    %rdi,-0x8(%rsp)
  413835:	48 8b 44 24 f8       	mov    -0x8(%rsp),%rax
  41383a:	48 8b 40 10          	mov    0x10(%rax),%rax
  41383e:	c3                   	retq   
  41383f:	90                   	nop

0000000000413840 <_ZNSt8_Rb_treeImSt4pairIKmmESt10_Select1stIS2_ESt4lessImESaIS2_EE6_M_endEv>:
  413840:	48 89 7c 24 f8       	mov    %rdi,-0x8(%rsp)
  413845:	48 8b 44 24 f8       	mov    -0x8(%rsp),%rax
  41384a:	48 83 c0 08          	add    $0x8,%rax
  41384e:	c3                   	retq   
  41384f:	90                   	nop

0000000000413850 <_ZNSt8_Rb_treeImSt4pairIKmmESt10_Select1stIS2_ESt4lessImESaIS2_EE6_S_keyEPKSt13_Rb_tree_nodeIS2_E>:
  413850:	48 83 ec 18          	sub    $0x18,%rsp
  413854:	48 89 7c 24 10       	mov    %rdi,0x10(%rsp)
  413859:	48 8b 7c 24 10       	mov    0x10(%rsp),%rdi
  41385e:	e8 4d 00 00 00       	callq  4138b0 <_ZNSt8_Rb_treeImSt4pairIKmmESt10_Select1stIS2_ESt4lessImESaIS2_EE8_S_valueEPKSt13_Rb_tree_nodeIS2_E>
  413863:	48 89 c6             	mov    %rax,%rsi
  413866:	48 8d 7c 24 08       	lea    0x8(%rsp),%rdi
  41386b:	e8 30 00 00 00       	callq  4138a0 <_ZNKSt10_Select1stISt4pairIKmmEEclERKS2_>
  413870:	48 83 c4 18          	add    $0x18,%rsp
  413874:	c3                   	retq   
  413875:	66 2e 0f 1f 84 00 00 	nopw   %cs:0x0(%rax,%rax,1)
  41387c:	00 00 00 
  41387f:	90                   	nop

0000000000413880 <_ZNSt8_Rb_treeImSt4pairIKmmESt10_Select1stIS2_ESt4lessImESaIS2_EE7_S_leftEPSt18_Rb_tree_node_base>:
  413880:	48 89 7c 24 f8       	mov    %rdi,-0x8(%rsp)
  413885:	48 8b 44 24 f8       	mov    -0x8(%rsp),%rax
  41388a:	48 8b 40 10          	mov    0x10(%rax),%rax
  41388e:	c3                   	retq   
  41388f:	90                   	nop

0000000000413890 <_ZNSt8_Rb_treeImSt4pairIKmmESt10_Select1stIS2_ESt4lessImESaIS2_EE8_S_rightEPSt18_Rb_tree_node_base>:
  413890:	48 89 7c 24 f8       	mov    %rdi,-0x8(%rsp)
  413895:	48 8b 44 24 f8       	mov    -0x8(%rsp),%rax
  41389a:	48 8b 40 18          	mov    0x18(%rax),%rax
  41389e:	c3                   	retq   
  41389f:	90                   	nop

00000000004138a0 <_ZNKSt10_Select1stISt4pairIKmmEEclERKS2_>:
  4138a0:	48 89 7c 24 f8       	mov    %rdi,-0x8(%rsp)
  4138a5:	48 89 74 24 f0       	mov    %rsi,-0x10(%rsp)
  4138aa:	48 8b 44 24 f0       	mov    -0x10(%rsp),%rax
  4138af:	c3                   	retq   

00000000004138b0 <_ZNSt8_Rb_treeImSt4pairIKmmESt10_Select1stIS2_ESt4lessImESaIS2_EE8_S_valueEPKSt13_Rb_tree_nodeIS2_E>:
  4138b0:	50                   	push   %rax
  4138b1:	48 89 3c 24          	mov    %rdi,(%rsp)
  4138b5:	48 8b 3c 24          	mov    (%rsp),%rdi
  4138b9:	e8 02 00 00 00       	callq  4138c0 <_ZNKSt13_Rb_tree_nodeISt4pairIKmmEE9_M_valptrEv>
  4138be:	59                   	pop    %rcx
  4138bf:	c3                   	retq   

00000000004138c0 <_ZNKSt13_Rb_tree_nodeISt4pairIKmmEE9_M_valptrEv>:
  4138c0:	50                   	push   %rax
  4138c1:	48 89 3c 24          	mov    %rdi,(%rsp)
  4138c5:	48 8b 3c 24          	mov    (%rsp),%rdi
  4138c9:	48 83 c7 20          	add    $0x20,%rdi
  4138cd:	e8 0e 00 00 00       	callq  4138e0 <_ZNK9__gnu_cxx16__aligned_membufISt4pairIKmmEE6_M_ptrEv>
  4138d2:	59                   	pop    %rcx
  4138d3:	c3                   	retq   
  4138d4:	66 2e 0f 1f 84 00 00 	nopw   %cs:0x0(%rax,%rax,1)
  4138db:	00 00 00 
  4138de:	66 90                	xchg   %ax,%ax

00000000004138e0 <_ZNK9__gnu_cxx16__aligned_membufISt4pairIKmmEE6_M_ptrEv>:
  4138e0:	50                   	push   %rax
  4138e1:	48 89 3c 24          	mov    %rdi,(%rsp)
  4138e5:	48 8b 3c 24          	mov    (%rsp),%rdi
  4138e9:	e8 02 00 00 00       	callq  4138f0 <_ZNK9__gnu_cxx16__aligned_membufISt4pairIKmmEE7_M_addrEv>
  4138ee:	59                   	pop    %rcx
  4138ef:	c3                   	retq   

00000000004138f0 <_ZNK9__gnu_cxx16__aligned_membufISt4pairIKmmEE7_M_addrEv>:
  4138f0:	48 89 7c 24 f8       	mov    %rdi,-0x8(%rsp)
  4138f5:	48 8b 44 24 f8       	mov    -0x8(%rsp),%rax
  4138fa:	c3                   	retq   
  4138fb:	0f 1f 44 00 00       	nopl   0x0(%rax,%rax,1)

0000000000413900 <_ZNKSt8_Rb_treeImSt4pairIKmmESt10_Select1stIS2_ESt4lessImESaIS2_EE8key_compEv>:
  413900:	48 89 7c 24 f8       	mov    %rdi,-0x8(%rsp)
  413905:	c3                   	retq   
  413906:	66 2e 0f 1f 84 00 00 	nopw   %cs:0x0(%rax,%rax,1)
  41390d:	00 00 00 

0000000000413910 <_ZNSt8_Rb_treeImSt4pairIKmmESt10_Select1stIS2_ESt4lessImESaIS2_EE14_M_create_nodeIJRKSt21piecewise_construct_tSt5tupleIJRS1_EESD_IJEEEEEPSt13_Rb_tree_nodeIS2_EDpOT_>:
  413910:	48 83 ec 48          	sub    $0x48,%rsp
  413914:	48 89 7c 24 40       	mov    %rdi,0x40(%rsp)
  413919:	48 89 74 24 38       	mov    %rsi,0x38(%rsp)
  41391e:	48 89 54 24 30       	mov    %rdx,0x30(%rsp)
  413923:	48 89 4c 24 28       	mov    %rcx,0x28(%rsp)
  413928:	48 8b 7c 24 40       	mov    0x40(%rsp),%rdi
  41392d:	48 89 3c 24          	mov    %rdi,(%rsp)
  413931:	e8 8a 06 00 00       	callq  413fc0 <_ZNSt8_Rb_treeImSt4pairIKmmESt10_Select1stIS2_ESt4lessImESaIS2_EE11_M_get_nodeEv>
  413936:	48 89 44 24 20       	mov    %rax,0x20(%rsp)
  41393b:	48 8b 44 24 20       	mov    0x20(%rsp),%rax
  413940:	48 89 44 24 08       	mov    %rax,0x8(%rsp)
  413945:	48 8b 7c 24 38       	mov    0x38(%rsp),%rdi
  41394a:	e8 51 00 00 00       	callq  4139a0 <_ZSt7forwardIRKSt21piecewise_construct_tEOT_RNSt16remove_referenceIS3_E4typeE>
  41394f:	48 89 44 24 10       	mov    %rax,0x10(%rsp)
  413954:	48 8b 7c 24 30       	mov    0x30(%rsp),%rdi
  413959:	e8 52 00 00 00       	callq  4139b0 <_ZSt7forwardISt5tupleIJRKmEEEOT_RNSt16remove_referenceIS4_E4typeE>
  41395e:	48 89 44 24 18       	mov    %rax,0x18(%rsp)
  413963:	48 8b 7c 24 28       	mov    0x28(%rsp),%rdi
  413968:	e8 53 00 00 00       	callq  4139c0 <_ZSt7forwardISt5tupleIJEEEOT_RNSt16remove_referenceIS2_E4typeE>
  41396d:	48 8b 3c 24          	mov    (%rsp),%rdi
  413971:	48 8b 74 24 08       	mov    0x8(%rsp),%rsi
  413976:	48 8b 54 24 10       	mov    0x10(%rsp),%rdx
  41397b:	48 8b 4c 24 18       	mov    0x18(%rsp),%rcx
  413980:	49 89 c0             	mov    %rax,%r8
  413983:	e8 58 06 00 00       	callq  413fe0 <_ZNSt8_Rb_treeImSt4pairIKmmESt10_Select1stIS2_ESt4lessImESaIS2_EE17_M_construct_nodeIJRKSt21piecewise_construct_tSt5tupleIJRS1_EESD_IJEEEEEvPSt13_Rb_tree_nodeIS2_EDpOT_>
  413988:	48 8b 44 24 20       	mov    0x20(%rsp),%rax
  41398d:	48 83 c4 48          	add    $0x48,%rsp
  413991:	c3                   	retq   
  413992:	66 2e 0f 1f 84 00 00 	nopw   %cs:0x0(%rax,%rax,1)
  413999:	00 00 00 
  41399c:	0f 1f 40 00          	nopl   0x0(%rax)

00000000004139a0 <_ZSt7forwardIRKSt21piecewise_construct_tEOT_RNSt16remove_referenceIS3_E4typeE>:
  4139a0:	48 89 7c 24 f8       	mov    %rdi,-0x8(%rsp)
  4139a5:	48 8b 44 24 f8       	mov    -0x8(%rsp),%rax
  4139aa:	c3                   	retq   
  4139ab:	0f 1f 44 00 00       	nopl   0x0(%rax,%rax,1)

00000000004139b0 <_ZSt7forwardISt5tupleIJRKmEEEOT_RNSt16remove_referenceIS4_E4typeE>:
  4139b0:	48 89 7c 24 f8       	mov    %rdi,-0x8(%rsp)
  4139b5:	48 8b 44 24 f8       	mov    -0x8(%rsp),%rax
  4139ba:	c3                   	retq   
  4139bb:	0f 1f 44 00 00       	nopl   0x0(%rax,%rax,1)

00000000004139c0 <_ZSt7forwardISt5tupleIJEEEOT_RNSt16remove_referenceIS2_E4typeE>:
  4139c0:	48 89 7c 24 f8       	mov    %rdi,-0x8(%rsp)
  4139c5:	48 8b 44 24 f8       	mov    -0x8(%rsp),%rax
  4139ca:	c3                   	retq   
  4139cb:	0f 1f 44 00 00       	nopl   0x0(%rax,%rax,1)

00000000004139d0 <_ZNSt8_Rb_treeImSt4pairIKmmESt10_Select1stIS2_ESt4lessImESaIS2_EE29_M_get_insert_hint_unique_posESt23_Rb_tree_const_iteratorIS2_ERS1_>:
  4139d0:	48 81 ec d8 00 00 00 	sub    $0xd8,%rsp
  4139d7:	48 89 b4 24 c0 00 00 	mov    %rsi,0xc0(%rsp)
  4139de:	00 
  4139df:	48 89 bc 24 b8 00 00 	mov    %rdi,0xb8(%rsp)
  4139e6:	00 
  4139e7:	48 89 94 24 b0 00 00 	mov    %rdx,0xb0(%rsp)
  4139ee:	00 
  4139ef:	48 8b 84 24 b8 00 00 	mov    0xb8(%rsp),%rax
  4139f6:	00 
  4139f7:	48 89 44 24 58       	mov    %rax,0x58(%rsp)
  4139fc:	48 8d bc 24 c0 00 00 	lea    0xc0(%rsp),%rdi
  413a03:	00 
  413a04:	e8 47 09 00 00       	callq  414350 <_ZNKSt23_Rb_tree_const_iteratorISt4pairIKmmEE13_M_const_castEv>
  413a09:	48 8b 7c 24 58       	mov    0x58(%rsp),%rdi
  413a0e:	48 89 84 24 a8 00 00 	mov    %rax,0xa8(%rsp)
  413a15:	00 
  413a16:	48 8b 84 24 a8 00 00 	mov    0xa8(%rsp),%rax
  413a1d:	00 
  413a1e:	48 89 44 24 60       	mov    %rax,0x60(%rsp)
  413a23:	e8 18 fe ff ff       	callq  413840 <_ZNSt8_Rb_treeImSt4pairIKmmESt10_Select1stIS2_ESt4lessImESaIS2_EE6_M_endEv>
  413a28:	48 89 c1             	mov    %rax,%rcx
  413a2b:	48 8b 44 24 60       	mov    0x60(%rsp),%rax
  413a30:	48 39 c8             	cmp    %rcx,%rax
  413a33:	0f 85 c0 00 00 00    	jne    413af9 <_ZNSt8_Rb_treeImSt4pairIKmmESt10_Select1stIS2_ESt4lessImESaIS2_EE29_M_get_insert_hint_unique_posESt23_Rb_tree_const_iteratorIS2_ERS1_+0x129>
  413a39:	48 8b 7c 24 58       	mov    0x58(%rsp),%rdi
  413a3e:	e8 3d 09 00 00       	callq  414380 <_ZNKSt8_Rb_treeImSt4pairIKmmESt10_Select1stIS2_ESt4lessImESaIS2_EE4sizeEv>
  413a43:	48 83 f8 00          	cmp    $0x0,%rax
  413a47:	0f 86 7a 00 00 00    	jbe    413ac7 <_ZNSt8_Rb_treeImSt4pairIKmmESt10_Select1stIS2_ESt4lessImESaIS2_EE29_M_get_insert_hint_unique_posESt23_Rb_tree_const_iteratorIS2_ERS1_+0xf7>
  413a4d:	48 8b 7c 24 58       	mov    0x58(%rsp),%rdi
  413a52:	48 89 f8             	mov    %rdi,%rax
  413a55:	48 89 44 24 50       	mov    %rax,0x50(%rsp)
  413a5a:	e8 61 09 00 00       	callq  4143c0 <_ZNSt8_Rb_treeImSt4pairIKmmESt10_Select1stIS2_ESt4lessImESaIS2_EE12_M_rightmostEv>
  413a5f:	48 8b 38             	mov    (%rax),%rdi
  413a62:	e8 29 09 00 00       	callq  414390 <_ZNSt8_Rb_treeImSt4pairIKmmESt10_Select1stIS2_ESt4lessImESaIS2_EE6_S_keyEPKSt18_Rb_tree_node_base>
  413a67:	48 8b 7c 24 50       	mov    0x50(%rsp),%rdi
  413a6c:	48 89 c6             	mov    %rax,%rsi
  413a6f:	48 8b 94 24 b0 00 00 	mov    0xb0(%rsp),%rdx
  413a76:	00 
  413a77:	e8 24 fb ff ff       	callq  4135a0 <_ZNKSt4lessImEclERKmS2_>
  413a7c:	a8 01                	test   $0x1,%al
  413a7e:	0f 85 05 00 00 00    	jne    413a89 <_ZNSt8_Rb_treeImSt4pairIKmmESt10_Select1stIS2_ESt4lessImESaIS2_EE29_M_get_insert_hint_unique_posESt23_Rb_tree_const_iteratorIS2_ERS1_+0xb9>
  413a84:	e9 3e 00 00 00       	jmpq   413ac7 <_ZNSt8_Rb_treeImSt4pairIKmmESt10_Select1stIS2_ESt4lessImESaIS2_EE29_M_get_insert_hint_unique_posESt23_Rb_tree_const_iteratorIS2_ERS1_+0xf7>
  413a89:	48 8b 7c 24 58       	mov    0x58(%rsp),%rdi
  413a8e:	48 c7 84 24 a0 00 00 	movq   $0x0,0xa0(%rsp)
  413a95:	00 00 00 00 00 
  413a9a:	e8 21 09 00 00       	callq  4143c0 <_ZNSt8_Rb_treeImSt4pairIKmmESt10_Select1stIS2_ESt4lessImESaIS2_EE12_M_rightmostEv>
  413a9f:	48 89 c2             	mov    %rax,%rdx
  413aa2:	48 8d bc 24 c8 00 00 	lea    0xc8(%rsp),%rdi
  413aa9:	00 
  413aaa:	48 8d b4 24 a0 00 00 	lea    0xa0(%rsp),%rsi
  413ab1:	00 
  413ab2:	e8 29 09 00 00       	callq  4143e0 <_ZNSt4pairIPSt18_Rb_tree_node_baseS1_EC2IRS1_Lb1EEERKS1_OT_>
  413ab7:	c7 84 24 9c 00 00 00 	movl   $0x1,0x9c(%rsp)
  413abe:	01 00 00 00 
  413ac2:	e9 a6 03 00 00       	jmpq   413e6d <_ZNSt8_Rb_treeImSt4pairIKmmESt10_Select1stIS2_ESt4lessImESaIS2_EE29_M_get_insert_hint_unique_posESt23_Rb_tree_const_iteratorIS2_ERS1_+0x49d>
  413ac7:	48 8b 7c 24 58       	mov    0x58(%rsp),%rdi
  413acc:	48 8b b4 24 b0 00 00 	mov    0xb0(%rsp),%rsi
  413ad3:	00 
  413ad4:	e8 57 09 00 00       	callq  414430 <_ZNSt8_Rb_treeImSt4pairIKmmESt10_Select1stIS2_ESt4lessImESaIS2_EE24_M_get_insert_unique_posERS1_>
  413ad9:	48 89 84 24 c8 00 00 	mov    %rax,0xc8(%rsp)
  413ae0:	00 
  413ae1:	48 89 94 24 d0 00 00 	mov    %rdx,0xd0(%rsp)
  413ae8:	00 
  413ae9:	c7 84 24 9c 00 00 00 	movl   $0x1,0x9c(%rsp)
  413af0:	01 00 00 00 
  413af4:	e9 74 03 00 00       	jmpq   413e6d <_ZNSt8_Rb_treeImSt4pairIKmmESt10_Select1stIS2_ESt4lessImESaIS2_EE29_M_get_insert_hint_unique_posESt23_Rb_tree_const_iteratorIS2_ERS1_+0x49d>
  413af9:	48 8b 44 24 58       	mov    0x58(%rsp),%rax
  413afe:	48 89 44 24 40       	mov    %rax,0x40(%rsp)
  413b03:	48 8b 84 24 b0 00 00 	mov    0xb0(%rsp),%rax
  413b0a:	00 
  413b0b:	48 89 44 24 48       	mov    %rax,0x48(%rsp)
  413b10:	48 8b bc 24 a8 00 00 	mov    0xa8(%rsp),%rdi
  413b17:	00 
  413b18:	e8 73 08 00 00       	callq  414390 <_ZNSt8_Rb_treeImSt4pairIKmmESt10_Select1stIS2_ESt4lessImESaIS2_EE6_S_keyEPKSt18_Rb_tree_node_base>
  413b1d:	48 8b 7c 24 40       	mov    0x40(%rsp),%rdi
  413b22:	48 8b 74 24 48       	mov    0x48(%rsp),%rsi
  413b27:	48 89 c2             	mov    %rax,%rdx
  413b2a:	e8 71 fa ff ff       	callq  4135a0 <_ZNKSt4lessImEclERKmS2_>
  413b2f:	a8 01                	test   $0x1,%al
  413b31:	0f 85 05 00 00 00    	jne    413b3c <_ZNSt8_Rb_treeImSt4pairIKmmESt10_Select1stIS2_ESt4lessImESaIS2_EE29_M_get_insert_hint_unique_posESt23_Rb_tree_const_iteratorIS2_ERS1_+0x16c>
  413b37:	e9 66 01 00 00       	jmpq   413ca2 <_ZNSt8_Rb_treeImSt4pairIKmmESt10_Select1stIS2_ESt4lessImESaIS2_EE29_M_get_insert_hint_unique_posESt23_Rb_tree_const_iteratorIS2_ERS1_+0x2d2>
  413b3c:	48 8b 7c 24 58       	mov    0x58(%rsp),%rdi
  413b41:	48 8b 84 24 a8 00 00 	mov    0xa8(%rsp),%rax
  413b48:	00 
  413b49:	48 89 84 24 90 00 00 	mov    %rax,0x90(%rsp)
  413b50:	00 
  413b51:	48 8b 84 24 a8 00 00 	mov    0xa8(%rsp),%rax
  413b58:	00 
  413b59:	48 89 44 24 38       	mov    %rax,0x38(%rsp)
  413b5e:	e8 9d 0a 00 00       	callq  414600 <_ZNSt8_Rb_treeImSt4pairIKmmESt10_Select1stIS2_ESt4lessImESaIS2_EE11_M_leftmostEv>
  413b63:	48 89 c1             	mov    %rax,%rcx
  413b66:	48 8b 44 24 38       	mov    0x38(%rsp),%rax
  413b6b:	48 3b 01             	cmp    (%rcx),%rax
  413b6e:	0f 85 3e 00 00 00    	jne    413bb2 <_ZNSt8_Rb_treeImSt4pairIKmmESt10_Select1stIS2_ESt4lessImESaIS2_EE29_M_get_insert_hint_unique_posESt23_Rb_tree_const_iteratorIS2_ERS1_+0x1e2>
  413b74:	48 8b 7c 24 58       	mov    0x58(%rsp),%rdi
  413b79:	e8 82 0a 00 00       	callq  414600 <_ZNSt8_Rb_treeImSt4pairIKmmESt10_Select1stIS2_ESt4lessImESaIS2_EE11_M_leftmostEv>
  413b7e:	48 8b 7c 24 58       	mov    0x58(%rsp),%rdi
  413b83:	48 89 44 24 30       	mov    %rax,0x30(%rsp)
  413b88:	e8 73 0a 00 00       	callq  414600 <_ZNSt8_Rb_treeImSt4pairIKmmESt10_Select1stIS2_ESt4lessImESaIS2_EE11_M_leftmostEv>
  413b8d:	48 8b 74 24 30       	mov    0x30(%rsp),%rsi
  413b92:	48 89 c2             	mov    %rax,%rdx
  413b95:	48 8d bc 24 c8 00 00 	lea    0xc8(%rsp),%rdi
  413b9c:	00 
  413b9d:	e8 7e 0a 00 00       	callq  414620 <_ZNSt4pairIPSt18_Rb_tree_node_baseS1_EC2IRS1_S4_Lb1EEEOT_OT0_>
  413ba2:	c7 84 24 9c 00 00 00 	movl   $0x1,0x9c(%rsp)
  413ba9:	01 00 00 00 
  413bad:	e9 eb 00 00 00       	jmpq   413c9d <_ZNSt8_Rb_treeImSt4pairIKmmESt10_Select1stIS2_ESt4lessImESaIS2_EE29_M_get_insert_hint_unique_posESt23_Rb_tree_const_iteratorIS2_ERS1_+0x2cd>
  413bb2:	48 8b 44 24 58       	mov    0x58(%rsp),%rax
  413bb7:	48 89 44 24 28       	mov    %rax,0x28(%rsp)
  413bbc:	48 8d bc 24 90 00 00 	lea    0x90(%rsp),%rdi
  413bc3:	00 
  413bc4:	e8 b7 0a 00 00       	callq  414680 <_ZNSt17_Rb_tree_iteratorISt4pairIKmmEEmmEv>
  413bc9:	48 8b 38             	mov    (%rax),%rdi
  413bcc:	e8 bf 07 00 00       	callq  414390 <_ZNSt8_Rb_treeImSt4pairIKmmESt10_Select1stIS2_ESt4lessImESaIS2_EE6_S_keyEPKSt18_Rb_tree_node_base>
  413bd1:	48 8b 7c 24 28       	mov    0x28(%rsp),%rdi
  413bd6:	48 89 c6             	mov    %rax,%rsi
  413bd9:	48 8b 94 24 b0 00 00 	mov    0xb0(%rsp),%rdx
  413be0:	00 
  413be1:	e8 ba f9 ff ff       	callq  4135a0 <_ZNKSt4lessImEclERKmS2_>
  413be6:	a8 01                	test   $0x1,%al
  413be8:	0f 85 05 00 00 00    	jne    413bf3 <_ZNSt8_Rb_treeImSt4pairIKmmESt10_Select1stIS2_ESt4lessImESaIS2_EE29_M_get_insert_hint_unique_posESt23_Rb_tree_const_iteratorIS2_ERS1_+0x223>
  413bee:	e9 7d 00 00 00       	jmpq   413c70 <_ZNSt8_Rb_treeImSt4pairIKmmESt10_Select1stIS2_ESt4lessImESaIS2_EE29_M_get_insert_hint_unique_posESt23_Rb_tree_const_iteratorIS2_ERS1_+0x2a0>
  413bf3:	48 8b bc 24 90 00 00 	mov    0x90(%rsp),%rdi
  413bfa:	00 
  413bfb:	e8 90 fc ff ff       	callq  413890 <_ZNSt8_Rb_treeImSt4pairIKmmESt10_Select1stIS2_ESt4lessImESaIS2_EE8_S_rightEPSt18_Rb_tree_node_base>
  413c00:	48 83 f8 00          	cmp    $0x0,%rax
  413c04:	0f 85 39 00 00 00    	jne    413c43 <_ZNSt8_Rb_treeImSt4pairIKmmESt10_Select1stIS2_ESt4lessImESaIS2_EE29_M_get_insert_hint_unique_posESt23_Rb_tree_const_iteratorIS2_ERS1_+0x273>
  413c0a:	48 c7 84 24 88 00 00 	movq   $0x0,0x88(%rsp)
  413c11:	00 00 00 00 00 
  413c16:	48 8d 94 24 90 00 00 	lea    0x90(%rsp),%rdx
  413c1d:	00 
  413c1e:	48 8d bc 24 c8 00 00 	lea    0xc8(%rsp),%rdi
  413c25:	00 
  413c26:	48 8d b4 24 88 00 00 	lea    0x88(%rsp),%rsi
  413c2d:	00 
  413c2e:	e8 ad 07 00 00       	callq  4143e0 <_ZNSt4pairIPSt18_Rb_tree_node_baseS1_EC2IRS1_Lb1EEERKS1_OT_>
  413c33:	c7 84 24 9c 00 00 00 	movl   $0x1,0x9c(%rsp)
  413c3a:	01 00 00 00 
  413c3e:	e9 5a 00 00 00       	jmpq   413c9d <_ZNSt8_Rb_treeImSt4pairIKmmESt10_Select1stIS2_ESt4lessImESaIS2_EE29_M_get_insert_hint_unique_posESt23_Rb_tree_const_iteratorIS2_ERS1_+0x2cd>
  413c43:	48 8d b4 24 a8 00 00 	lea    0xa8(%rsp),%rsi
  413c4a:	00 
  413c4b:	48 8d 94 24 a8 00 00 	lea    0xa8(%rsp),%rdx
  413c52:	00 
  413c53:	48 8d bc 24 c8 00 00 	lea    0xc8(%rsp),%rdi
  413c5a:	00 
  413c5b:	e8 c0 09 00 00       	callq  414620 <_ZNSt4pairIPSt18_Rb_tree_node_baseS1_EC2IRS1_S4_Lb1EEEOT_OT0_>
  413c60:	c7 84 24 9c 00 00 00 	movl   $0x1,0x9c(%rsp)
  413c67:	01 00 00 00 
  413c6b:	e9 2d 00 00 00       	jmpq   413c9d <_ZNSt8_Rb_treeImSt4pairIKmmESt10_Select1stIS2_ESt4lessImESaIS2_EE29_M_get_insert_hint_unique_posESt23_Rb_tree_const_iteratorIS2_ERS1_+0x2cd>
  413c70:	48 8b 7c 24 58       	mov    0x58(%rsp),%rdi
  413c75:	48 8b b4 24 b0 00 00 	mov    0xb0(%rsp),%rsi
  413c7c:	00 
  413c7d:	e8 ae 07 00 00       	callq  414430 <_ZNSt8_Rb_treeImSt4pairIKmmESt10_Select1stIS2_ESt4lessImESaIS2_EE24_M_get_insert_unique_posERS1_>
  413c82:	48 89 84 24 c8 00 00 	mov    %rax,0xc8(%rsp)
  413c89:	00 
  413c8a:	48 89 94 24 d0 00 00 	mov    %rdx,0xd0(%rsp)
  413c91:	00 
  413c92:	c7 84 24 9c 00 00 00 	movl   $0x1,0x9c(%rsp)
  413c99:	01 00 00 00 
  413c9d:	e9 cb 01 00 00       	jmpq   413e6d <_ZNSt8_Rb_treeImSt4pairIKmmESt10_Select1stIS2_ESt4lessImESaIS2_EE29_M_get_insert_hint_unique_posESt23_Rb_tree_const_iteratorIS2_ERS1_+0x49d>
  413ca2:	48 8b 44 24 58       	mov    0x58(%rsp),%rax
  413ca7:	48 89 44 24 20       	mov    %rax,0x20(%rsp)
  413cac:	48 8b bc 24 a8 00 00 	mov    0xa8(%rsp),%rdi
  413cb3:	00 
  413cb4:	e8 d7 06 00 00       	callq  414390 <_ZNSt8_Rb_treeImSt4pairIKmmESt10_Select1stIS2_ESt4lessImESaIS2_EE6_S_keyEPKSt18_Rb_tree_node_base>
  413cb9:	48 8b 7c 24 20       	mov    0x20(%rsp),%rdi
  413cbe:	48 89 c6             	mov    %rax,%rsi
  413cc1:	48 8b 94 24 b0 00 00 	mov    0xb0(%rsp),%rdx
  413cc8:	00 
  413cc9:	e8 d2 f8 ff ff       	callq  4135a0 <_ZNKSt4lessImEclERKmS2_>
  413cce:	a8 01                	test   $0x1,%al
  413cd0:	0f 85 05 00 00 00    	jne    413cdb <_ZNSt8_Rb_treeImSt4pairIKmmESt10_Select1stIS2_ESt4lessImESaIS2_EE29_M_get_insert_hint_unique_posESt23_Rb_tree_const_iteratorIS2_ERS1_+0x30b>
  413cd6:	e9 64 01 00 00       	jmpq   413e3f <_ZNSt8_Rb_treeImSt4pairIKmmESt10_Select1stIS2_ESt4lessImESaIS2_EE29_M_get_insert_hint_unique_posESt23_Rb_tree_const_iteratorIS2_ERS1_+0x46f>
  413cdb:	48 8b 7c 24 58       	mov    0x58(%rsp),%rdi
  413ce0:	48 8b 84 24 a8 00 00 	mov    0xa8(%rsp),%rax
  413ce7:	00 
  413ce8:	48 89 84 24 80 00 00 	mov    %rax,0x80(%rsp)
  413cef:	00 
  413cf0:	48 8b 84 24 a8 00 00 	mov    0xa8(%rsp),%rax
  413cf7:	00 
  413cf8:	48 89 44 24 18       	mov    %rax,0x18(%rsp)
  413cfd:	e8 be 06 00 00       	callq  4143c0 <_ZNSt8_Rb_treeImSt4pairIKmmESt10_Select1stIS2_ESt4lessImESaIS2_EE12_M_rightmostEv>
  413d02:	48 89 c1             	mov    %rax,%rcx
  413d05:	48 8b 44 24 18       	mov    0x18(%rsp),%rax
  413d0a:	48 3b 01             	cmp    (%rcx),%rax
  413d0d:	0f 85 38 00 00 00    	jne    413d4b <_ZNSt8_Rb_treeImSt4pairIKmmESt10_Select1stIS2_ESt4lessImESaIS2_EE29_M_get_insert_hint_unique_posESt23_Rb_tree_const_iteratorIS2_ERS1_+0x37b>
  413d13:	48 8b 7c 24 58       	mov    0x58(%rsp),%rdi
  413d18:	48 c7 44 24 78 00 00 	movq   $0x0,0x78(%rsp)
  413d1f:	00 00 
  413d21:	e8 9a 06 00 00       	callq  4143c0 <_ZNSt8_Rb_treeImSt4pairIKmmESt10_Select1stIS2_ESt4lessImESaIS2_EE12_M_rightmostEv>
  413d26:	48 89 c2             	mov    %rax,%rdx
  413d29:	48 8d bc 24 c8 00 00 	lea    0xc8(%rsp),%rdi
  413d30:	00 
  413d31:	48 8d 74 24 78       	lea    0x78(%rsp),%rsi
  413d36:	e8 a5 06 00 00       	callq  4143e0 <_ZNSt4pairIPSt18_Rb_tree_node_baseS1_EC2IRS1_Lb1EEERKS1_OT_>
  413d3b:	c7 84 24 9c 00 00 00 	movl   $0x1,0x9c(%rsp)
  413d42:	01 00 00 00 
  413d46:	e9 ef 00 00 00       	jmpq   413e3a <_ZNSt8_Rb_treeImSt4pairIKmmESt10_Select1stIS2_ESt4lessImESaIS2_EE29_M_get_insert_hint_unique_posESt23_Rb_tree_const_iteratorIS2_ERS1_+0x46a>
  413d4b:	48 8b 44 24 58       	mov    0x58(%rsp),%rax
  413d50:	48 89 44 24 08       	mov    %rax,0x8(%rsp)
  413d55:	48 8b 84 24 b0 00 00 	mov    0xb0(%rsp),%rax
  413d5c:	00 
  413d5d:	48 89 44 24 10       	mov    %rax,0x10(%rsp)
  413d62:	48 8d bc 24 80 00 00 	lea    0x80(%rsp),%rdi
  413d69:	00 
  413d6a:	e8 c1 f6 ff ff       	callq  413430 <_ZNSt17_Rb_tree_iteratorISt4pairIKmmEEppEv>
  413d6f:	48 8b 38             	mov    (%rax),%rdi
  413d72:	e8 19 06 00 00       	callq  414390 <_ZNSt8_Rb_treeImSt4pairIKmmESt10_Select1stIS2_ESt4lessImESaIS2_EE6_S_keyEPKSt18_Rb_tree_node_base>
  413d77:	48 8b 7c 24 08       	mov    0x8(%rsp),%rdi
  413d7c:	48 8b 74 24 10       	mov    0x10(%rsp),%rsi
  413d81:	48 89 c2             	mov    %rax,%rdx
  413d84:	e8 17 f8 ff ff       	callq  4135a0 <_ZNKSt4lessImEclERKmS2_>
  413d89:	a8 01                	test   $0x1,%al
  413d8b:	0f 85 05 00 00 00    	jne    413d96 <_ZNSt8_Rb_treeImSt4pairIKmmESt10_Select1stIS2_ESt4lessImESaIS2_EE29_M_get_insert_hint_unique_posESt23_Rb_tree_const_iteratorIS2_ERS1_+0x3c6>
  413d91:	e9 77 00 00 00       	jmpq   413e0d <_ZNSt8_Rb_treeImSt4pairIKmmESt10_Select1stIS2_ESt4lessImESaIS2_EE29_M_get_insert_hint_unique_posESt23_Rb_tree_const_iteratorIS2_ERS1_+0x43d>
  413d96:	48 8b bc 24 a8 00 00 	mov    0xa8(%rsp),%rdi
  413d9d:	00 
  413d9e:	e8 ed fa ff ff       	callq  413890 <_ZNSt8_Rb_treeImSt4pairIKmmESt10_Select1stIS2_ESt4lessImESaIS2_EE8_S_rightEPSt18_Rb_tree_node_base>
  413da3:	48 83 f8 00          	cmp    $0x0,%rax
  413da7:	0f 85 33 00 00 00    	jne    413de0 <_ZNSt8_Rb_treeImSt4pairIKmmESt10_Select1stIS2_ESt4lessImESaIS2_EE29_M_get_insert_hint_unique_posESt23_Rb_tree_const_iteratorIS2_ERS1_+0x410>
  413dad:	48 c7 44 24 70 00 00 	movq   $0x0,0x70(%rsp)
  413db4:	00 00 
  413db6:	48 8d 94 24 a8 00 00 	lea    0xa8(%rsp),%rdx
  413dbd:	00 
  413dbe:	48 8d bc 24 c8 00 00 	lea    0xc8(%rsp),%rdi
  413dc5:	00 
  413dc6:	48 8d 74 24 70       	lea    0x70(%rsp),%rsi
  413dcb:	e8 10 06 00 00       	callq  4143e0 <_ZNSt4pairIPSt18_Rb_tree_node_baseS1_EC2IRS1_Lb1EEERKS1_OT_>
  413dd0:	c7 84 24 9c 00 00 00 	movl   $0x1,0x9c(%rsp)
  413dd7:	01 00 00 00 
  413ddb:	e9 5a 00 00 00       	jmpq   413e3a <_ZNSt8_Rb_treeImSt4pairIKmmESt10_Select1stIS2_ESt4lessImESaIS2_EE29_M_get_insert_hint_unique_posESt23_Rb_tree_const_iteratorIS2_ERS1_+0x46a>
  413de0:	48 8d b4 24 80 00 00 	lea    0x80(%rsp),%rsi
  413de7:	00 
  413de8:	48 8d 94 24 80 00 00 	lea    0x80(%rsp),%rdx
  413def:	00 
  413df0:	48 8d bc 24 c8 00 00 	lea    0xc8(%rsp),%rdi
  413df7:	00 
  413df8:	e8 23 08 00 00       	callq  414620 <_ZNSt4pairIPSt18_Rb_tree_node_baseS1_EC2IRS1_S4_Lb1EEEOT_OT0_>
  413dfd:	c7 84 24 9c 00 00 00 	movl   $0x1,0x9c(%rsp)
  413e04:	01 00 00 00 
  413e08:	e9 2d 00 00 00       	jmpq   413e3a <_ZNSt8_Rb_treeImSt4pairIKmmESt10_Select1stIS2_ESt4lessImESaIS2_EE29_M_get_insert_hint_unique_posESt23_Rb_tree_const_iteratorIS2_ERS1_+0x46a>
  413e0d:	48 8b 7c 24 58       	mov    0x58(%rsp),%rdi
  413e12:	48 8b b4 24 b0 00 00 	mov    0xb0(%rsp),%rsi
  413e19:	00 
  413e1a:	e8 11 06 00 00       	callq  414430 <_ZNSt8_Rb_treeImSt4pairIKmmESt10_Select1stIS2_ESt4lessImESaIS2_EE24_M_get_insert_unique_posERS1_>
  413e1f:	48 89 84 24 c8 00 00 	mov    %rax,0xc8(%rsp)
  413e26:	00 
  413e27:	48 89 94 24 d0 00 00 	mov    %rdx,0xd0(%rsp)
  413e2e:	00 
  413e2f:	c7 84 24 9c 00 00 00 	movl   $0x1,0x9c(%rsp)
  413e36:	01 00 00 00 
  413e3a:	e9 2e 00 00 00       	jmpq   413e6d <_ZNSt8_Rb_treeImSt4pairIKmmESt10_Select1stIS2_ESt4lessImESaIS2_EE29_M_get_insert_hint_unique_posESt23_Rb_tree_const_iteratorIS2_ERS1_+0x49d>
  413e3f:	48 8d b4 24 a8 00 00 	lea    0xa8(%rsp),%rsi
  413e46:	00 
  413e47:	48 c7 44 24 68 00 00 	movq   $0x0,0x68(%rsp)
  413e4e:	00 00 
  413e50:	48 8d bc 24 c8 00 00 	lea    0xc8(%rsp),%rdi
  413e57:	00 
  413e58:	48 8d 54 24 68       	lea    0x68(%rsp),%rdx
  413e5d:	e8 4e 08 00 00       	callq  4146b0 <_ZNSt4pairIPSt18_Rb_tree_node_baseS1_EC2IRS1_Lb1EEEOT_RKS1_>
  413e62:	c7 84 24 9c 00 00 00 	movl   $0x1,0x9c(%rsp)
  413e69:	01 00 00 00 
  413e6d:	48 8b 84 24 c8 00 00 	mov    0xc8(%rsp),%rax
  413e74:	00 
  413e75:	48 8b 94 24 d0 00 00 	mov    0xd0(%rsp),%rdx
  413e7c:	00 
  413e7d:	48 81 c4 d8 00 00 00 	add    $0xd8,%rsp
  413e84:	c3                   	retq   
  413e85:	66 2e 0f 1f 84 00 00 	nopw   %cs:0x0(%rax,%rax,1)
  413e8c:	00 00 00 
  413e8f:	90                   	nop

0000000000413e90 <_ZNSt8_Rb_treeImSt4pairIKmmESt10_Select1stIS2_ESt4lessImESaIS2_EE14_M_insert_nodeEPSt18_Rb_tree_node_baseSA_PSt13_Rb_tree_nodeIS2_E>:
  413e90:	48 83 ec 58          	sub    $0x58,%rsp
  413e94:	48 89 7c 24 48       	mov    %rdi,0x48(%rsp)
  413e99:	48 89 74 24 40       	mov    %rsi,0x40(%rsp)
  413e9e:	48 89 54 24 38       	mov    %rdx,0x38(%rsp)
  413ea3:	48 89 4c 24 30       	mov    %rcx,0x30(%rsp)
  413ea8:	48 8b 44 24 48       	mov    0x48(%rsp),%rax
  413ead:	48 89 44 24 20       	mov    %rax,0x20(%rsp)
  413eb2:	b0 01                	mov    $0x1,%al
  413eb4:	48 83 7c 24 40 00    	cmpq   $0x0,0x40(%rsp)
  413eba:	88 44 24 2e          	mov    %al,0x2e(%rsp)
  413ebe:	0f 85 64 00 00 00    	jne    413f28 <_ZNSt8_Rb_treeImSt4pairIKmmESt10_Select1stIS2_ESt4lessImESaIS2_EE14_M_insert_nodeEPSt18_Rb_tree_node_baseSA_PSt13_Rb_tree_nodeIS2_E+0x98>
  413ec4:	48 8b 7c 24 20       	mov    0x20(%rsp),%rdi
  413ec9:	48 8b 44 24 38       	mov    0x38(%rsp),%rax
  413ece:	48 89 44 24 18       	mov    %rax,0x18(%rsp)
  413ed3:	e8 68 f9 ff ff       	callq  413840 <_ZNSt8_Rb_treeImSt4pairIKmmESt10_Select1stIS2_ESt4lessImESaIS2_EE6_M_endEv>
  413ed8:	48 8b 4c 24 18       	mov    0x18(%rsp),%rcx
  413edd:	48 89 c2             	mov    %rax,%rdx
  413ee0:	b0 01                	mov    $0x1,%al
  413ee2:	48 39 d1             	cmp    %rdx,%rcx
  413ee5:	88 44 24 2e          	mov    %al,0x2e(%rsp)
  413ee9:	0f 84 39 00 00 00    	je     413f28 <_ZNSt8_Rb_treeImSt4pairIKmmESt10_Select1stIS2_ESt4lessImESaIS2_EE14_M_insert_nodeEPSt18_Rb_tree_node_baseSA_PSt13_Rb_tree_nodeIS2_E+0x98>
  413eef:	48 8b 44 24 20       	mov    0x20(%rsp),%rax
  413ef4:	48 89 44 24 08       	mov    %rax,0x8(%rsp)
  413ef9:	48 8b 7c 24 30       	mov    0x30(%rsp),%rdi
  413efe:	e8 4d f9 ff ff       	callq  413850 <_ZNSt8_Rb_treeImSt4pairIKmmESt10_Select1stIS2_ESt4lessImESaIS2_EE6_S_keyEPKSt13_Rb_tree_nodeIS2_E>
  413f03:	48 89 44 24 10       	mov    %rax,0x10(%rsp)
  413f08:	48 8b 7c 24 38       	mov    0x38(%rsp),%rdi
  413f0d:	e8 7e 04 00 00       	callq  414390 <_ZNSt8_Rb_treeImSt4pairIKmmESt10_Select1stIS2_ESt4lessImESaIS2_EE6_S_keyEPKSt18_Rb_tree_node_base>
  413f12:	48 8b 7c 24 08       	mov    0x8(%rsp),%rdi
  413f17:	48 8b 74 24 10       	mov    0x10(%rsp),%rsi
  413f1c:	48 89 c2             	mov    %rax,%rdx
  413f1f:	e8 7c f6 ff ff       	callq  4135a0 <_ZNKSt4lessImEclERKmS2_>
  413f24:	88 44 24 2e          	mov    %al,0x2e(%rsp)
  413f28:	48 8b 4c 24 20       	mov    0x20(%rsp),%rcx
  413f2d:	8a 44 24 2e          	mov    0x2e(%rsp),%al
  413f31:	24 01                	and    $0x1,%al
  413f33:	88 44 24 2f          	mov    %al,0x2f(%rsp)
  413f37:	8a 44 24 2f          	mov    0x2f(%rsp),%al
  413f3b:	48 8b 74 24 30       	mov    0x30(%rsp),%rsi
  413f40:	48 8b 54 24 38       	mov    0x38(%rsp),%rdx
  413f45:	48 83 c1 08          	add    $0x8,%rcx
  413f49:	24 01                	and    $0x1,%al
  413f4b:	0f b6 f8             	movzbl %al,%edi
  413f4e:	e8 1d d1 fe ff       	callq  401070 <_ZSt29_Rb_tree_insert_and_rebalancebPSt18_Rb_tree_node_baseS0_RS_@plt>
  413f53:	48 8b 44 24 20       	mov    0x20(%rsp),%rax
  413f58:	48 8b 48 28          	mov    0x28(%rax),%rcx
  413f5c:	48 83 c1 01          	add    $0x1,%rcx
  413f60:	48 89 48 28          	mov    %rcx,0x28(%rax)
  413f64:	48 8b 74 24 30       	mov    0x30(%rsp),%rsi
  413f69:	48 8d 7c 24 50       	lea    0x50(%rsp),%rdi
  413f6e:	e8 1d f5 ff ff       	callq  413490 <_ZNSt17_Rb_tree_iteratorISt4pairIKmmEEC2EPSt18_Rb_tree_node_base>
  413f73:	48 8b 44 24 50       	mov    0x50(%rsp),%rax
  413f78:	48 83 c4 58          	add    $0x58,%rsp
  413f7c:	c3                   	retq   
  413f7d:	0f 1f 00             	nopl   (%rax)

0000000000413f80 <_ZNSt8_Rb_treeImSt4pairIKmmESt10_Select1stIS2_ESt4lessImESaIS2_EE12_M_drop_nodeEPSt13_Rb_tree_nodeIS2_E>:
  413f80:	48 83 ec 18          	sub    $0x18,%rsp
  413f84:	48 89 7c 24 10       	mov    %rdi,0x10(%rsp)
  413f89:	48 89 74 24 08       	mov    %rsi,0x8(%rsp)
  413f8e:	48 8b 7c 24 10       	mov    0x10(%rsp),%rdi
  413f93:	48 89 3c 24          	mov    %rdi,(%rsp)
  413f97:	48 8b 74 24 08       	mov    0x8(%rsp),%rsi
  413f9c:	e8 ef 07 00 00       	callq  414790 <_ZNSt8_Rb_treeImSt4pairIKmmESt10_Select1stIS2_ESt4lessImESaIS2_EE15_M_destroy_nodeEPSt13_Rb_tree_nodeIS2_E>
  413fa1:	48 8b 3c 24          	mov    (%rsp),%rdi
  413fa5:	48 8b 74 24 08       	mov    0x8(%rsp),%rsi
  413faa:	e8 21 08 00 00       	callq  4147d0 <_ZNSt8_Rb_treeImSt4pairIKmmESt10_Select1stIS2_ESt4lessImESaIS2_EE11_M_put_nodeEPSt13_Rb_tree_nodeIS2_E>
  413faf:	48 83 c4 18          	add    $0x18,%rsp
  413fb3:	c3                   	retq   
  413fb4:	66 2e 0f 1f 84 00 00 	nopw   %cs:0x0(%rax,%rax,1)
  413fbb:	00 00 00 
  413fbe:	66 90                	xchg   %ax,%ax

0000000000413fc0 <_ZNSt8_Rb_treeImSt4pairIKmmESt10_Select1stIS2_ESt4lessImESaIS2_EE11_M_get_nodeEv>:
  413fc0:	50                   	push   %rax
  413fc1:	48 89 3c 24          	mov    %rdi,(%rsp)
  413fc5:	48 8b 3c 24          	mov    (%rsp),%rdi
  413fc9:	e8 d2 00 00 00       	callq  4140a0 <_ZNSt8_Rb_treeImSt4pairIKmmESt10_Select1stIS2_ESt4lessImESaIS2_EE21_M_get_Node_allocatorEv>
  413fce:	48 89 c7             	mov    %rax,%rdi
  413fd1:	be 01 00 00 00       	mov    $0x1,%esi
  413fd6:	e8 95 00 00 00       	callq  414070 <_ZNSt16allocator_traitsISaISt13_Rb_tree_nodeISt4pairIKmmEEEE8allocateERS5_m>
  413fdb:	59                   	pop    %rcx
  413fdc:	c3                   	retq   
  413fdd:	0f 1f 00             	nopl   (%rax)

0000000000413fe0 <_ZNSt8_Rb_treeImSt4pairIKmmESt10_Select1stIS2_ESt4lessImESaIS2_EE17_M_construct_nodeIJRKSt21piecewise_construct_tSt5tupleIJRS1_EESD_IJEEEEEvPSt13_Rb_tree_nodeIS2_EDpOT_>:
  413fe0:	48 83 ec 48          	sub    $0x48,%rsp
  413fe4:	48 89 7c 24 40       	mov    %rdi,0x40(%rsp)
  413fe9:	48 89 74 24 38       	mov    %rsi,0x38(%rsp)
  413fee:	48 89 54 24 30       	mov    %rdx,0x30(%rsp)
  413ff3:	48 89 4c 24 28       	mov    %rcx,0x28(%rsp)
  413ff8:	4c 89 44 24 20       	mov    %r8,0x20(%rsp)
  413ffd:	48 8b 7c 24 40       	mov    0x40(%rsp),%rdi
  414002:	e8 99 00 00 00       	callq  4140a0 <_ZNSt8_Rb_treeImSt4pairIKmmESt10_Select1stIS2_ESt4lessImESaIS2_EE21_M_get_Node_allocatorEv>
  414007:	48 89 04 24          	mov    %rax,(%rsp)
  41400b:	48 8b 7c 24 38       	mov    0x38(%rsp),%rdi
  414010:	e8 cb f4 ff ff       	callq  4134e0 <_ZNSt13_Rb_tree_nodeISt4pairIKmmEE9_M_valptrEv>
  414015:	48 89 44 24 08       	mov    %rax,0x8(%rsp)
  41401a:	48 8b 7c 24 30       	mov    0x30(%rsp),%rdi
  41401f:	e8 7c f9 ff ff       	callq  4139a0 <_ZSt7forwardIRKSt21piecewise_construct_tEOT_RNSt16remove_referenceIS3_E4typeE>
  414024:	48 89 44 24 10       	mov    %rax,0x10(%rsp)
  414029:	48 8b 7c 24 28       	mov    0x28(%rsp),%rdi
  41402e:	e8 7d f9 ff ff       	callq  4139b0 <_ZSt7forwardISt5tupleIJRKmEEEOT_RNSt16remove_referenceIS4_E4typeE>
  414033:	48 89 44 24 18       	mov    %rax,0x18(%rsp)
  414038:	48 8b 7c 24 20       	mov    0x20(%rsp),%rdi
  41403d:	e8 7e f9 ff ff       	callq  4139c0 <_ZSt7forwardISt5tupleIJEEEOT_RNSt16remove_referenceIS2_E4typeE>
  414042:	48 8b 3c 24          	mov    (%rsp),%rdi
  414046:	48 8b 74 24 08       	mov    0x8(%rsp),%rsi
  41404b:	48 8b 54 24 10       	mov    0x10(%rsp),%rdx
  414050:	48 8b 4c 24 18       	mov    0x18(%rsp),%rcx
  414055:	49 89 c0             	mov    %rax,%r8
  414058:	e8 b3 00 00 00       	callq  414110 <_ZNSt16allocator_traitsISaISt13_Rb_tree_nodeISt4pairIKmmEEEE9constructIS3_JRKSt21piecewise_construct_tSt5tupleIJRS2_EESB_IJEEEEEvRS5_PT_DpOT0_>
  41405d:	48 83 c4 48          	add    $0x48,%rsp
  414061:	c3                   	retq   
  414062:	66 2e 0f 1f 84 00 00 	nopw   %cs:0x0(%rax,%rax,1)
  414069:	00 00 00 
  41406c:	0f 1f 40 00          	nopl   0x0(%rax)

0000000000414070 <_ZNSt16allocator_traitsISaISt13_Rb_tree_nodeISt4pairIKmmEEEE8allocateERS5_m>:
  414070:	48 83 ec 18          	sub    $0x18,%rsp
  414074:	48 89 7c 24 10       	mov    %rdi,0x10(%rsp)
  414079:	48 89 74 24 08       	mov    %rsi,0x8(%rsp)
  41407e:	48 8b 7c 24 10       	mov    0x10(%rsp),%rdi
  414083:	48 8b 74 24 08       	mov    0x8(%rsp),%rsi
  414088:	31 c0                	xor    %eax,%eax
  41408a:	89 c2                	mov    %eax,%edx
  41408c:	e8 1f 00 00 00       	callq  4140b0 <_ZN9__gnu_cxx13new_allocatorISt13_Rb_tree_nodeISt4pairIKmmEEE8allocateEmPKv>
  414091:	48 83 c4 18          	add    $0x18,%rsp
  414095:	c3                   	retq   
  414096:	66 2e 0f 1f 84 00 00 	nopw   %cs:0x0(%rax,%rax,1)
  41409d:	00 00 00 

00000000004140a0 <_ZNSt8_Rb_treeImSt4pairIKmmESt10_Select1stIS2_ESt4lessImESaIS2_EE21_M_get_Node_allocatorEv>:
  4140a0:	48 89 7c 24 f8       	mov    %rdi,-0x8(%rsp)
  4140a5:	48 8b 44 24 f8       	mov    -0x8(%rsp),%rax
  4140aa:	c3                   	retq   
  4140ab:	0f 1f 44 00 00       	nopl   0x0(%rax,%rax,1)

00000000004140b0 <_ZN9__gnu_cxx13new_allocatorISt13_Rb_tree_nodeISt4pairIKmmEEE8allocateEmPKv>:
  4140b0:	48 83 ec 28          	sub    $0x28,%rsp
  4140b4:	48 89 7c 24 20       	mov    %rdi,0x20(%rsp)
  4140b9:	48 89 74 24 18       	mov    %rsi,0x18(%rsp)
  4140be:	48 89 54 24 10       	mov    %rdx,0x10(%rsp)
  4140c3:	48 8b 7c 24 20       	mov    0x20(%rsp),%rdi
  4140c8:	48 8b 44 24 18       	mov    0x18(%rsp),%rax
  4140cd:	48 89 44 24 08       	mov    %rax,0x8(%rsp)
  4140d2:	e8 29 00 00 00       	callq  414100 <_ZNK9__gnu_cxx13new_allocatorISt13_Rb_tree_nodeISt4pairIKmmEEE8max_sizeEv>
  4140d7:	48 89 c1             	mov    %rax,%rcx
  4140da:	48 8b 44 24 08       	mov    0x8(%rsp),%rax
  4140df:	48 39 c8             	cmp    %rcx,%rax
  4140e2:	0f 86 05 00 00 00    	jbe    4140ed <_ZN9__gnu_cxx13new_allocatorISt13_Rb_tree_nodeISt4pairIKmmEEE8allocateEmPKv+0x3d>
  4140e8:	e8 a3 cf fe ff       	callq  401090 <_ZSt17__throw_bad_allocv@plt>
  4140ed:	48 6b 7c 24 18 30    	imul   $0x30,0x18(%rsp),%rdi
  4140f3:	e8 b8 d0 fe ff       	callq  4011b0 <_Znwm@plt>
  4140f8:	48 83 c4 28          	add    $0x28,%rsp
  4140fc:	c3                   	retq   
  4140fd:	0f 1f 00             	nopl   (%rax)

0000000000414100 <_ZNK9__gnu_cxx13new_allocatorISt13_Rb_tree_nodeISt4pairIKmmEEE8max_sizeEv>:
  414100:	48 89 7c 24 f8       	mov    %rdi,-0x8(%rsp)
  414105:	48 b8 55 55 55 55 55 	movabs $0x555555555555555,%rax
  41410c:	55 55 05 
  41410f:	c3                   	retq   

0000000000414110 <_ZNSt16allocator_traitsISaISt13_Rb_tree_nodeISt4pairIKmmEEEE9constructIS3_JRKSt21piecewise_construct_tSt5tupleIJRS2_EESB_IJEEEEEvRS5_PT_DpOT0_>:
  414110:	48 83 ec 48          	sub    $0x48,%rsp
  414114:	48 89 7c 24 40       	mov    %rdi,0x40(%rsp)
  414119:	48 89 74 24 38       	mov    %rsi,0x38(%rsp)
  41411e:	48 89 54 24 30       	mov    %rdx,0x30(%rsp)
  414123:	48 89 4c 24 28       	mov    %rcx,0x28(%rsp)
  414128:	4c 89 44 24 20       	mov    %r8,0x20(%rsp)
  41412d:	48 8b 44 24 40       	mov    0x40(%rsp),%rax
  414132:	48 89 04 24          	mov    %rax,(%rsp)
  414136:	48 8b 44 24 38       	mov    0x38(%rsp),%rax
  41413b:	48 89 44 24 08       	mov    %rax,0x8(%rsp)
  414140:	48 8b 7c 24 30       	mov    0x30(%rsp),%rdi
  414145:	e8 56 f8 ff ff       	callq  4139a0 <_ZSt7forwardIRKSt21piecewise_construct_tEOT_RNSt16remove_referenceIS3_E4typeE>
  41414a:	48 89 44 24 10       	mov    %rax,0x10(%rsp)
  41414f:	48 8b 7c 24 28       	mov    0x28(%rsp),%rdi
  414154:	e8 57 f8 ff ff       	callq  4139b0 <_ZSt7forwardISt5tupleIJRKmEEEOT_RNSt16remove_referenceIS4_E4typeE>
  414159:	48 89 44 24 18       	mov    %rax,0x18(%rsp)
  41415e:	48 8b 7c 24 20       	mov    0x20(%rsp),%rdi
  414163:	e8 58 f8 ff ff       	callq  4139c0 <_ZSt7forwardISt5tupleIJEEEOT_RNSt16remove_referenceIS2_E4typeE>
  414168:	48 8b 3c 24          	mov    (%rsp),%rdi
  41416c:	48 8b 74 24 08       	mov    0x8(%rsp),%rsi
  414171:	48 8b 54 24 10       	mov    0x10(%rsp),%rdx
  414176:	48 8b 4c 24 18       	mov    0x18(%rsp),%rcx
  41417b:	49 89 c0             	mov    %rax,%r8
  41417e:	e8 0d 00 00 00       	callq  414190 <_ZN9__gnu_cxx13new_allocatorISt13_Rb_tree_nodeISt4pairIKmmEEE9constructIS4_JRKSt21piecewise_construct_tSt5tupleIJRS3_EESB_IJEEEEEvPT_DpOT0_>
  414183:	48 83 c4 48          	add    $0x48,%rsp
  414187:	c3                   	retq   
  414188:	0f 1f 84 00 00 00 00 	nopl   0x0(%rax,%rax,1)
  41418f:	00 

0000000000414190 <_ZN9__gnu_cxx13new_allocatorISt13_Rb_tree_nodeISt4pairIKmmEEE9constructIS4_JRKSt21piecewise_construct_tSt5tupleIJRS3_EESB_IJEEEEEvPT_DpOT0_>:
  414190:	48 83 ec 48          	sub    $0x48,%rsp
  414194:	48 89 7c 24 40       	mov    %rdi,0x40(%rsp)
  414199:	48 89 74 24 38       	mov    %rsi,0x38(%rsp)
  41419e:	48 89 54 24 30       	mov    %rdx,0x30(%rsp)
  4141a3:	48 89 4c 24 28       	mov    %rcx,0x28(%rsp)
  4141a8:	4c 89 44 24 20       	mov    %r8,0x20(%rsp)
  4141ad:	48 8b 44 24 38       	mov    0x38(%rsp),%rax
  4141b2:	48 89 04 24          	mov    %rax,(%rsp)
  4141b6:	48 8b 7c 24 30       	mov    0x30(%rsp),%rdi
  4141bb:	e8 e0 f7 ff ff       	callq  4139a0 <_ZSt7forwardIRKSt21piecewise_construct_tEOT_RNSt16remove_referenceIS3_E4typeE>
  4141c0:	48 8b 7c 24 28       	mov    0x28(%rsp),%rdi
  4141c5:	e8 e6 f7 ff ff       	callq  4139b0 <_ZSt7forwardISt5tupleIJRKmEEEOT_RNSt16remove_referenceIS4_E4typeE>
  4141ca:	48 89 c6             	mov    %rax,%rsi
  4141cd:	48 8d 7c 24 10       	lea    0x10(%rsp),%rdi
  4141d2:	e8 29 00 00 00       	callq  414200 <_ZNSt5tupleIJRKmEEC2EOS2_>
  4141d7:	48 8b 7c 24 20       	mov    0x20(%rsp),%rdi
  4141dc:	e8 df f7 ff ff       	callq  4139c0 <_ZSt7forwardISt5tupleIJEEEOT_RNSt16remove_referenceIS2_E4typeE>
  4141e1:	48 8b 3c 24          	mov    (%rsp),%rdi
  4141e5:	48 8d 74 24 10       	lea    0x10(%rsp),%rsi
  4141ea:	e8 41 00 00 00       	callq  414230 <_ZNSt4pairIKmmEC2IJRS0_EJEEESt21piecewise_construct_tSt5tupleIJDpT_EES5_IJDpT0_EE>
  4141ef:	48 83 c4 48          	add    $0x48,%rsp
  4141f3:	c3                   	retq   
  4141f4:	66 2e 0f 1f 84 00 00 	nopw   %cs:0x0(%rax,%rax,1)
  4141fb:	00 00 00 
  4141fe:	66 90                	xchg   %ax,%ax

0000000000414200 <_ZNSt5tupleIJRKmEEC2EOS2_>:
  414200:	48 83 ec 18          	sub    $0x18,%rsp
  414204:	48 89 7c 24 10       	mov    %rdi,0x10(%rsp)
  414209:	48 89 74 24 08       	mov    %rsi,0x8(%rsp)
  41420e:	48 8b 7c 24 10       	mov    0x10(%rsp),%rdi
  414213:	48 8b 74 24 08       	mov    0x8(%rsp),%rsi
  414218:	e8 33 00 00 00       	callq  414250 <_ZNSt11_Tuple_implILm0EJRKmEEC2EOS2_>
  41421d:	48 83 c4 18          	add    $0x18,%rsp
  414221:	c3                   	retq   
  414222:	66 2e 0f 1f 84 00 00 	nopw   %cs:0x0(%rax,%rax,1)
  414229:	00 00 00 
  41422c:	0f 1f 40 00          	nopl   0x0(%rax)

0000000000414230 <_ZNSt4pairIKmmEC2IJRS0_EJEEESt21piecewise_construct_tSt5tupleIJDpT_EES5_IJDpT0_EE>:
  414230:	48 83 ec 28          	sub    $0x28,%rsp
  414234:	48 89 7c 24 10       	mov    %rdi,0x10(%rsp)
  414239:	48 8b 7c 24 10       	mov    0x10(%rsp),%rdi
  41423e:	48 8d 54 24 18       	lea    0x18(%rsp),%rdx
  414243:	e8 98 00 00 00       	callq  4142e0 <_ZNSt4pairIKmmEC2IJRS0_EJLm0EEJEJEEERSt5tupleIJDpT_EERS4_IJDpT1_EESt12_Index_tupleIJXspT0_EEESD_IJXspT2_EEE>
  414248:	48 83 c4 28          	add    $0x28,%rsp
  41424c:	c3                   	retq   
  41424d:	0f 1f 00             	nopl   (%rax)

0000000000414250 <_ZNSt11_Tuple_implILm0EJRKmEEC2EOS2_>:
  414250:	48 83 ec 18          	sub    $0x18,%rsp
  414254:	48 89 7c 24 10       	mov    %rdi,0x10(%rsp)
  414259:	48 89 74 24 08       	mov    %rsi,0x8(%rsp)
  41425e:	48 8b 44 24 10       	mov    0x10(%rsp),%rax
  414263:	48 89 04 24          	mov    %rax,(%rsp)
  414267:	48 8b 7c 24 08       	mov    0x8(%rsp),%rdi
  41426c:	e8 2f 00 00 00       	callq  4142a0 <_ZNSt11_Tuple_implILm0EJRKmEE7_M_headERS2_>
  414271:	48 89 c7             	mov    %rax,%rdi
  414274:	e8 17 00 00 00       	callq  414290 <_ZSt7forwardIRKmEOT_RNSt16remove_referenceIS2_E4typeE>
  414279:	48 8b 3c 24          	mov    (%rsp),%rdi
  41427d:	48 89 c6             	mov    %rax,%rsi
  414280:	e8 2b 00 00 00       	callq  4142b0 <_ZNSt10_Head_baseILm0ERKmLb0EEC2ES1_>
  414285:	48 83 c4 18          	add    $0x18,%rsp
  414289:	c3                   	retq   
  41428a:	66 0f 1f 44 00 00    	nopw   0x0(%rax,%rax,1)

0000000000414290 <_ZSt7forwardIRKmEOT_RNSt16remove_referenceIS2_E4typeE>:
  414290:	48 89 7c 24 f8       	mov    %rdi,-0x8(%rsp)
  414295:	48 8b 44 24 f8       	mov    -0x8(%rsp),%rax
  41429a:	c3                   	retq   
  41429b:	0f 1f 44 00 00       	nopl   0x0(%rax,%rax,1)

00000000004142a0 <_ZNSt11_Tuple_implILm0EJRKmEE7_M_headERS2_>:
  4142a0:	50                   	push   %rax
  4142a1:	48 89 3c 24          	mov    %rdi,(%rsp)
  4142a5:	48 8b 3c 24          	mov    (%rsp),%rdi
  4142a9:	e8 22 00 00 00       	callq  4142d0 <_ZNSt10_Head_baseILm0ERKmLb0EE7_M_headERS2_>
  4142ae:	59                   	pop    %rcx
  4142af:	c3                   	retq   

00000000004142b0 <_ZNSt10_Head_baseILm0ERKmLb0EEC2ES1_>:
  4142b0:	48 89 7c 24 f8       	mov    %rdi,-0x8(%rsp)
  4142b5:	48 89 74 24 f0       	mov    %rsi,-0x10(%rsp)
  4142ba:	48 8b 44 24 f8       	mov    -0x8(%rsp),%rax
  4142bf:	48 8b 4c 24 f0       	mov    -0x10(%rsp),%rcx
  4142c4:	48 89 08             	mov    %rcx,(%rax)
  4142c7:	c3                   	retq   
  4142c8:	0f 1f 84 00 00 00 00 	nopl   0x0(%rax,%rax,1)
  4142cf:	00 

00000000004142d0 <_ZNSt10_Head_baseILm0ERKmLb0EE7_M_headERS2_>:
  4142d0:	48 89 7c 24 f8       	mov    %rdi,-0x8(%rsp)
  4142d5:	48 8b 44 24 f8       	mov    -0x8(%rsp),%rax
  4142da:	48 8b 00             	mov    (%rax),%rax
  4142dd:	c3                   	retq   
  4142de:	66 90                	xchg   %ax,%ax

00000000004142e0 <_ZNSt4pairIKmmEC2IJRS0_EJLm0EEJEJEEERSt5tupleIJDpT_EERS4_IJDpT1_EESt12_Index_tupleIJXspT0_EEESD_IJXspT2_EEE>:
  4142e0:	48 83 ec 38          	sub    $0x38,%rsp
  4142e4:	48 89 7c 24 20       	mov    %rdi,0x20(%rsp)
  4142e9:	48 89 74 24 18       	mov    %rsi,0x18(%rsp)
  4142ee:	48 89 54 24 10       	mov    %rdx,0x10(%rsp)
  4142f3:	48 8b 44 24 20       	mov    0x20(%rsp),%rax
  4142f8:	48 89 44 24 08       	mov    %rax,0x8(%rsp)
  4142fd:	48 8b 7c 24 18       	mov    0x18(%rsp),%rdi
  414302:	e8 29 00 00 00       	callq  414330 <_ZSt3getILm0EJRKmEERNSt13tuple_elementIXT_ESt5tupleIJDpT0_EEE4typeERS6_>
  414307:	48 89 c7             	mov    %rax,%rdi
  41430a:	e8 81 ff ff ff       	callq  414290 <_ZSt7forwardIRKmEOT_RNSt16remove_referenceIS2_E4typeE>
  41430f:	48 89 c1             	mov    %rax,%rcx
  414312:	48 8b 44 24 08       	mov    0x8(%rsp),%rax
  414317:	48 8b 09             	mov    (%rcx),%rcx
  41431a:	48 89 08             	mov    %rcx,(%rax)
  41431d:	48 c7 40 08 00 00 00 	movq   $0x0,0x8(%rax)
  414324:	00 
  414325:	48 83 c4 38          	add    $0x38,%rsp
  414329:	c3                   	retq   
  41432a:	66 0f 1f 44 00 00    	nopw   0x0(%rax,%rax,1)

0000000000414330 <_ZSt3getILm0EJRKmEERNSt13tuple_elementIXT_ESt5tupleIJDpT0_EEE4typeERS6_>:
  414330:	50                   	push   %rax
  414331:	48 89 3c 24          	mov    %rdi,(%rsp)
  414335:	48 8b 3c 24          	mov    (%rsp),%rdi
  414339:	e8 02 00 00 00       	callq  414340 <_ZSt12__get_helperILm0ERKmJEERT0_RSt11_Tuple_implIXT_EJS2_DpT1_EE>
  41433e:	59                   	pop    %rcx
  41433f:	c3                   	retq   

0000000000414340 <_ZSt12__get_helperILm0ERKmJEERT0_RSt11_Tuple_implIXT_EJS2_DpT1_EE>:
  414340:	50                   	push   %rax
  414341:	48 89 3c 24          	mov    %rdi,(%rsp)
  414345:	48 8b 3c 24          	mov    (%rsp),%rdi
  414349:	e8 52 ff ff ff       	callq  4142a0 <_ZNSt11_Tuple_implILm0EJRKmEE7_M_headERS2_>
  41434e:	59                   	pop    %rcx
  41434f:	c3                   	retq   

0000000000414350 <_ZNKSt23_Rb_tree_const_iteratorISt4pairIKmmEE13_M_const_castEv>:
  414350:	48 83 ec 18          	sub    $0x18,%rsp
  414354:	48 89 7c 24 08       	mov    %rdi,0x8(%rsp)
  414359:	48 8b 44 24 08       	mov    0x8(%rsp),%rax
  41435e:	48 8b 30             	mov    (%rax),%rsi
  414361:	48 8d 7c 24 10       	lea    0x10(%rsp),%rdi
  414366:	e8 25 f1 ff ff       	callq  413490 <_ZNSt17_Rb_tree_iteratorISt4pairIKmmEEC2EPSt18_Rb_tree_node_base>
  41436b:	48 8b 44 24 10       	mov    0x10(%rsp),%rax
  414370:	48 83 c4 18          	add    $0x18,%rsp
  414374:	c3                   	retq   
  414375:	66 2e 0f 1f 84 00 00 	nopw   %cs:0x0(%rax,%rax,1)
  41437c:	00 00 00 
  41437f:	90                   	nop

0000000000414380 <_ZNKSt8_Rb_treeImSt4pairIKmmESt10_Select1stIS2_ESt4lessImESaIS2_EE4sizeEv>:
  414380:	48 89 7c 24 f8       	mov    %rdi,-0x8(%rsp)
  414385:	48 8b 44 24 f8       	mov    -0x8(%rsp),%rax
  41438a:	48 8b 40 28          	mov    0x28(%rax),%rax
  41438e:	c3                   	retq   
  41438f:	90                   	nop

0000000000414390 <_ZNSt8_Rb_treeImSt4pairIKmmESt10_Select1stIS2_ESt4lessImESaIS2_EE6_S_keyEPKSt18_Rb_tree_node_base>:
  414390:	48 83 ec 18          	sub    $0x18,%rsp
  414394:	48 89 7c 24 10       	mov    %rdi,0x10(%rsp)
  414399:	48 8b 7c 24 10       	mov    0x10(%rsp),%rdi
  41439e:	e8 5d 03 00 00       	callq  414700 <_ZNSt8_Rb_treeImSt4pairIKmmESt10_Select1stIS2_ESt4lessImESaIS2_EE8_S_valueEPKSt18_Rb_tree_node_base>
  4143a3:	48 89 c6             	mov    %rax,%rsi
  4143a6:	48 8d 7c 24 08       	lea    0x8(%rsp),%rdi
  4143ab:	e8 f0 f4 ff ff       	callq  4138a0 <_ZNKSt10_Select1stISt4pairIKmmEEclERKS2_>
  4143b0:	48 83 c4 18          	add    $0x18,%rsp
  4143b4:	c3                   	retq   
  4143b5:	66 2e 0f 1f 84 00 00 	nopw   %cs:0x0(%rax,%rax,1)
  4143bc:	00 00 00 
  4143bf:	90                   	nop

00000000004143c0 <_ZNSt8_Rb_treeImSt4pairIKmmESt10_Select1stIS2_ESt4lessImESaIS2_EE12_M_rightmostEv>:
  4143c0:	48 89 7c 24 f8       	mov    %rdi,-0x8(%rsp)
  4143c5:	48 8b 44 24 f8       	mov    -0x8(%rsp),%rax
  4143ca:	48 83 c0 08          	add    $0x8,%rax
  4143ce:	48 83 c0 18          	add    $0x18,%rax
  4143d2:	c3                   	retq   
  4143d3:	66 2e 0f 1f 84 00 00 	nopw   %cs:0x0(%rax,%rax,1)
  4143da:	00 00 00 
  4143dd:	0f 1f 00             	nopl   (%rax)

00000000004143e0 <_ZNSt4pairIPSt18_Rb_tree_node_baseS1_EC2IRS1_Lb1EEERKS1_OT_>:
  4143e0:	48 83 ec 28          	sub    $0x28,%rsp
  4143e4:	48 89 7c 24 20       	mov    %rdi,0x20(%rsp)
  4143e9:	48 89 74 24 18       	mov    %rsi,0x18(%rsp)
  4143ee:	48 89 54 24 10       	mov    %rdx,0x10(%rsp)
  4143f3:	48 8b 44 24 20       	mov    0x20(%rsp),%rax
  4143f8:	48 89 44 24 08       	mov    %rax,0x8(%rsp)
  4143fd:	48 8b 4c 24 18       	mov    0x18(%rsp),%rcx
  414402:	48 8b 09             	mov    (%rcx),%rcx
  414405:	48 89 08             	mov    %rcx,(%rax)
  414408:	48 8b 7c 24 10       	mov    0x10(%rsp),%rdi
  41440d:	e8 fe 02 00 00       	callq  414710 <_ZSt7forwardIRPSt18_Rb_tree_node_baseEOT_RNSt16remove_referenceIS3_E4typeE>
  414412:	48 89 c1             	mov    %rax,%rcx
  414415:	48 8b 44 24 08       	mov    0x8(%rsp),%rax
  41441a:	48 8b 09             	mov    (%rcx),%rcx
  41441d:	48 89 48 08          	mov    %rcx,0x8(%rax)
  414421:	48 83 c4 28          	add    $0x28,%rsp
  414425:	c3                   	retq   
  414426:	66 2e 0f 1f 84 00 00 	nopw   %cs:0x0(%rax,%rax,1)
  41442d:	00 00 00 

0000000000414430 <_ZNSt8_Rb_treeImSt4pairIKmmESt10_Select1stIS2_ESt4lessImESaIS2_EE24_M_get_insert_unique_posERS1_>:
  414430:	48 81 ec 88 00 00 00 	sub    $0x88,%rsp
  414437:	48 89 7c 24 70       	mov    %rdi,0x70(%rsp)
  41443c:	48 89 74 24 68       	mov    %rsi,0x68(%rsp)
  414441:	48 8b 7c 24 70       	mov    0x70(%rsp),%rdi
  414446:	48 89 7c 24 28       	mov    %rdi,0x28(%rsp)
  41444b:	e8 e0 f3 ff ff       	callq  413830 <_ZNSt8_Rb_treeImSt4pairIKmmESt10_Select1stIS2_ESt4lessImESaIS2_EE8_M_beginEv>
  414450:	48 8b 7c 24 28       	mov    0x28(%rsp),%rdi
  414455:	48 89 44 24 60       	mov    %rax,0x60(%rsp)
  41445a:	e8 e1 f3 ff ff       	callq  413840 <_ZNSt8_Rb_treeImSt4pairIKmmESt10_Select1stIS2_ESt4lessImESaIS2_EE6_M_endEv>
  41445f:	48 89 44 24 58       	mov    %rax,0x58(%rsp)
  414464:	c6 44 24 57 01       	movb   $0x1,0x57(%rsp)
  414469:	48 83 7c 24 60 00    	cmpq   $0x0,0x60(%rsp)
  41446f:	0f 84 7d 00 00 00    	je     4144f2 <_ZNSt8_Rb_treeImSt4pairIKmmESt10_Select1stIS2_ESt4lessImESaIS2_EE24_M_get_insert_unique_posERS1_+0xc2>
  414475:	48 8b 44 24 28       	mov    0x28(%rsp),%rax
  41447a:	48 8b 4c 24 60       	mov    0x60(%rsp),%rcx
  41447f:	48 89 4c 24 58       	mov    %rcx,0x58(%rsp)
  414484:	48 89 44 24 18       	mov    %rax,0x18(%rsp)
  414489:	48 8b 44 24 68       	mov    0x68(%rsp),%rax
  41448e:	48 89 44 24 20       	mov    %rax,0x20(%rsp)
  414493:	48 8b 7c 24 60       	mov    0x60(%rsp),%rdi
  414498:	e8 b3 f3 ff ff       	callq  413850 <_ZNSt8_Rb_treeImSt4pairIKmmESt10_Select1stIS2_ESt4lessImESaIS2_EE6_S_keyEPKSt13_Rb_tree_nodeIS2_E>
  41449d:	48 8b 7c 24 18       	mov    0x18(%rsp),%rdi
  4144a2:	48 8b 74 24 20       	mov    0x20(%rsp),%rsi
  4144a7:	48 89 c2             	mov    %rax,%rdx
  4144aa:	e8 f1 f0 ff ff       	callq  4135a0 <_ZNKSt4lessImEclERKmS2_>
  4144af:	24 01                	and    $0x1,%al
  4144b1:	88 44 24 57          	mov    %al,0x57(%rsp)
  4144b5:	f6 44 24 57 01       	testb  $0x1,0x57(%rsp)
  4144ba:	0f 84 14 00 00 00    	je     4144d4 <_ZNSt8_Rb_treeImSt4pairIKmmESt10_Select1stIS2_ESt4lessImESaIS2_EE24_M_get_insert_unique_posERS1_+0xa4>
  4144c0:	48 8b 7c 24 60       	mov    0x60(%rsp),%rdi
  4144c5:	e8 b6 f3 ff ff       	callq  413880 <_ZNSt8_Rb_treeImSt4pairIKmmESt10_Select1stIS2_ESt4lessImESaIS2_EE7_S_leftEPSt18_Rb_tree_node_base>
  4144ca:	48 89 44 24 10       	mov    %rax,0x10(%rsp)
  4144cf:	e9 0f 00 00 00       	jmpq   4144e3 <_ZNSt8_Rb_treeImSt4pairIKmmESt10_Select1stIS2_ESt4lessImESaIS2_EE24_M_get_insert_unique_posERS1_+0xb3>
  4144d4:	48 8b 7c 24 60       	mov    0x60(%rsp),%rdi
  4144d9:	e8 b2 f3 ff ff       	callq  413890 <_ZNSt8_Rb_treeImSt4pairIKmmESt10_Select1stIS2_ESt4lessImESaIS2_EE8_S_rightEPSt18_Rb_tree_node_base>
  4144de:	48 89 44 24 10       	mov    %rax,0x10(%rsp)
  4144e3:	48 8b 44 24 10       	mov    0x10(%rsp),%rax
  4144e8:	48 89 44 24 60       	mov    %rax,0x60(%rsp)
  4144ed:	e9 77 ff ff ff       	jmpq   414469 <_ZNSt8_Rb_treeImSt4pairIKmmESt10_Select1stIS2_ESt4lessImESaIS2_EE24_M_get_insert_unique_posERS1_+0x39>
  4144f2:	48 8b 74 24 58       	mov    0x58(%rsp),%rsi
  4144f7:	48 8d 7c 24 48       	lea    0x48(%rsp),%rdi
  4144fc:	e8 8f ef ff ff       	callq  413490 <_ZNSt17_Rb_tree_iteratorISt4pairIKmmEEC2EPSt18_Rb_tree_node_base>
  414501:	f6 44 24 57 01       	testb  $0x1,0x57(%rsp)
  414506:	0f 84 5b 00 00 00    	je     414567 <_ZNSt8_Rb_treeImSt4pairIKmmESt10_Select1stIS2_ESt4lessImESaIS2_EE24_M_get_insert_unique_posERS1_+0x137>
  41450c:	48 8b 7c 24 28       	mov    0x28(%rsp),%rdi
  414511:	e8 4a ef ff ff       	callq  413460 <_ZNSt8_Rb_treeImSt4pairIKmmESt10_Select1stIS2_ESt4lessImESaIS2_EE5beginEv>
  414516:	48 89 44 24 40       	mov    %rax,0x40(%rsp)
  41451b:	48 8d 7c 24 48       	lea    0x48(%rsp),%rdi
  414520:	48 8d 74 24 40       	lea    0x40(%rsp),%rsi
  414525:	e8 26 f0 ff ff       	callq  413550 <_ZNKSt17_Rb_tree_iteratorISt4pairIKmmEEeqERKS3_>
  41452a:	a8 01                	test   $0x1,%al
  41452c:	0f 85 05 00 00 00    	jne    414537 <_ZNSt8_Rb_treeImSt4pairIKmmESt10_Select1stIS2_ESt4lessImESaIS2_EE24_M_get_insert_unique_posERS1_+0x107>
  414532:	e9 21 00 00 00       	jmpq   414558 <_ZNSt8_Rb_treeImSt4pairIKmmESt10_Select1stIS2_ESt4lessImESaIS2_EE24_M_get_insert_unique_posERS1_+0x128>
  414537:	48 8d 7c 24 78       	lea    0x78(%rsp),%rdi
  41453c:	48 8d 74 24 60       	lea    0x60(%rsp),%rsi
  414541:	48 8d 54 24 58       	lea    0x58(%rsp),%rdx
  414546:	e8 d5 01 00 00       	callq  414720 <_ZNSt4pairIPSt18_Rb_tree_node_baseS1_EC2IRPSt13_Rb_tree_nodeIS_IKmmEERS1_Lb1EEEOT_OT0_>
  41454b:	c7 44 24 3c 01 00 00 	movl   $0x1,0x3c(%rsp)
  414552:	00 
  414553:	e9 88 00 00 00       	jmpq   4145e0 <_ZNSt8_Rb_treeImSt4pairIKmmESt10_Select1stIS2_ESt4lessImESaIS2_EE24_M_get_insert_unique_posERS1_+0x1b0>
  414558:	48 8d 7c 24 48       	lea    0x48(%rsp),%rdi
  41455d:	e8 1e 01 00 00       	callq  414680 <_ZNSt17_Rb_tree_iteratorISt4pairIKmmEEmmEv>
  414562:	e9 00 00 00 00       	jmpq   414567 <_ZNSt8_Rb_treeImSt4pairIKmmESt10_Select1stIS2_ESt4lessImESaIS2_EE24_M_get_insert_unique_posERS1_+0x137>
  414567:	48 8b 44 24 28       	mov    0x28(%rsp),%rax
  41456c:	48 89 44 24 08       	mov    %rax,0x8(%rsp)
  414571:	48 8b 7c 24 48       	mov    0x48(%rsp),%rdi
  414576:	e8 15 fe ff ff       	callq  414390 <_ZNSt8_Rb_treeImSt4pairIKmmESt10_Select1stIS2_ESt4lessImESaIS2_EE6_S_keyEPKSt18_Rb_tree_node_base>
  41457b:	48 8b 7c 24 08       	mov    0x8(%rsp),%rdi
  414580:	48 89 c6             	mov    %rax,%rsi
  414583:	48 8b 54 24 68       	mov    0x68(%rsp),%rdx
  414588:	e8 13 f0 ff ff       	callq  4135a0 <_ZNKSt4lessImEclERKmS2_>
  41458d:	a8 01                	test   $0x1,%al
  41458f:	0f 85 05 00 00 00    	jne    41459a <_ZNSt8_Rb_treeImSt4pairIKmmESt10_Select1stIS2_ESt4lessImESaIS2_EE24_M_get_insert_unique_posERS1_+0x16a>
  414595:	e9 21 00 00 00       	jmpq   4145bb <_ZNSt8_Rb_treeImSt4pairIKmmESt10_Select1stIS2_ESt4lessImESaIS2_EE24_M_get_insert_unique_posERS1_+0x18b>
  41459a:	48 8d 7c 24 78       	lea    0x78(%rsp),%rdi
  41459f:	48 8d 74 24 60       	lea    0x60(%rsp),%rsi
  4145a4:	48 8d 54 24 58       	lea    0x58(%rsp),%rdx
  4145a9:	e8 72 01 00 00       	callq  414720 <_ZNSt4pairIPSt18_Rb_tree_node_baseS1_EC2IRPSt13_Rb_tree_nodeIS_IKmmEERS1_Lb1EEEOT_OT0_>
  4145ae:	c7 44 24 3c 01 00 00 	movl   $0x1,0x3c(%rsp)
  4145b5:	00 
  4145b6:	e9 25 00 00 00       	jmpq   4145e0 <_ZNSt8_Rb_treeImSt4pairIKmmESt10_Select1stIS2_ESt4lessImESaIS2_EE24_M_get_insert_unique_posERS1_+0x1b0>
  4145bb:	48 8d 74 24 48       	lea    0x48(%rsp),%rsi
  4145c0:	48 c7 44 24 30 00 00 	movq   $0x0,0x30(%rsp)
  4145c7:	00 00 
  4145c9:	48 8d 7c 24 78       	lea    0x78(%rsp),%rdi
  4145ce:	48 8d 54 24 30       	lea    0x30(%rsp),%rdx
  4145d3:	e8 d8 00 00 00       	callq  4146b0 <_ZNSt4pairIPSt18_Rb_tree_node_baseS1_EC2IRS1_Lb1EEEOT_RKS1_>
  4145d8:	c7 44 24 3c 01 00 00 	movl   $0x1,0x3c(%rsp)
  4145df:	00 
  4145e0:	48 8b 44 24 78       	mov    0x78(%rsp),%rax
  4145e5:	48 8b 94 24 80 00 00 	mov    0x80(%rsp),%rdx
  4145ec:	00 
  4145ed:	48 81 c4 88 00 00 00 	add    $0x88,%rsp
  4145f4:	c3                   	retq   
  4145f5:	66 2e 0f 1f 84 00 00 	nopw   %cs:0x0(%rax,%rax,1)
  4145fc:	00 00 00 
  4145ff:	90                   	nop

0000000000414600 <_ZNSt8_Rb_treeImSt4pairIKmmESt10_Select1stIS2_ESt4lessImESaIS2_EE11_M_leftmostEv>:
  414600:	48 89 7c 24 f8       	mov    %rdi,-0x8(%rsp)
  414605:	48 8b 44 24 f8       	mov    -0x8(%rsp),%rax
  41460a:	48 83 c0 08          	add    $0x8,%rax
  41460e:	48 83 c0 10          	add    $0x10,%rax
  414612:	c3                   	retq   
  414613:	66 2e 0f 1f 84 00 00 	nopw   %cs:0x0(%rax,%rax,1)
  41461a:	00 00 00 
  41461d:	0f 1f 00             	nopl   (%rax)

0000000000414620 <_ZNSt4pairIPSt18_Rb_tree_node_baseS1_EC2IRS1_S4_Lb1EEEOT_OT0_>:
  414620:	48 83 ec 28          	sub    $0x28,%rsp
  414624:	48 89 7c 24 20       	mov    %rdi,0x20(%rsp)
  414629:	48 89 74 24 18       	mov    %rsi,0x18(%rsp)
  41462e:	48 89 54 24 10       	mov    %rdx,0x10(%rsp)
  414633:	48 8b 44 24 20       	mov    0x20(%rsp),%rax
  414638:	48 89 44 24 08       	mov    %rax,0x8(%rsp)
  41463d:	48 8b 7c 24 18       	mov    0x18(%rsp),%rdi
  414642:	e8 c9 00 00 00       	callq  414710 <_ZSt7forwardIRPSt18_Rb_tree_node_baseEOT_RNSt16remove_referenceIS3_E4typeE>
  414647:	48 89 c1             	mov    %rax,%rcx
  41464a:	48 8b 44 24 08       	mov    0x8(%rsp),%rax
  41464f:	48 8b 09             	mov    (%rcx),%rcx
  414652:	48 89 08             	mov    %rcx,(%rax)
  414655:	48 8b 7c 24 10       	mov    0x10(%rsp),%rdi
  41465a:	e8 b1 00 00 00       	callq  414710 <_ZSt7forwardIRPSt18_Rb_tree_node_baseEOT_RNSt16remove_referenceIS3_E4typeE>
  41465f:	48 89 c1             	mov    %rax,%rcx
  414662:	48 8b 44 24 08       	mov    0x8(%rsp),%rax
  414667:	48 8b 09             	mov    (%rcx),%rcx
  41466a:	48 89 48 08          	mov    %rcx,0x8(%rax)
  41466e:	48 83 c4 28          	add    $0x28,%rsp
  414672:	c3                   	retq   
  414673:	66 2e 0f 1f 84 00 00 	nopw   %cs:0x0(%rax,%rax,1)
  41467a:	00 00 00 
  41467d:	0f 1f 00             	nopl   (%rax)

0000000000414680 <_ZNSt17_Rb_tree_iteratorISt4pairIKmmEEmmEv>:
  414680:	48 83 ec 18          	sub    $0x18,%rsp
  414684:	48 89 7c 24 10       	mov    %rdi,0x10(%rsp)
  414689:	48 8b 44 24 10       	mov    0x10(%rsp),%rax
  41468e:	48 89 44 24 08       	mov    %rax,0x8(%rsp)
  414693:	48 8b 38             	mov    (%rax),%rdi
  414696:	e8 25 cb fe ff       	callq  4011c0 <_ZSt18_Rb_tree_decrementPSt18_Rb_tree_node_base@plt>
  41469b:	48 89 c1             	mov    %rax,%rcx
  41469e:	48 8b 44 24 08       	mov    0x8(%rsp),%rax
  4146a3:	48 89 08             	mov    %rcx,(%rax)
  4146a6:	48 83 c4 18          	add    $0x18,%rsp
  4146aa:	c3                   	retq   
  4146ab:	0f 1f 44 00 00       	nopl   0x0(%rax,%rax,1)

00000000004146b0 <_ZNSt4pairIPSt18_Rb_tree_node_baseS1_EC2IRS1_Lb1EEEOT_RKS1_>:
  4146b0:	48 83 ec 28          	sub    $0x28,%rsp
  4146b4:	48 89 7c 24 20       	mov    %rdi,0x20(%rsp)
  4146b9:	48 89 74 24 18       	mov    %rsi,0x18(%rsp)
  4146be:	48 89 54 24 10       	mov    %rdx,0x10(%rsp)
  4146c3:	48 8b 44 24 20       	mov    0x20(%rsp),%rax
  4146c8:	48 89 44 24 08       	mov    %rax,0x8(%rsp)
  4146cd:	48 8b 7c 24 18       	mov    0x18(%rsp),%rdi
  4146d2:	e8 39 00 00 00       	callq  414710 <_ZSt7forwardIRPSt18_Rb_tree_node_baseEOT_RNSt16remove_referenceIS3_E4typeE>
  4146d7:	48 89 c1             	mov    %rax,%rcx
  4146da:	48 8b 44 24 08       	mov    0x8(%rsp),%rax
  4146df:	48 8b 09             	mov    (%rcx),%rcx
  4146e2:	48 89 08             	mov    %rcx,(%rax)
  4146e5:	48 8b 4c 24 10       	mov    0x10(%rsp),%rcx
  4146ea:	48 8b 09             	mov    (%rcx),%rcx
  4146ed:	48 89 48 08          	mov    %rcx,0x8(%rax)
  4146f1:	48 83 c4 28          	add    $0x28,%rsp
  4146f5:	c3                   	retq   
  4146f6:	66 2e 0f 1f 84 00 00 	nopw   %cs:0x0(%rax,%rax,1)
  4146fd:	00 00 00 

0000000000414700 <_ZNSt8_Rb_treeImSt4pairIKmmESt10_Select1stIS2_ESt4lessImESaIS2_EE8_S_valueEPKSt18_Rb_tree_node_base>:
  414700:	50                   	push   %rax
  414701:	48 89 3c 24          	mov    %rdi,(%rsp)
  414705:	48 8b 3c 24          	mov    (%rsp),%rdi
  414709:	e8 b2 f1 ff ff       	callq  4138c0 <_ZNKSt13_Rb_tree_nodeISt4pairIKmmEE9_M_valptrEv>
  41470e:	59                   	pop    %rcx
  41470f:	c3                   	retq   

0000000000414710 <_ZSt7forwardIRPSt18_Rb_tree_node_baseEOT_RNSt16remove_referenceIS3_E4typeE>:
  414710:	48 89 7c 24 f8       	mov    %rdi,-0x8(%rsp)
  414715:	48 8b 44 24 f8       	mov    -0x8(%rsp),%rax
  41471a:	c3                   	retq   
  41471b:	0f 1f 44 00 00       	nopl   0x0(%rax,%rax,1)

0000000000414720 <_ZNSt4pairIPSt18_Rb_tree_node_baseS1_EC2IRPSt13_Rb_tree_nodeIS_IKmmEERS1_Lb1EEEOT_OT0_>:
  414720:	48 83 ec 28          	sub    $0x28,%rsp
  414724:	48 89 7c 24 20       	mov    %rdi,0x20(%rsp)
  414729:	48 89 74 24 18       	mov    %rsi,0x18(%rsp)
  41472e:	48 89 54 24 10       	mov    %rdx,0x10(%rsp)
  414733:	48 8b 44 24 20       	mov    0x20(%rsp),%rax
  414738:	48 89 44 24 08       	mov    %rax,0x8(%rsp)
  41473d:	48 8b 7c 24 18       	mov    0x18(%rsp),%rdi
  414742:	e8 39 00 00 00       	callq  414780 <_ZSt7forwardIRPSt13_Rb_tree_nodeISt4pairIKmmEEEOT_RNSt16remove_referenceIS7_E4typeE>
  414747:	48 89 c1             	mov    %rax,%rcx
  41474a:	48 8b 44 24 08       	mov    0x8(%rsp),%rax
  41474f:	48 8b 09             	mov    (%rcx),%rcx
  414752:	48 89 08             	mov    %rcx,(%rax)
  414755:	48 8b 7c 24 10       	mov    0x10(%rsp),%rdi
  41475a:	e8 b1 ff ff ff       	callq  414710 <_ZSt7forwardIRPSt18_Rb_tree_node_baseEOT_RNSt16remove_referenceIS3_E4typeE>
  41475f:	48 89 c1             	mov    %rax,%rcx
  414762:	48 8b 44 24 08       	mov    0x8(%rsp),%rax
  414767:	48 8b 09             	mov    (%rcx),%rcx
  41476a:	48 89 48 08          	mov    %rcx,0x8(%rax)
  41476e:	48 83 c4 28          	add    $0x28,%rsp
  414772:	c3                   	retq   
  414773:	66 2e 0f 1f 84 00 00 	nopw   %cs:0x0(%rax,%rax,1)
  41477a:	00 00 00 
  41477d:	0f 1f 00             	nopl   (%rax)

0000000000414780 <_ZSt7forwardIRPSt13_Rb_tree_nodeISt4pairIKmmEEEOT_RNSt16remove_referenceIS7_E4typeE>:
  414780:	48 89 7c 24 f8       	mov    %rdi,-0x8(%rsp)
  414785:	48 8b 44 24 f8       	mov    -0x8(%rsp),%rax
  41478a:	c3                   	retq   
  41478b:	0f 1f 44 00 00       	nopl   0x0(%rax,%rax,1)

0000000000414790 <_ZNSt8_Rb_treeImSt4pairIKmmESt10_Select1stIS2_ESt4lessImESaIS2_EE15_M_destroy_nodeEPSt13_Rb_tree_nodeIS2_E>:
  414790:	48 83 ec 18          	sub    $0x18,%rsp
  414794:	48 89 7c 24 10       	mov    %rdi,0x10(%rsp)
  414799:	48 89 74 24 08       	mov    %rsi,0x8(%rsp)
  41479e:	48 8b 7c 24 10       	mov    0x10(%rsp),%rdi
  4147a3:	e8 f8 f8 ff ff       	callq  4140a0 <_ZNSt8_Rb_treeImSt4pairIKmmESt10_Select1stIS2_ESt4lessImESaIS2_EE21_M_get_Node_allocatorEv>
  4147a8:	48 89 04 24          	mov    %rax,(%rsp)
  4147ac:	48 8b 7c 24 08       	mov    0x8(%rsp),%rdi
  4147b1:	e8 2a ed ff ff       	callq  4134e0 <_ZNSt13_Rb_tree_nodeISt4pairIKmmEE9_M_valptrEv>
  4147b6:	48 8b 3c 24          	mov    (%rsp),%rdi
  4147ba:	48 89 c6             	mov    %rax,%rsi
  4147bd:	e8 3e 00 00 00       	callq  414800 <_ZNSt16allocator_traitsISaISt13_Rb_tree_nodeISt4pairIKmmEEEE7destroyIS3_EEvRS5_PT_>
  4147c2:	48 83 c4 18          	add    $0x18,%rsp
  4147c6:	c3                   	retq   
  4147c7:	66 0f 1f 84 00 00 00 	nopw   0x0(%rax,%rax,1)
  4147ce:	00 00 

00000000004147d0 <_ZNSt8_Rb_treeImSt4pairIKmmESt10_Select1stIS2_ESt4lessImESaIS2_EE11_M_put_nodeEPSt13_Rb_tree_nodeIS2_E>:
  4147d0:	48 83 ec 18          	sub    $0x18,%rsp
  4147d4:	48 89 7c 24 10       	mov    %rdi,0x10(%rsp)
  4147d9:	48 89 74 24 08       	mov    %rsi,0x8(%rsp)
  4147de:	48 8b 7c 24 10       	mov    0x10(%rsp),%rdi
  4147e3:	e8 b8 f8 ff ff       	callq  4140a0 <_ZNSt8_Rb_treeImSt4pairIKmmESt10_Select1stIS2_ESt4lessImESaIS2_EE21_M_get_Node_allocatorEv>
  4147e8:	48 89 c7             	mov    %rax,%rdi
  4147eb:	48 8b 74 24 08       	mov    0x8(%rsp),%rsi
  4147f0:	ba 01 00 00 00       	mov    $0x1,%edx
  4147f5:	e8 46 00 00 00       	callq  414840 <_ZNSt16allocator_traitsISaISt13_Rb_tree_nodeISt4pairIKmmEEEE10deallocateERS5_PS4_m>
  4147fa:	48 83 c4 18          	add    $0x18,%rsp
  4147fe:	c3                   	retq   
  4147ff:	90                   	nop

0000000000414800 <_ZNSt16allocator_traitsISaISt13_Rb_tree_nodeISt4pairIKmmEEEE7destroyIS3_EEvRS5_PT_>:
  414800:	48 83 ec 18          	sub    $0x18,%rsp
  414804:	48 89 7c 24 10       	mov    %rdi,0x10(%rsp)
  414809:	48 89 74 24 08       	mov    %rsi,0x8(%rsp)
  41480e:	48 8b 7c 24 10       	mov    0x10(%rsp),%rdi
  414813:	48 8b 74 24 08       	mov    0x8(%rsp),%rsi
  414818:	e8 13 00 00 00       	callq  414830 <_ZN9__gnu_cxx13new_allocatorISt13_Rb_tree_nodeISt4pairIKmmEEE7destroyIS4_EEvPT_>
  41481d:	48 83 c4 18          	add    $0x18,%rsp
  414821:	c3                   	retq   
  414822:	66 2e 0f 1f 84 00 00 	nopw   %cs:0x0(%rax,%rax,1)
  414829:	00 00 00 
  41482c:	0f 1f 40 00          	nopl   0x0(%rax)

0000000000414830 <_ZN9__gnu_cxx13new_allocatorISt13_Rb_tree_nodeISt4pairIKmmEEE7destroyIS4_EEvPT_>:
  414830:	48 89 7c 24 f8       	mov    %rdi,-0x8(%rsp)
  414835:	48 89 74 24 f0       	mov    %rsi,-0x10(%rsp)
  41483a:	c3                   	retq   
  41483b:	0f 1f 44 00 00       	nopl   0x0(%rax,%rax,1)

0000000000414840 <_ZNSt16allocator_traitsISaISt13_Rb_tree_nodeISt4pairIKmmEEEE10deallocateERS5_PS4_m>:
  414840:	48 83 ec 18          	sub    $0x18,%rsp
  414844:	48 89 7c 24 10       	mov    %rdi,0x10(%rsp)
  414849:	48 89 74 24 08       	mov    %rsi,0x8(%rsp)
  41484e:	48 89 14 24          	mov    %rdx,(%rsp)
  414852:	48 8b 7c 24 10       	mov    0x10(%rsp),%rdi
  414857:	48 8b 74 24 08       	mov    0x8(%rsp),%rsi
  41485c:	48 8b 14 24          	mov    (%rsp),%rdx
  414860:	e8 0b 00 00 00       	callq  414870 <_ZN9__gnu_cxx13new_allocatorISt13_Rb_tree_nodeISt4pairIKmmEEE10deallocateEPS5_m>
  414865:	48 83 c4 18          	add    $0x18,%rsp
  414869:	c3                   	retq   
  41486a:	66 0f 1f 44 00 00    	nopw   0x0(%rax,%rax,1)

0000000000414870 <_ZN9__gnu_cxx13new_allocatorISt13_Rb_tree_nodeISt4pairIKmmEEE10deallocateEPS5_m>:
  414870:	48 83 ec 18          	sub    $0x18,%rsp
  414874:	48 89 7c 24 10       	mov    %rdi,0x10(%rsp)
  414879:	48 89 74 24 08       	mov    %rsi,0x8(%rsp)
  41487e:	48 89 14 24          	mov    %rdx,(%rsp)
  414882:	48 8b 7c 24 08       	mov    0x8(%rsp),%rdi
  414887:	e8 e4 c8 fe ff       	callq  401170 <_ZdlPv@plt>
  41488c:	48 83 c4 18          	add    $0x18,%rsp
  414890:	c3                   	retq   
  414891:	66 2e 0f 1f 84 00 00 	nopw   %cs:0x0(%rax,%rax,1)
  414898:	00 00 00 
  41489b:	0f 1f 44 00 00       	nopl   0x0(%rax,%rax,1)

00000000004148a0 <_ZNSt11_Tuple_implILm0EJRKmEEC2ES1_>:
  4148a0:	48 83 ec 18          	sub    $0x18,%rsp
  4148a4:	48 89 7c 24 10       	mov    %rdi,0x10(%rsp)
  4148a9:	48 89 74 24 08       	mov    %rsi,0x8(%rsp)
  4148ae:	48 8b 7c 24 10       	mov    0x10(%rsp),%rdi
  4148b3:	48 8b 74 24 08       	mov    0x8(%rsp),%rsi
  4148b8:	e8 f3 f9 ff ff       	callq  4142b0 <_ZNSt10_Head_baseILm0ERKmLb0EEC2ES1_>
  4148bd:	48 83 c4 18          	add    $0x18,%rsp
  4148c1:	c3                   	retq   
  4148c2:	66 2e 0f 1f 84 00 00 	nopw   %cs:0x0(%rax,%rax,1)
  4148c9:	00 00 00 
  4148cc:	0f 1f 40 00          	nopl   0x0(%rax)

00000000004148d0 <__libc_csu_init>:
  4148d0:	41 57                	push   %r15
  4148d2:	41 56                	push   %r14
  4148d4:	49 89 d7             	mov    %rdx,%r15
  4148d7:	41 55                	push   %r13
  4148d9:	41 54                	push   %r12
  4148db:	4c 8d 25 a6 34 20 00 	lea    0x2034a6(%rip),%r12        # 617d88 <__init_array_start>
  4148e2:	55                   	push   %rbp
  4148e3:	48 8d 2d c6 34 20 00 	lea    0x2034c6(%rip),%rbp        # 617db0 <__init_array_end>
  4148ea:	53                   	push   %rbx
  4148eb:	41 89 fd             	mov    %edi,%r13d
  4148ee:	49 89 f6             	mov    %rsi,%r14
  4148f1:	4c 29 e5             	sub    %r12,%rbp
  4148f4:	48 83 ec 08          	sub    $0x8,%rsp
  4148f8:	48 c1 fd 03          	sar    $0x3,%rbp
  4148fc:	e8 37 c7 fe ff       	callq  401038 <_init>
  414901:	48 85 ed             	test   %rbp,%rbp
  414904:	74 20                	je     414926 <__libc_csu_init+0x56>
  414906:	31 db                	xor    %ebx,%ebx
  414908:	0f 1f 84 00 00 00 00 	nopl   0x0(%rax,%rax,1)
  41490f:	00 
  414910:	4c 89 fa             	mov    %r15,%rdx
  414913:	4c 89 f6             	mov    %r14,%rsi
  414916:	44 89 ef             	mov    %r13d,%edi
  414919:	41 ff 14 dc          	callq  *(%r12,%rbx,8)
  41491d:	48 83 c3 01          	add    $0x1,%rbx
  414921:	48 39 dd             	cmp    %rbx,%rbp
  414924:	75 ea                	jne    414910 <__libc_csu_init+0x40>
  414926:	48 83 c4 08          	add    $0x8,%rsp
  41492a:	5b                   	pop    %rbx
  41492b:	5d                   	pop    %rbp
  41492c:	41 5c                	pop    %r12
  41492e:	41 5d                	pop    %r13
  414930:	41 5e                	pop    %r14
  414932:	41 5f                	pop    %r15
  414934:	c3                   	retq   
  414935:	90                   	nop
  414936:	66 2e 0f 1f 84 00 00 	nopw   %cs:0x0(%rax,%rax,1)
  41493d:	00 00 00 

0000000000414940 <__libc_csu_fini>:
  414940:	f3 c3                	repz retq 

Disassembly of section .fini:

0000000000414944 <_fini>:
  414944:	48 83 ec 08          	sub    $0x8,%rsp
  414948:	48 83 c4 08          	add    $0x8,%rsp
  41494c:	c3                   	retq   
